ccopy_reg
_reconstructor
p1
(celbow.chemistry.MoleculeClass
MoleculeClass
p2
c__builtin__
list
p3
(lp4
(ielbow.chemistry.AtomClass
AtomClass
p5
(dp6
S'tempFactor'
p7
F20
sS'tmp_id'
p8
I140412377157072
sS'pi_electrons'
p9
(I1
tp10
sS'starting_xyz'
p11
(ielbow.chemistry.xyzClass
xyzClass
p12
(dp13
S'dotProduct'
p14
I1
sS'angleScale'
p15
F57.295779513082323
sS'y'
F0
sS'x'
F0
sS'xyz'
p16
(F0
F0
F0
tp17
sS'z'
F0
sbsS'smiles_index'
p18
(lp19
I30
asS'pos'
p20
I0
sS'sign'
p21
S''
sS'ring_id'
p22
(lp23
sS'rotation_index'
p24
I0
sS'resName'
p25
S'LIG'
p26
sS'exclude'
p27
I00
sS'serial'
p28
S'    1'
p29
sS'ring_atom'
p30
I1
sS'id'
p31
I140412377157072
sS'bonded'
p32
(lp33
(ielbow.chemistry.AtomClass
AtomClass
p34
(dp35
g7
F20
sg8
I140412377157288
sg9
(I2
tp36
sg11
(ielbow.chemistry.xyzClass
xyzClass
p37
(dp38
g14
I1
sg15
F57.295779513082323
sS'y'
F-1.024867348216713
sS'x'
F-0.52998785615093946
sg16
(F-0.52998785615093946
F-1.024867348216713
F0.75265608616417445
tp39
sS'z'
F0.75265608616417445
sbsg18
(lp40
I29
asg20
I44
sg21
S''
sg22
(lp41
sS'cip_equal'
p42
(ielbow.chemistry.AtomClass
AtomClass
p43
(dp44
g7
F20
sg8
I140412377182576
sg9
g36
sg11
(ielbow.chemistry.xyzClass
xyzClass
p45
(dp46
g14
I1
sg15
F57.295779513082323
sS'y'
F-2.2279969643865036
sS'x'
F-0.47815029132435655
sg16
(F-0.47815029132435655
F-2.2279969643865036
F2.8923724497451953
tp47
sS'z'
F2.8923724497451953
sbsg16
(ielbow.chemistry.xyzClass
xyzClass
p48
(dp49
g14
I1
sg15
F57.295779513082323
sS'y'
F-4.7444023348535049
sS'x'
F-2.031504739738685
sg16
(F-2.031504739738685
F-4.7444023348535049
F2.7150905279254207
tp50
sS'z'
F2.7150905279254207
sbsg20
I41
sg21
S''
sg22
(lp51
sg24
I20
sg25
S'LIG'
p52
sg42
(ielbow.chemistry.AtomClass
AtomClass
p53
(dp54
g7
F20
sg8
I140412377185024
sg9
g36
sg11
(ielbow.chemistry.xyzClass
xyzClass
p55
(dp56
g14
I1
sg15
F57.295779513082323
sS'y'
F-1.059832077042248
sS'x'
F1.6100163874092406
sg16
(F1.6100163874092406
F-1.059832077042248
F2.1107387989502437
tp57
sS'z'
F2.1107387989502437
sbsg16
(ielbow.chemistry.xyzClass
xyzClass
p58
(dp59
g14
I1
sg15
F57.295779513082323
sS'y'
F-3.6169955542145962
sS'x'
F0.0605379332284115
sg16
(F0.0605379332284115
F-3.6169955542145962
F1.9000729190549623
tp60
sS'z'
F1.9000729190549623
sbsg20
I37
sg21
S''
sg22
(lp61
sg42
g43
sg24
I18
sg25
S'LIG'
p62
sg27
I00
sg28
S'   19'
p63
sg30
I1
sg31
I140412377185024
sg32
(lp64
(ielbow.chemistry.AtomClass
AtomClass
p65
(dp66
g7
F20
sg8
I140412377157576
sg9
(I1
I2
tp67
sg11
(ielbow.chemistry.xyzClass
xyzClass
p68
(dp69
g14
I1
sg15
F57.295779513082323
sS'y'
F-1.0338940686572065
sS'x'
F0.0020156951147942692
sg16
(F0.0020156951147942692
F-1.0338940686572065
F2.1936897489553924
tp70
sS'z'
F2.1936897489553924
sbsg16
(ielbow.chemistry.xyzClass
xyzClass
p71
(dp72
g14
I1
sg15
F57.295779513082323
sS'y'
F-3.5567860936242077
sS'x'
F-1.5421336253431124
sg16
(F-1.5421336253431124
F-3.5567860936242077
F2.0203142305300874
tp73
sS'z'
F2.0203142305300874
sbsg20
I38
sg21
S''
sg22
(lp74
sg24
I19
sg25
S'LIG'
p75
sg27
I00
sg28
S'   20'
p76
sg30
I1
sg31
I140412377157576
sg32
(lp77
(ielbow.chemistry.AtomClass
AtomClass
p78
(dp79
g9
g36
sg11
(ielbow.chemistry.xyzClass
xyzClass
p80
(dp81
g14
I1
sg15
F57.295779513082323
sS'y'
F0.32697198066626343
sS'x'
F-0.49594244896854367
sg16
(F-0.49594244896854367
F0.32697198066626343
F2.9822726320467225
tp82
sS'z'
F2.9822726320467225
sbsg16
(ielbow.chemistry.xyzClass
xyzClass
p83
(dp84
g14
I1
sg15
F57.295779513082323
sS'y'
F-2.1955821857527682
sS'x'
F-1.9907015067680753
sg16
(F-1.9907015067680753
F-2.1955821857527682
F2.8341316027855212
tp85
sS'z'
F2.8341316027855212
sbsg20
I47
sg22
(lp86
sg24
I22
sS'hydrogenised'
p87
I01
sS'occupancy'
p88
F1
sS'charge'
p89
I0
sS'input_index'
p90
I22
sg18
(lp91
I31
asS'unique_residue_key_altloc'
p92
S'LIG:1:A:???'
p93
sS'record_name'
p94
S'HETATM'
p95
sS'cif_index'
p96
I22
sS'number'
p97
I8
sS'original_serial'
p98
S'   23'
p99
sS'cif_energy_type'
p100
S'OH1'
p101
sS'name'
p102
S' O23'
p103
sS'resSeq'
p104
I1
sS'original_index'
p105
I23
sS'unique_residue_key'
p106
S'LIG:1:A:'
p107
sS'iCode'
p108
S' '
sS'x'
F-1.9907015067680753
sS'z'
F2.8341316027855212
sS'cip_levels'
p109
g1
(celbow.chemistry.CIPMixins
PriorityClass
p110
g3
(lp111
I8
a(lp112
I1
aa(lp113
a(lp114
a(lp115
a(lp116
a(lp117
atRp118
sg7
F20
sg8
I140412377185888
sg21
S''
sg25
S'LIG'
p119
sg28
S'   23'
p120
sg31
I140412377185888
sg32
(lp121
g65
a(ielbow.chemistry.AtomClass
AtomClass
p122
(dp123
g9
Nsg11
(ielbow.chemistry.xyzClass
xyzClass
p124
(dp125
g14
I1
sg15
F57.295779513082323
sS'y'
F0.098737089379379861
sS'x'
F-1.152858627509409
sg16
(F-1.152858627509409
F0.098737089379379861
F3.6189816083141619
tp126
sS'z'
F3.6189816083141619
sbsg16
(ielbow.chemistry.xyzClass
xyzClass
p127
(dp128
g14
I1
sg15
F57.295779513082323
sS'y'
F-2.4370501707711174
sS'x'
F-2.4483921853596762
sg16
(F-2.4483921853596762
F-2.4370501707711174
F3.6221427410845752
tp129
sS'z'
F3.6221427410845752
sbsg97
I1
sg22
(lp130
sg24
I34
sg87
I01
sg88
F1
sg89
I0
sg90
I34
sg106
S'LIG:1:A:'
p131
sg92
S'LIG:1:A:???'
p132
sg94
g95
sg96
I34
sg98
S'   35'
p133
sg100
S'HOH1'
p134
sg102
S'H231'
p135
sg104
I1
sg105
I35
sg108
S' '
sS'x'
F-2.4483921853596762
sS'z'
F3.6221427410845752
sg7
F20
sg8
I140412377290512
sg21
S''
sg25
S'LIG'
p136
sg28
S'   35'
p137
sg31
I140412377290512
sg32
(lp138
g78
asS'index'
p139
I35
sS'pre_pdb_write_index'
p140
NsS'cip_done'
p141
S'140412312781144_0'
p142
sS'ring_id_backup'
p143
(lp144
sS'chainID'
p145
S'A'
sS'cif_name'
p146
g135
sS'symbol'
p147
S'H'
sS'segID'
p148
S'A'
sS'old_xyz'
p149
g127
sS'randomised'
p150
I01
sS'chiral'
p151
S''
sS'element'
p152
S'H'
sS'mass'
p153
F1.0079
sS'y'
F-2.4370501707711174
sbasg139
I23
sg140
NsS'cip_priority'
p154
I-1
sg141
S'140412312781144_0'
p155
sg143
(lp156
sg145
S'A'
sg146
g103
sg147
S'O'
sg148
S'A'
sg149
g83
sg150
I01
sg151
S''
sg152
S'O'
sg153
F15.9994
sS'y'
F-2.1955821857527682
sbag34
ag43
ag53
asg139
I20
sg140
NsS'double_bond'
p157
I01
sg87
I01
sS'overlap'
p158
I01
sg89
I0
sg104
I1
sg90
I19
sg18
(lp159
I27
asg88
F1
sg143
(lp160
sg145
S'A'
sg146
S' P20'
p161
sg96
I19
sg94
g95
sg147
S'P'
sg97
I15
sg148
S'A'
sg98
S'   20'
p162
sg106
S'LIG:1:A:'
p163
sg100
S'P'
sg149
g71
sg102
g161
sg150
I01
sg151
I01
sS'alternating_ring_index'
p164
I0
sS'ring_bonded'
p165
(lp166
g53
ag34
asS'ring_index'
p167
I1
sg152
S'P'
sg108
S' '
sg153
F30.973759999999999
sg92
S'LIG:1:A:???'
p168
sS'ring_indices_list'
p169
(lp170
I1
asS'y'
F-3.5567860936242077
sS'x'
F-1.5421336253431124
sS'z'
F2.0203142305300874
sg109
g1
(g110
g3
(ltRp171
sg105
I20
sba(ielbow.chemistry.AtomClass
AtomClass
p172
(dp173
g7
F20
sg8
I140412377157504
sg9
g10
sg11
(ielbow.chemistry.xyzClass
xyzClass
p174
(dp175
g14
I1
sg15
F57.295779513082323
sS'y'
F0
sS'x'
F2.142343130980263
sg16
(F2.142343130980263
F0
F1.284969821264675
tp176
sS'z'
F1.284969821264675
sbsg16
(ielbow.chemistry.xyzClass
xyzClass
p177
(dp178
g14
I1
sg15
F57.295779513082323
sS'y'
F-2.5613824674032739
sS'x'
F0.59624706506299874
sg16
(F0.59624706506299874
F-2.5613824674032739
F1.0756303269709282
tp179
sS'z'
F1.0756303269709282
sbsg20
I4
sg21
S''
sg22
(lp180
sS'aromatic'
p181
I00
sg25
S'LIG'
p182
sg27
I01
sg28
S'    3'
p183
sg30
I1
sg31
I140412377157504
sg32
(lp184
g53
a(ielbow.chemistry.AtomClass
AtomClass
p185
(dp186
g7
F20
sg8
I140412377157144
sg9
g10
sg11
(ielbow.chemistry.xyzClass
xyzClass
p187
(dp188
g14
I1
sg15
F57.295779513082323
sS'y'
F1.5058448257980319
sS'x'
F2.0207130578254855
sg16
(F2.0207130578254855
F1.5058448257980319
F1.799836958673112
tp189
sS'z'
F1.799836958673112
sbsg16
(ielbow.chemistry.xyzClass
xyzClass
p190
(dp191
g14
I1
sg15
F57.295779513082323
sS'y'
F-1.0632050146363645
sS'x'
F0.5164214698586207
sg16
(F0.5164214698586207
F-1.0632050146363645
F1.6104253060342253
tp192
sS'z'
F1.6104253060342253
sbsg20
I6
sg21
S''
sg22
(lp193
sg181
I00
sg25
S'LIG'
p194
sg27
I00
sg28
S'    4'
p195
sg30
I1
sg31
I140412377157144
sg32
(lp196
(ielbow.chemistry.AtomClass
AtomClass
p197
(dp198
g9
g36
sg11
(ielbow.chemistry.xyzClass
xyzClass
p199
(dp200
g14
I1
sg15
F57.295779513082323
sS'y'
F1.7537781623764233
sS'x'
F2.9777161341163074
sg16
(F2.9777161341163074
F1.7537781623764233
F2.8003923695548143
tp201
sS'z'
F2.8003923695548143
sbsg16
(ielbow.chemistry.xyzClass
xyzClass
p202
(dp203
g14
I1
sg15
F57.295779513082323
sS'y'
F-0.84731683969847316
sS'x'
F1.4969228689448781
sg16
(F1.4969228689448781
F-0.84731683969847316
F2.5872371989928933
tp204
sS'z'
F2.5872371989928933
sbsg20
I35
sg22
(lp205
sg24
I17
sg87
I01
sg88
F1
sg89
I0
sg90
I17
sg18
(lp206
I25
asg92
S'LIG:1:A:???'
p207
sg94
g95
sg96
I17
sg97
I8
sg98
S'   18'
p208
sg100
g101
sg102
S' O18'
p209
sg104
I1
sg105
I18
sg106
S'LIG:1:A:'
p210
sg108
S' '
sS'x'
F1.4969228689448781
sS'z'
F2.5872371989928933
sg109
g1
(g110
g3
(lp211
I8
a(lp212
I1
aa(lp213
a(lp214
a(lp215
a(lp216
a(lp217
atRp218
sg7
F20
sg8
I140412377185168
sg21
S''
sg25
S'LIG'
p219
sg28
S'   18'
p220
sg31
I140412377185168
sg32
(lp221
g185
a(ielbow.chemistry.AtomClass
AtomClass
p222
(dp223
g9
Nsg11
(ielbow.chemistry.xyzClass
xyzClass
p224
(dp225
g14
I1
sg15
F57.295779513082323
sS'y'
F1.9319390221598891
sS'x'
F2.5404193036644918
sg16
(F2.5404193036644918
F1.9319390221598891
F3.6165164666178851
tp226
sS'z'
F3.6165164666178851
sbsg16
(ielbow.chemistry.xyzClass
xyzClass
p227
(dp228
g14
I1
sg15
F57.295779513082323
sS'y'
F-0.5207969872187892
sS'x'
F1.0903483398582721
sg16
(F1.0903483398582721
F-0.5207969872187892
F3.3747053722523273
tp229
sS'z'
F3.3747053722523273
sbsg97
I1
sg22
(lp230
sg24
I33
sg87
I01
sg88
F1
sg89
I0
sg90
I33
sg106
S'LIG:1:A:'
p231
sg92
S'LIG:1:A:???'
p232
sg94
g95
sg96
I33
sg98
S'   34'
p233
sg100
g134
sg102
S'H181'
p234
sg104
I1
sg105
I34
sg108
S' '
sS'x'
F1.0903483398582721
sS'z'
F3.3747053722523273
sg7
F20
sg8
I140412376841032
sg21
S''
sg25
S'LIG'
p235
sg28
S'   34'
p236
sg31
I140412376841032
sg32
(lp237
g197
asg139
I34
sg140
Nsg141
S'140412312781144_4'
p238
sg143
(lp239
sg145
S'A'
sg146
g234
sg147
S'H'
sg148
S'A'
sg149
g227
sg150
I01
sg151
S''
sg152
S'H'
sg153
F1.0079
sS'y'
F-0.5207969872187892
sbasg139
I18
sg140
Nsg154
I3
sg141
S'140412312781144_4'
p240
sg143
(lp241
sg145
S'A'
sg146
g209
sg147
S'O'
sg148
S'A'
sg149
g202
sg150
I01
sg151
S''
sg152
S'O'
sg153
F15.9994
sS'y'
F-0.84731683969847316
sba(ielbow.chemistry.AtomClass
AtomClass
p242
(dp243
g7
F20
sg8
I140412377182360
sg9
g10
sg11
(ielbow.chemistry.xyzClass
xyzClass
p244
(dp245
g14
I1
sg15
F57.295779513082323
sS'y'
F2.29738859712351
sS'x'
F2.2689964466666339
sg16
(F2.2689964466666339
F2.29738859712351
F0.69880303691561441
tp246
sS'z'
F0.69880303691561441
sbsg16
(ielbow.chemistry.xyzClass
xyzClass
p247
(dp248
g14
I1
sg15
F57.295779513082323
sS'y'
F-0.26499963285964911
sS'x'
F0.75441059382242615
sg16
(F0.75441059382242615
F-0.26499963285964911
F0.51687001930306353
tp249
sS'z'
F0.51687001930306353
sbsg20
I8
sg21
S''
sg22
(lp250
sg181
I00
sg25
S'LIG'
p251
sg27
I00
sg28
S'    5'
p252
sg30
I1
sg31
I140412377182360
sg32
(lp253
(ielbow.chemistry.AtomClass
AtomClass
p254
(dp255
g7
F20
sg8
I140412377182720
sg9
g36
sg11
(ielbow.chemistry.xyzClass
xyzClass
p256
(dp257
g14
I1
sg15
F57.295779513082323
sS'y'
F1.4319938545990232
sS'x'
F1.8269542508324612
sg16
(F1.8269542508324612
F1.4319938545990232
F-0.54839824809144477
tp258
sS'z'
F-0.54839824809144477
sbsg18
(lp259
I8
asg20
I10
sg21
S''
sg22
(lp260
sg181
I00
sg25
S'LIG'
p261
sg27
I00
sg28
S'    6'
p262
sg30
I1
sg31
I140412377182720
sg32
(lp263
g242
a(ielbow.chemistry.AtomClass
AtomClass
p264
(dp265
g7
F20
sg8
I140412377157216
sg9
g10
sg11
(ielbow.chemistry.xyzClass
xyzClass
p266
(dp267
g14
I1
sg15
F57.295779513082323
sS'y'
F0
sS'x'
F1.5980197875564066
sg16
(F1.5980197875564066
F0
F0
tp268
sS'z'
F0
sbsg18
(lp269
I9
asg20
I2
sg21
S''
sg22
(lp270
sg181
I00
sg25
S'LIG'
p271
sg27
I01
sg28
S'    2'
p272
sg30
I1
sg31
I140412377157216
sg32
(lp273
g254
ag172
ag5
a(ielbow.chemistry.AtomClass
AtomClass
p274
(dp275
g9
Nsg11
(ielbow.chemistry.xyzClass
xyzClass
p276
(dp277
g14
I1
sg15
F57.295779513082323
sS'y'
F-0.7630387010764097
sS'x'
F2.0203280298630881
sg16
(F2.0203280298630881
F-0.7630387010764097
F-0.64263992921422686
tp278
sS'z'
F-0.64263992921422686
sbsg16
(ielbow.chemistry.xyzClass
xyzClass
p279
(dp280
g14
I1
sg15
F57.295779513082323
sS'y'
F-3.2978890511790016
sS'x'
F0.4150620699210672
sg16
(F0.4150620699210672
F-3.2978890511790016
F-0.85686538948789359
tp281
sS'z'
F-0.85686538948789359
sbsg97
I1
sg22
(lp282
sg24
I25
sg87
I01
sg88
F1
sg89
I0
sg90
I25
sg106
S'LIG:1:A:'
p283
sg92
S'LIG:1:A:???'
p284
sg94
g95
sg96
I25
sg98
S'   26'
p285
sg100
S'HCH1'
p286
sg102
S'H021'
p287
sg104
I1
sg105
I26
sg108
S' '
sS'x'
F0.4150620699210672
sS'z'
F-0.85686538948789359
sg109
g1
(g110
g3
(lp288
I1
a(lp289
a(lp290
a(lp291
a(lp292
a(lp293
a(lp294
atRp295
sg7
F20
sg8
I140412377257888
sg21
S''
sg25
S'LIG'
p296
sg28
S'   26'
p297
sg31
I140412377257888
sg32
(lp298
g264
asg139
I26
sg140
Nsg154
I0
sg141
g240
sg143
(lp299
sg145
S'A'
sg146
g287
sg147
S'H'
sg148
S'A'
sg149
g279
sg150
I01
sg151
S''
sg152
S'H'
sg153
F1.0079
sS'y'
F-3.2978890511790016
sbasg139
I2
sg140
Nsg154
I-1
sg87
I01
sg158
I01
sg89
I0
sg104
I1
sg90
I1
sg141
S'140412312781144_4'
p300
sg16
(ielbow.chemistry.xyzClass
xyzClass
p301
(dp302
g14
I1
sg15
F57.295779513082323
sS'y'
F-2.5345170782955737
sS'x'
F0.023651584290317107
sg16
(F0.023651584290317107
F-2.5345170782955737
F-0.19516359353799895
tp303
sS'z'
F-0.19516359353799895
sbsg88
F1
sg143
(lp304
sg145
S'A'
sg146
S' C02'
p305
sS'bond_symbol'
p306
S'-'
sg96
I1
sg94
g95
sg147
S'C'
sS'bond_order'
p307
I1
sg97
I6
sg148
S'A'
sg98
S'    2'
p308
sg106
S'LIG:1:A:'
p309
sg100
S'CH1'
p310
sg149
g301
sg102
g305
sg150
I01
sg151
I01
sg164
I1
sg165
(lp311
g254
ag172
ag5
ag172
asg167
I1
sg152
S'C'
sg108
S' '
sg153
F12.010999999999999
sg92
S'LIG:1:A:???'
p312
sg169
(lp313
I0
aI1
asS'y'
F-2.5345170782955737
sS'x'
F0.023651584290317107
sS'z'
F-0.19516359353799895
sg109
g1
(g110
g3
(lp314
I6
a(lp315
I8
aI6
aI1
aa(lp316
I6
aI8
aI1
aI1
aa(lp317
I7
aI6
aI1
aI15
aa(lp318
I8
aI8
aI8
aa(lp319
I1
aa(lp320
I6
aI6
aI8
aI1
aI6
aI6
aI7
aI6
aatRp321
sg105
I2
sg24
I1
sbasg139
I6
sg140
Nsg154
I3
sg87
I01
sg158
I01
sg89
I0
sg104
I1
sg90
I5
sg141
g240
sg16
(ielbow.chemistry.xyzClass
xyzClass
p322
(dp323
g14
I1
sg15
F57.295779513082323
sS'y'
F-1.1049855091437393
sS'x'
F0.26756259347364408
sg16
(F0.26756259347364408
F-1.1049855091437393
F-0.72936467502525248
tp324
sS'z'
F-0.72936467502525248
sbsg88
F1
sg143
(lp325
sg145
S'A'
sg146
S' O06'
p326
sg306
S'-'
sg96
I5
sg94
g95
sg147
S'O'
sg307
I1
sg97
I8
sg148
S'A'
sg98
S'    6'
p327
sg106
S'LIG:1:A:'
p328
sg100
S'O2'
p329
sg149
g322
sg102
g326
sg150
I01
sg151
S''
sg164
I0
sg165
(lp330
g242
ag264
asg167
I1
sg152
S'O'
sg108
S' '
sg153
F15.9994
sg92
S'LIG:1:A:???'
p331
sg169
(lp332
I0
asS'y'
F-1.1049855091437393
sS'x'
F0.26756259347364408
sS'z'
F-0.72936467502525248
sg109
g1
(g110
g3
(lp333
I8
a(lp334
I6
aa(lp335
I6
aI6
aI1
aa(lp336
I8
aI6
aI1
aI8
aI1
aI1
aa(lp337
I15
aa(lp338
I8
aI8
aa(lp339
I1
aI8
aI1
aatRp340
sg105
I6
sg24
I5
sba(ielbow.chemistry.AtomClass
AtomClass
p341
(dp342
g7
F20
sg8
I140412377183296
sg9
(I1
I2
tp343
sg11
(ielbow.chemistry.xyzClass
xyzClass
p344
(dp345
g14
I1
sg15
F57.295779513082323
sS'y'
F3.5292429974242232
sS'x'
F1.5261002717567045
sg16
(F1.5261002717567045
F3.5292429974242232
F0.392176279049889
tp346
sS'z'
F0.392176279049889
sbsg18
(lp347
I17
asg20
I13
sg21
S''
sg22
(lp348
sg181
I01
sg25
S'LIG'
p349
sg27
I00
sg28
S'    7'
p350
sg30
I2
sg31
I140412377183296
sg32
(lp351
(ielbow.chemistry.AtomClass
AtomClass
p352
(dp353
g7
F20
sg8
I140412377183656
sg9
g10
sg11
(ielbow.chemistry.xyzClass
xyzClass
p354
(dp355
g14
I1
sg15
F57.295779513082323
sS'y'
F4.2193913451574954
sS'x'
F1.5834447069492548
sg16
(F1.5834447069492548
F4.2193913451574954
F-0.7662403730677223
tp356
sS'z'
F-0.7662403730677223
sbsg18
(lp357
I16
asg20
I21
sg21
S''
sg22
(lp358
sg181
I01
sg25
S'LIG'
p359
sg27
I01
sg28
S'   11'
p360
sg30
I2
sg31
I140412377183656
sg32
(lp361
g341
a(ielbow.chemistry.AtomClass
AtomClass
p362
(dp363
g7
F20
sg8
I140412377182288
sg9
g343
sg11
(ielbow.chemistry.xyzClass
xyzClass
p364
(dp365
g14
I1
sg15
F57.295779513082323
sS'y'
F3.980479093470433
sS'x'
F2.3384692523199027
sg16
(F2.3384692523199027
F3.980479093470433
F-2.0335353739038409
tp366
sS'z'
F-2.0335353739038409
sbsg16
(ielbow.chemistry.xyzClass
xyzClass
p367
(dp368
g14
I1
sg15
F57.295779513082323
sS'y'
F1.8378821496627045
sS'x'
F1.4029116470529728
sg16
(F1.4029116470529728
F1.8378821496627045
F-1.8027991168662623
tp369
sS'z'
F-1.8027991168662623
sbsg20
I23
sg21
S''
sg22
(lp370
sg24
I11
sg25
S'LIG'
p371
sg27
I00
sg28
S'   12'
p372
sg30
I2
sg31
I140412377182288
sg32
(lp373
(ielbow.chemistry.AtomClass
AtomClass
p374
(dp375
g7
F20
sg8
I140412377182936
sg9
g10
sg11
(ielbow.chemistry.xyzClass
xyzClass
p376
(dp377
g14
I1
sg15
F57.295779513082323
sS'y'
F4.9246754074912529
sS'x'
F2.2198785931556717
sg16
(F2.2198785931556717
F4.9246754074912529
F-3.1465093991293678
tp378
sS'z'
F-3.1465093991293678
sbsg16
(ielbow.chemistry.xyzClass
xyzClass
p379
(dp380
g14
I1
sg15
F57.295779513082323
sS'y'
F2.994186685441226
sS'x'
F1.5640582892091055
sg16
(F1.5640582892091055
F2.994186685441226
F-2.6824170092473389
tp381
sS'z'
F-2.6824170092473389
sbsg20
I25
sg21
S''
sg22
(lp382
sg24
I12
sg25
S'LIG'
p383
sg27
I00
sg28
S'   13'
p384
sg30
I2
sg31
I140412377182936
sg32
(lp385
g362
a(ielbow.chemistry.AtomClass
AtomClass
p386
(dp387
g7
F20
sg8
I140412377184016
sg9
g343
sg11
(ielbow.chemistry.xyzClass
xyzClass
p388
(dp389
g14
I1
sg15
F57.295779513082323
sS'y'
F6.1280309117931662
sS'x'
F1.4452255516971935
sg16
(F1.4452255516971935
F6.1280309117931662
F-2.9903807403587659
tp390
sS'z'
F-2.9903807403587659
sbsg16
(ielbow.chemistry.xyzClass
xyzClass
p391
(dp392
g14
I1
sg15
F57.295779513082323
sS'y'
F4.1030282785259278
sS'x'
F0.65196404677678044
sg16
(F0.65196404677678044
F4.1030282785259278
F-2.5862284472531227
tp393
sS'z'
F-2.5862284472531227
sbsg20
I27
sg21
S''
sg22
(lp394
sg24
I13
sg25
S'LIG'
p395
sg27
I00
sg28
S'   14'
p396
sg30
I2
sg31
I140412377184016
sg32
(lp397
(ielbow.chemistry.AtomClass
AtomClass
p398
(dp399
g7
F20
sg8
I140412377183080
sg9
g10
sg11
(ielbow.chemistry.xyzClass
xyzClass
p400
(dp401
g14
I1
sg15
F57.295779513082323
sS'y'
F6.3809956146286693
sS'x'
F0.75963907819685894
sg16
(F0.75963907819685894
F6.3809956146286693
F-1.7615358385698228
tp402
sS'z'
F-1.7615358385698228
sbsg18
(lp403
I21
asg20
I28
sg21
S''
sg22
(lp404
sg24
I14
sg25
S'LIG'
p405
sg27
I00
sg28
S'   15'
p406
sg30
I2
sg31
I140412377183080
sg32
(lp407
(ielbow.chemistry.AtomClass
AtomClass
p408
(dp409
g9
g36
sg11
(ielbow.chemistry.xyzClass
xyzClass
p410
(dp411
g14
I0
sg15
F57.295779513082323
sS'y'
F7.4004864552698812
sS'x'
F0.17258533187720526
sg16
(F0.17258533187720526
F7.4004864552698812
F-1.6093257243184849
tp412
sS'z'
F-1.6093257243184849
sbsg16
(ielbow.chemistry.xyzClass
xyzClass
p413
(dp414
g14
I1
sg15
F57.295779513082323
sS'y'
F4.9827034738271934
sS'x'
F-1.1612358176400024
sg16
(F-1.1612358176400024
F4.9827034738271934
F-1.5490782549135484
tp415
sS'z'
F-1.5490782549135484
sbsg20
I31
sg22
(lp416
sg24
I15
sg87
I01
sg88
F1
sg89
I0
sg90
I15
sg106
S'LIG:1:A:'
p417
sg92
S'LIG:1:A:???'
p418
sg94
g95
sg96
I15
sg97
I8
sg98
S'   16'
p419
sg100
S'O'
sg102
S' O16'
p420
sg104
I1
sg105
I16
sg108
S' '
sS'x'
F-1.1612358176400024
sS'z'
F-1.5490782549135484
sg7
F20
sg8
I140412377185096
sg21
S''
sg18
(lp421
I23
asg25
S'LIG'
p422
sg28
S'   16'
p423
sg31
I140412377185096
sg32
(lp424
g398
asg139
I16
sg140
Nsg143
(lp425
sg145
S'A'
sg146
g420
sg147
S'O'
sg148
S'A'
sg149
g413
sg150
I01
sg151
S''
sg152
S'O'
sg153
F15.9994
sS'y'
F4.9827034738271934
sbag386
a(ielbow.chemistry.AtomClass
AtomClass
p426
(dp427
g7
F20
sg8
I140412377182504
sg9
g10
sg11
(ielbow.chemistry.xyzClass
xyzClass
p428
(dp429
g14
I1
sg15
F57.295779513082323
sS'y'
F5.3669601266485412
sS'x'
F0.84922480003920087
sg16
(F0.84922480003920087
F5.3669601266485412
F-0.61129944407108072
tp430
sS'z'
F-0.61129944407108072
sbsg18
(lp431
I22
asg20
I18
sg21
S''
sg22
(lp432
sg181
I01
sg25
S'LIG'
p433
sg27
I01
sg28
S'   10'
p434
sg30
I2
sg31
I140412377182504
sg32
(lp435
(ielbow.chemistry.AtomClass
AtomClass
p436
(dp437
g7
F20
sg8
I140412377183224
sg9
g343
sg11
(ielbow.chemistry.xyzClass
xyzClass
p438
(dp439
g14
I1
sg15
F57.295779513082323
sS'y'
F5.3730030865229716
sS'x'
F0.34732657767622621
sg16
(F0.34732657767622621
F5.3730030865229716
F0.6388002663172978
tp440
sS'z'
F0.6388002663172978
sbsg16
(ielbow.chemistry.xyzClass
xyzClass
p441
(dp442
g14
I1
sg15
F57.295779513082323
sS'y'
F2.6333141548945824
sS'x'
F-1.3796007277450042
sg16
(F-1.3796007277450042
F2.6333141548945824
F0.34788440159930845
tp443
sS'z'
F0.34788440159930845
sbsg20
I17
sg21
S''
sg22
(lp444
sg181
I01
sg25
S'LIG'
p445
sg27
I00
sg28
S'    9'
p446
sg30
I2
sg31
I140412377183224
sg32
(lp447
g426
a(ielbow.chemistry.AtomClass
AtomClass
p448
(dp449
g7
F20
sg8
I140412377182864
sg9
g10
sg11
(ielbow.chemistry.xyzClass
xyzClass
p450
(dp451
g14
I1
sg15
F57.295779513082323
sS'y'
F4.2365823617822587
sS'x'
F0.76332640849951683
sg16
(F0.76332640849951683
F4.2365823617822587
F1.2658352957372394
tp452
sS'z'
F1.2658352957372394
sbsg16
(ielbow.chemistry.xyzClass
xyzClass
p453
(dp454
g14
I1
sg15
F57.295779513082323
sS'y'
F1.4394917284685396
sS'x'
F-1.0362718663084336
sg16
(F-1.0362718663084336
F1.4394917284685396
F0.89447187261358874
tp455
sS'z'
F0.89447187261358874
sbsg20
I15
sg21
S''
sg22
(lp456
sg181
I01
sg25
S'LIG'
p457
sg27
I00
sg28
S'    8'
p458
sg30
I2
sg31
I140412377182864
sg32
(lp459
g436
ag341
a(ielbow.chemistry.AtomClass
AtomClass
p460
(dp461
g9
Nsg11
(ielbow.chemistry.xyzClass
xyzClass
p462
(dp463
g14
I0
sg15
F57.295779513082323
sS'y'
F3.9596686745703553
sS'x'
F0.54689322738848867
sg16
(F0.54689322738848867
F3.9596686745703553
F2.2905469026930061
tp464
sS'z'
F2.2905469026930061
sbsg16
(ielbow.chemistry.xyzClass
xyzClass
p465
(dp466
g14
I1
sg15
F57.295779513082323
sS'y'
F0.95445566010730332
sS'x'
F-1.5320267341434961
sg16
(F-1.5320267341434961
F0.95445566010730332
F1.7267750140986626
tp467
sS'z'
F1.7267750140986626
sbsg97
I1
sg22
(lp468
sg24
I29
sg87
I01
sg88
F1
sg89
I0
sg90
I29
sg106
S'LIG:1:A:'
p469
sg92
S'LIG:1:A:???'
p470
sg94
g95
sg96
I29
sg98
S'   30'
p471
sg100
S'HCR5'
p472
sg102
S'H081'
p473
sg104
I1
sg105
I30
sg108
S' '
sS'x'
F-1.5320267341434961
sS'z'
F1.7267750140986626
sg7
F20
sg8
I140412377321200
sg21
S''
sg25
S'LIG'
p474
sg28
S'   30'
p475
sg31
I140412377321200
sg32
(lp476
g448
asg139
I30
sg140
Nsg143
(lp477
sg145
S'A'
sg146
g473
sg147
S'H'
sg148
S'A'
sg149
g465
sg150
I01
sg151
S''
sg152
S'H'
sg153
F1.0079
sS'y'
F0.95445566010730332
sbasg139
I8
sg140
Nsg157
I01
sg87
I01
sg158
I01
sg89
I0
sg104
I1
sg90
I7
sg141
S'140412312781144_4'
p478
sg18
(lp479
I12
asg88
F1
sg143
(lp480
sg145
S'A'
sg146
S' C08'
p481
sg96
I7
sg94
g95
sg147
S'C'
sg97
I6
sg148
S'A'
sg98
S'    8'
p482
sg106
S'LIG:1:A:'
p483
sg100
S'CR15'
p484
sg149
g453
sg102
g481
sg150
I01
sg151
S''
sg164
I1
sg165
(lp485
g341
ag436
asg167
I2
sg152
S'C'
sg108
S' '
sg153
F12.010999999999999
sS'zmatrix_index'
p486
I2
sg169
(lp487
I0
asS'y'
F1.4394917284685396
sS'x'
F-1.0362718663084336
sS'z'
F0.89447187261358874
sg105
I8
sg92
S'LIG:1:A:???'
p488
sg24
I7
sbasg139
I9
sg140
Nsg157
I01
sg87
I01
sg158
I01
sg89
I0
sg104
I1
sg90
I8
sg18
(lp489
I13
asg88
F1
sg143
(lp490
sg145
S'A'
sg146
S' N09'
p491
sg96
I8
sg94
g95
sg147
S'N'
sg97
I7
sg148
S'A'
sg98
S'    9'
p492
sg106
S'LIG:1:A:'
p493
sg100
S'N'
sg149
g441
sg102
g491
sg150
I01
sg151
S''
sg164
I0
sg165
(lp494
g448
ag426
asg167
I2
sg152
S'N'
sg108
S' '
sg153
F14.0067
sg486
I3
sg169
(lp495
I0
asS'y'
F2.6333141548945824
sS'x'
F-1.3796007277450042
sS'z'
F0.34788440159930845
sg105
I9
sg92
S'LIG:1:A:???'
p496
sg24
I8
sbag352
ag398
asg139
I10
sg140
Nsg157
I01
sg87
I01
sg158
I01
sg89
I0
sg104
I1
sg90
I9
sg16
(ielbow.chemistry.xyzClass
xyzClass
p497
(dp498
g14
I1
sg15
F57.295779513082323
sS'y'
F2.8907174415841106
sS'x'
F-0.52683524290849515
sg16
(F-0.52683524290849515
F2.8907174415841106
F-0.65739577416741768
tp499
sS'z'
F-0.65739577416741768
sbsg88
F1
sg143
(lp500
sg145
S'A'
sg146
S' C10'
p501
sg306
S'-'
sg96
I9
sg94
g95
sg147
S'C'
sg307
I1
sg97
I6
sg148
S'A'
sg98
S'   10'
p502
sg106
S'LIG:1:A:'
p503
sg100
S'CR56'
p504
sg149
g497
sg102
g501
sg150
I01
sg151
S''
sg164
I0
sg165
(lp505
g436
ag352
ag398
ag352
asg167
I2
sg152
S'C'
sg108
S' '
sg153
F12.010999999999999
sg486
I4
sg169
(lp506
I0
aI1
asS'y'
F2.8907174415841106
sS'x'
F-0.52683524290849515
sS'z'
F-0.65739577416741768
sg105
I10
sg92
S'LIG:1:A:???'
p507
sg24
I9
sbasg139
I15
sg140
Nsg157
I01
sg87
I01
sg158
I01
sg89
I0
sg104
I1
sg90
I14
sg16
(ielbow.chemistry.xyzClass
xyzClass
p508
(dp509
g14
I1
sg15
F57.295779513082323
sS'y'
F4.0902772039528976
sS'x'
F-0.38418741844083004
sg16
(F-0.38418741844083004
F4.0902772039528976
F-1.6027398863650268
tp510
sS'z'
F-1.6027398863650268
sbsg88
F1
sg143
(lp511
sg145
S'A'
sg146
S' C15'
p512
sg306
S'-'
sg96
I14
sg94
g95
sg147
S'C'
sg307
I1
sg97
I6
sg148
S'A'
sg98
S'   15'
p513
sg106
S'LIG:1:A:'
p514
sg100
S'CR6'
p515
sg149
g508
sg102
g512
sg150
I01
sg151
S''
sg164
I1
sg165
(lp516
g386
ag426
asg167
I2
sg152
S'C'
sg108
S' '
sg153
F12.010999999999999
sg486
I9
sg169
(lp517
I1
asS'y'
F4.0902772039528976
sS'x'
F-0.38418741844083004
sS'z'
F-1.6027398863650268
sg105
I15
sg92
S'LIG:1:A:???'
p518
sbag374
a(ielbow.chemistry.AtomClass
AtomClass
p519
(dp520
g9
Nsg11
(ielbow.chemistry.xyzClass
xyzClass
p521
(dp522
g14
I0
sg15
F57.295779513082323
sS'y'
F6.7734425255187132
sS'x'
F1.3640930835586522
sg16
(F1.3640930835586522
F6.7734425255187132
F-3.7509871171279423
tp523
sS'z'
F-3.7509871171279423
sbsg16
(ielbow.chemistry.xyzClass
xyzClass
p524
(dp525
g14
I1
sg15
F57.295779513082323
sS'y'
F4.8952240166128522
sS'x'
F0.76147451081413275
sg16
(F0.76147451081413275
F4.8952240166128522
F-3.1880556394099786
tp526
sS'z'
F-3.1880556394099786
sbsg97
I1
sg22
(lp527
sg24
I30
sg87
I01
sg88
F1
sg89
I0
sg90
I30
sg106
S'LIG:1:A:'
p528
sg92
S'LIG:1:A:???'
p529
sg94
g95
sg96
I30
sg98
S'   31'
p530
sg100
S'HNR6'
p531
sg102
S'H141'
p532
sg104
I1
sg105
I31
sg108
S' '
sS'x'
F0.76147451081413275
sS'z'
F-3.1880556394099786
sg7
F20
sg8
I140412377320408
sg21
S''
sg25
S'LIG'
p533
sg28
S'   31'
p534
sg31
I140412377320408
sg32
(lp535
g386
asg139
I31
sg140
Nsg143
(lp536
sg145
S'A'
sg146
g532
sg147
S'H'
sg148
S'A'
sg149
g524
sg150
I01
sg151
S''
sg152
S'H'
sg153
F1.0079
sS'y'
F4.8952240166128522
sbasg139
I14
sg140
Nsg87
I01
sg158
I01
sg89
I0
sg104
I1
sg90
I13
sg18
(lp537
I20
asg88
F1
sg143
(lp538
sg145
S'A'
sg146
S' N14'
p539
sg96
I13
sg94
g95
sg147
S'N'
sg97
I7
sg148
S'A'
sg98
S'   14'
p540
sg106
S'LIG:1:A:'
p541
sg100
S'NR16'
p542
sg149
g391
sg102
g539
sg150
I01
sg151
S''
sg164
I0
sg165
(lp543
g374
ag398
asg167
I2
sg152
S'N'
sg108
S' '
sg153
F14.0067
sg486
I8
sg169
(lp544
I1
asS'y'
F4.1030282785259278
sS'x'
F0.65196404677678044
sS'z'
F-2.5862284472531227
sg105
I14
sg92
S'LIG:1:A:???'
p545
sba(ielbow.chemistry.AtomClass
AtomClass
p546
(dp547
g9
g343
sg11
(ielbow.chemistry.xyzClass
xyzClass
p548
(dp549
g14
I1
sg15
F57.295779513082323
sS'y'
F4.6602752438020119
sS'x'
F2.9080874213671355
sg16
(F2.9080874213671355
F4.6602752438020119
F-4.4018986040839874
tp550
sS'z'
F-4.4018986040839874
sbsg16
(ielbow.chemistry.xyzClass
xyzClass
p551
(dp552
g14
I1
sg15
F57.295779513082323
sS'y'
F3.0019127730803539
sS'x'
F2.6127571312069291
sg16
(F2.6127571312069291
F3.0019127730803539
F-3.68636738488867
tp553
sS'z'
F-3.68636738488867
sbsg20
I33
sg22
(lp554
sg24
I16
sg87
I01
sg88
F1
sg89
I0
sg90
I16
sg106
S'LIG:1:A:'
p555
sg92
S'LIG:1:A:???'
p556
sg94
g95
sg96
I16
sg97
I7
sg98
S'   17'
p557
sg100
S'NH2'
p558
sg102
S' N17'
p559
sg104
I1
sg105
I17
sg108
S' '
sS'x'
F2.6127571312069291
sS'z'
F-3.68636738488867
sg7
F20
sg8
I140412377184376
sg21
S''
sg18
(lp560
I24
asg25
S'LIG'
p561
sg28
S'   17'
p562
sg31
I140412377184376
sg32
(lp563
g374
a(ielbow.chemistry.AtomClass
AtomClass
p564
(dp565
g9
Nsg11
(ielbow.chemistry.xyzClass
xyzClass
p566
(dp567
g14
I0
sg15
F57.295779513082323
sS'y'
F5.3065635640162556
sS'x'
F2.8286117082046518
sg16
(F2.8286117082046518
F5.3065635640162556
F-5.1619352525898119
tp568
sS'z'
F-5.1619352525898119
sbsg16
(ielbow.chemistry.xyzClass
xyzClass
p569
(dp570
g14
I1
sg15
F57.295779513082323
sS'y'
F3.7604041945908278
sS'x'
F2.6763425893014876
sg16
(F2.6763425893014876
F3.7604041945908278
F-4.339042204010271
tp571
sS'z'
F-4.339042204010271
sbsg97
I1
sg22
(lp572
sg24
I31
sg87
I01
sg88
F1
sg89
I0
sg90
I31
sg106
S'LIG:1:A:'
p573
sg92
S'LIG:1:A:???'
p574
sg94
g95
sg96
I31
sg98
S'   32'
p575
sg100
S'HNH2'
p576
sg102
S'H171'
p577
sg104
I1
sg105
I32
sg108
S' '
sS'x'
F2.6763425893014876
sS'z'
F-4.339042204010271
sg7
F20
sg8
I140412377317816
sg21
S''
sg25
S'LIG'
p578
sg28
S'   32'
p579
sg31
I140412377317816
sg32
(lp580
g546
asg139
I32
sg140
Nsg143
(lp581
sg145
S'A'
sg146
g577
sg147
S'H'
sg148
S'A'
sg149
g569
sg150
I01
sg151
S''
sg152
S'H'
sg153
F1.0079
sS'y'
F3.7604041945908278
sba(ielbow.chemistry.AtomClass
AtomClass
p582
(dp583
g9
Nsg11
(ielbow.chemistry.xyzClass
xyzClass
p584
(dp585
g14
I0
sg15
F57.295779513082323
sS'y'
F3.8335581342302802
sS'x'
F3.4628650447160392
sg16
(F3.4628650447160392
F3.8335581342302802
F-4.5039833643212681
tp586
sS'z'
F-4.5039833643212681
sbsg16
(ielbow.chemistry.xyzClass
xyzClass
p587
(dp588
g14
I1
sg15
F57.295779513082323
sS'y'
F2.2428157970585771
sS'x'
F3.2656310237713049
sg16
(F3.2656310237713049
F2.2428157970585771
F-3.7349804448123853
tp589
sS'z'
F-3.7349804448123853
sbsg97
I1
sg22
(lp590
sg24
I32
sg87
I01
sg88
F1
sg89
I0
sg90
I32
sg106
S'LIG:1:A:'
p591
sg92
S'LIG:1:A:???'
p592
sg94
g95
sg96
I32
sg98
S'   33'
p593
sg100
g576
sg102
S'H172'
p594
sg104
I1
sg105
I33
sg108
S' '
sS'x'
F3.2656310237713049
sS'z'
F-3.7349804448123853
sg7
F20
sg8
I140412376840888
sg21
S''
sg25
S'LIG'
p595
sg28
S'   33'
p596
sg31
I140412376840888
sg32
(lp597
g546
asg139
I33
sg140
Nsg143
(lp598
sg145
S'A'
sg146
g594
sg147
S'H'
sg148
S'A'
sg149
g587
sg150
I01
sg151
S''
sg152
S'H'
sg153
F1.0079
sS'y'
F2.2428157970585771
sbasg139
I17
sg140
Nsg143
(lp599
sg145
S'A'
sg146
g559
sg147
S'N'
sg148
S'A'
sg149
g551
sg150
I01
sg151
S''
sg152
S'N'
sg153
F14.0067
sS'y'
F3.0019127730803539
sbasg139
I13
sg140
Nsg157
I01
sg87
I01
sg158
I01
sg89
I0
sg104
I1
sg90
I12
sg18
(lp600
I19
asg88
F1
sg143
(lp601
sg145
S'A'
sg146
S' C13'
p602
sg96
I12
sg94
g95
sg147
S'C'
sg97
I6
sg148
S'A'
sg98
S'   13'
p603
sg106
S'LIG:1:A:'
p604
sg100
g515
sg149
g379
sg102
g602
sg150
I01
sg151
S''
sg164
I1
sg165
(lp605
g362
ag386
asg167
I2
sg152
S'C'
sg108
S' '
sg153
F12.010999999999999
sg486
I7
sg169
(lp606
I1
asS'y'
F2.994186685441226
sS'x'
F1.5640582892091055
sS'z'
F-2.6824170092473389
sg105
I13
sg92
S'LIG:1:A:???'
p607
sbag352
asg139
I12
sg140
Nsg157
I01
sg87
I01
sg158
I01
sg89
I0
sg104
I1
sg90
I11
sg18
(lp608
I18
asg88
F1
sg143
(lp609
sg145
S'A'
sg146
S' N12'
p610
sg96
I11
sg94
g95
sg147
S'N'
sg97
I7
sg148
S'A'
sg98
S'   12'
p611
sg106
S'LIG:1:A:'
p612
sg100
S'N'
sg149
g367
sg102
g610
sg150
I01
sg151
S''
sg164
I0
sg165
(lp613
g352
ag374
asg167
I2
sg152
S'N'
sg108
S' '
sg153
F14.0067
sg486
I6
sg169
(lp614
I1
asS'y'
F1.8378821496627045
sS'x'
F1.4029116470529728
sS'z'
F-1.8027991168662623
sg105
I12
sg92
S'LIG:1:A:???'
p615
sbag426
asg139
I11
sg140
Nsg157
I01
sg87
I01
sg158
I01
sg89
I0
sg104
I1
sg90
I10
sg141
g478
sg16
(ielbow.chemistry.xyzClass
xyzClass
p616
(dp617
g14
I1
sg15
F57.295779513082323
sS'y'
F1.8487039517450872
sS'x'
F0.35563260155199128
sg16
(F0.35563260155199128
F1.8487039517450872
F-0.73836340400203571
tp618
sS'z'
F-0.73836340400203571
sbsg88
F1
sg143
(lp619
sg145
S'A'
sg146
S' C11'
p620
sg306
S'-'
sg96
I10
sg94
g95
sg147
S'C'
sg307
I1
sg97
I6
sg148
S'A'
sg98
S'   11'
p621
sg106
S'LIG:1:A:'
p622
sg100
g504
sg149
g616
sg102
g620
sg150
I01
sg151
S''
sg164
I1
sg165
(lp623
g426
ag341
ag426
ag362
asg167
I2
sg152
S'C'
sg108
S' '
sg153
F12.010999999999999
sg486
I5
sg169
(lp624
I0
aI1
asS'y'
F1.8487039517450872
sS'x'
F0.35563260155199128
sS'z'
F-0.73836340400203571
sg105
I11
sg92
S'LIG:1:A:???'
p625
sg24
I10
sbag448
ag242
asg139
I7
sg140
Nsg154
I2
sg87
I01
sg158
I01
sg89
I0
sg104
I1
sg90
I6
sg141
g478
sg16
(ielbow.chemistry.xyzClass
xyzClass
p626
(dp627
g14
I1
sg15
F57.295779513082323
sS'y'
F0.96106585433135638
sS'x'
F0.03634384054496409
sg16
(F0.03634384054496409
F0.96106585433135638
F0.2182036370071333
tp628
sS'z'
F0.2182036370071333
sbsg88
F1
sg143
(lp629
sg145
S'A'
sg146
S' N07'
p630
sg306
S'-'
sg96
I6
sg94
g95
sg147
S'N'
sg307
I1
sg97
I7
sg148
S'A'
sg98
S'    7'
p631
sg106
S'LIG:1:A:'
p632
sg100
S'NR5'
p633
sg149
g626
sg102
g630
sg150
I01
sg151
S''
sg164
I0
sg165
(lp634
g352
ag448
asg167
I2
sg152
S'N'
sg108
S' '
sg153
F14.0067
sg486
I1
sg169
(lp635
I0
asS'y'
F0.96106585433135638
sS'x'
F0.03634384054496409
sS'z'
F0.2182036370071333
sg109
g1
(g110
g3
(lp636
I7
a(lp637
I6
aI6
aa(lp638
I7
aI6
aI7
aI1
aa(lp639
a(lp640
I6
aI7
aI7
aI8
aa(lp641
I6
aI1
aI1
aI1
aa(lp642
atRp643
sg105
I7
sg92
S'LIG:1:A:???'
p644
sg24
I6
sbag185
a(ielbow.chemistry.AtomClass
AtomClass
p645
(dp646
g9
Nsg11
(ielbow.chemistry.xyzClass
xyzClass
p647
(dp648
g14
I1
sg15
F57.295779513082323
sS'y'
F2.4924214619795366
sS'x'
F3.3327224170157361
sg16
(F3.3327224170157361
F2.4924214619795366
F0.63549718322171733
tp649
sS'z'
F0.63549718322171733
sbsg16
(ielbow.chemistry.xyzClass
xyzClass
p650
(dp651
g14
I1
sg15
F57.295779513082323
sS'y'
F-0.089301388232000622
sS'x'
F1.8199137012966549
sg16
(F1.8199137012966549
F-0.089301388232000622
F0.43150289617794524
tp652
sS'z'
F0.43150289617794524
sbsg97
I1
sg22
(lp653
sg24
I28
sg87
I01
sg88
F1
sg89
I0
sg90
I28
sg106
S'LIG:1:A:'
p654
sg92
S'LIG:1:A:???'
p655
sg94
g95
sg96
I28
sg98
S'   29'
p656
sg100
g286
sg102
S'H051'
p657
sg104
I1
sg105
I29
sg108
S' '
sS'x'
F1.8199137012966549
sS'z'
F0.43150289617794524
sg109
g1
(g110
g3
(lp658
I1
a(lp659
a(lp660
a(lp661
a(lp662
a(lp663
a(lp664
atRp665
sg7
F20
sg8
I140412377318392
sg21
S''
sg25
S'LIG'
p666
sg28
S'   29'
p667
sg31
I140412377318392
sg32
(lp668
g242
asg139
I29
sg140
Nsg154
I0
sg141
g478
sg143
(lp669
sg145
S'A'
sg146
g657
sg147
S'H'
sg148
S'A'
sg149
g650
sg150
I01
sg151
S''
sg152
S'H'
sg153
F1.0079
sS'y'
F-0.089301388232000622
sbasg139
I5
sg140
Nsg154
I2
sg87
I01
sg158
I01
sg89
I0
sg104
I1
sg90
I4
sg141
g240
sg18
(lp670
I7
asg88
F1
sg143
(lp671
sg145
S'A'
sg146
S' C05'
p672
sg96
I4
sg94
g95
sg147
S'C'
sg97
I6
sg148
S'A'
sg98
S'    5'
p673
sg106
S'LIG:1:A:'
p674
sg100
g310
sg149
g247
sg102
g672
sg150
I01
sg151
I01
sg164
I1
sg165
(lp675
g185
ag254
asg167
I1
sg152
S'C'
sg108
S' '
sg153
F12.010999999999999
sg92
S'LIG:1:A:???'
p676
sg169
(lp677
I0
asS'y'
F-0.26499963285964911
sS'x'
F0.75441059382242615
sS'z'
F0.51687001930306353
sg109
g1
(g110
g3
(ltRp678
sg105
I5
sg24
I4
sbag172
a(ielbow.chemistry.AtomClass
AtomClass
p679
(dp680
g9
Nsg11
(ielbow.chemistry.xyzClass
xyzClass
p681
(dp682
g14
I1
sg15
F57.295779513082323
sS'y'
F1.6919079077652734
sS'x'
F1.0215807172796274
sg16
(F1.0215807172796274
F1.6919079077652734
F2.1749015998820735
tp683
sS'z'
F2.1749015998820735
sbsg16
(ielbow.chemistry.xyzClass
xyzClass
p684
(dp685
g14
I1
sg15
F57.295779513082323
sS'y'
F-0.8624398216018343
sS'x'
F-0.47004151773783609
sg16
(F-0.47004151773783609
F-0.8624398216018343
F2.0107998640704423
tp686
sS'z'
F2.0107998640704423
sbsg97
I1
sg22
(lp687
sg24
I27
sg87
I01
sg88
F1
sg89
I0
sg90
I27
sg106
S'LIG:1:A:'
p688
sg92
S'LIG:1:A:???'
p689
sg94
g95
sg96
I27
sg98
S'   28'
p690
sg100
g286
sg102
S'H041'
p691
sg104
I1
sg105
I28
sg108
S' '
sS'x'
F-0.47004151773783609
sS'z'
F2.0107998640704423
sg109
g1
(g110
g3
(lp692
I1
a(lp693
a(lp694
a(lp695
a(lp696
a(lp697
a(lp698
atRp699
sg7
F20
sg8
I140412377317456
sg21
S''
sg25
S'LIG'
p700
sg28
S'   28'
p701
sg31
I140412377317456
sg32
(lp702
g185
asg139
I28
sg140
Nsg154
I0
sg141
g240
sg143
(lp703
sg145
S'A'
sg146
g691
sg147
S'H'
sg148
S'A'
sg149
g684
sg150
I01
sg151
S''
sg152
S'H'
sg153
F1.0079
sS'y'
F-0.8624398216018343
sbasg139
I4
sg140
Nsg154
I1
sg87
I01
sg158
I01
sg89
I0
sg104
I1
sg90
I3
sg141
g300
sg18
(lp704
I6
asg88
F1
sg143
(lp705
sg145
S'A'
sg146
S' C04'
p706
sg96
I3
sg94
g95
sg147
S'C'
sg97
I6
sg148
S'A'
sg98
S'    4'
p707
sg106
S'LIG:1:A:'
p708
sg100
g310
sg149
g190
sg102
g706
sg150
I01
sg151
I01
sg164
I0
sg165
(lp709
g172
ag242
asg167
I1
sg152
S'C'
sg108
S' '
sg153
F12.010999999999999
sg92
S'LIG:1:A:???'
p710
sg169
(lp711
I0
asS'y'
F-1.0632050146363645
sS'x'
F0.5164214698586207
sS'z'
F1.6104253060342253
sg109
g1
(g110
g3
(lp712
I6
a(lp713
I8
aI6
aI1
aa(lp714
I1
aI8
aI6
aI1
aa(lp715
I15
aI8
aI6
aI1
aa(lp716
I8
aI8
aI8
aI1
aI1
aa(lp717
I1
aa(lp718
atRp719
sg105
I4
sg24
I3
sbag264
a(ielbow.chemistry.AtomClass
AtomClass
p720
(dp721
g9
Nsg11
(ielbow.chemistry.xyzClass
xyzClass
p722
(dp723
g14
I1
sg15
F57.295779513082323
sS'y'
F-0.20300288619033038
sS'x'
F3.2007973509174157
sg16
(F3.2007973509174157
F-0.20300288619033038
F1.175320918047954
tp724
sS'z'
F1.175320918047954
sbsg16
(ielbow.chemistry.xyzClass
xyzClass
p725
(dp726
g14
I1
sg15
F57.295779513082323
sS'y'
F-2.7849994676252967
sS'x'
F1.6490063307895333
sg16
(F1.6490063307895333
F-2.7849994676252967
F0.93986443381571361
tp727
sS'z'
F0.93986443381571361
sbsg97
I1
sg22
(lp728
sg24
I26
sg87
I01
sg88
F1
sg89
I0
sg90
I26
sg106
S'LIG:1:A:'
p729
sg92
S'LIG:1:A:???'
p730
sg94
g95
sg96
I26
sg98
S'   27'
p731
sg100
g286
sg102
S'H031'
p732
sg104
I1
sg105
I27
sg108
S' '
sS'x'
F1.6490063307895333
sS'z'
F0.93986443381571361
sg109
g1
(g110
g3
(lp733
I1
a(lp734
a(lp735
a(lp736
a(lp737
a(lp738
a(lp739
atRp740
sg7
F20
sg8
I140412377319904
sg21
S''
sg25
S'LIG'
p741
sg28
S'   27'
p742
sg31
I140412377319904
sg32
(lp743
g172
asg139
I27
sg140
Nsg154
I-1
sg141
g300
sg143
(lp744
sg145
S'A'
sg146
g732
sg147
S'H'
sg148
S'A'
sg149
g725
sg150
I01
sg151
S''
sg152
S'H'
sg153
F1.0079
sS'y'
F-2.7849994676252967
sbasg139
I3
sg140
Nsg154
I1
sg87
I01
sg158
I01
sg89
I0
sg104
I1
sg90
I2
sg141
S'140412312781144_4'
p745
sg18
(lp746
I5
asg88
F1
sg143
(lp747
sg145
S'A'
sg146
S' C03'
p748
sg96
I2
sg94
g95
sg147
S'C'
sg97
I6
sg148
S'A'
sg98
S'    3'
p749
sg106
S'LIG:1:A:'
p750
sg100
g310
sg149
g177
sg102
g748
sg150
I01
sg151
I01
sg164
I0
sg165
(lp751
g264
ag185
ag264
ag53
asg167
I1
sg152
S'C'
sg108
S' '
sg153
F12.010999999999999
sg92
S'LIG:1:A:???'
p752
sg169
(lp753
I0
aI1
asS'y'
F-2.5613824674032739
sS'x'
F0.59624706506299874
sS'z'
F1.0756303269709282
sg109
g1
(g110
g3
(lp754
I6
a(lp755
I8
aI6
aI1
aa(lp756
I15
aI8
aI6
aI1
aa(lp757
I8
aI8
aI8
aI6
aI1
aI1
aa(lp758
I1
aI7
aI1
aa(lp759
a(lp760
I7
aI6
aI7
aI1
aatRp761
sg105
I3
sg24
I2
sbasg139
I19
sg140
Nsg154
I-1
sg87
I01
sg158
I01
sg89
I0
sg104
I1
sg90
I18
sg141
S'140412312781144_4'
p762
sg18
(lp763
I26
asg88
F1
sg143
(lp764
sg145
S'A'
sg146
S' O19'
p765
sg96
I18
sg94
g95
sg147
S'O'
sg97
I8
sg148
S'A'
sg98
S'   19'
p766
sg106
S'LIG:1:A:'
p767
sg100
g329
sg149
g58
sg102
g765
sg150
I01
sg151
S''
sg164
I1
sg165
(lp768
g172
ag65
asg167
I1
sg152
S'O'
sg108
S' '
sg153
F15.9994
sg92
S'LIG:1:A:???'
p769
sg169
(lp770
I1
asS'y'
F-3.6169955542145962
sS'x'
F0.0605379332284115
sS'z'
F1.9000729190549623
sg109
g1
(g110
g3
(lp771
I8
a(lp772
I6
aa(lp773
I6
aI6
aI1
aa(lp774
I8
aI6
aI1
aI8
aI6
aI1
aa(lp775
I8
aI1
aI1
aa(lp776
I6
aI6
aI7
aI1
aa(lp777
I1
aatRp778
sg105
I19
sbsg28
S'   21'
p779
sg31
I140412377182576
sg32
(lp780
g65
asg139
I21
sg140
Nsg154
I-1
sg87
I01
sg88
F1
sg89
I0
sg90
I20
sg141
S'140412312781144_3'
p781
sg18
(lp782
I28
asg92
S'LIG:1:A:???'
p783
sg143
(lp784
sg145
S'A'
sg146
S' O21'
p785
sg96
I20
sg94
g95
sg147
S'O'
sg97
I8
sg148
S'A'
sg98
S'   21'
p786
sg106
S'LIG:1:A:'
p787
sg100
S'O'
sg149
g48
sg102
g785
sg150
I01
sg151
S''
sg104
I1
sg105
I21
sg152
S'O'
sg108
S' '
sg153
F15.9994
sS'y'
F-4.7444023348535049
sS'x'
F-2.031504739738685
sS'z'
F2.7150905279254207
sg109
g1
(g110
g3
(lp788
I8
a(lp789
a(lp790
a(lp791
a(lp792
a(lp793
a(lp794
atRp795
sbsg24
I21
sg25
S'LIG'
p796
sg27
I00
sg28
S'   22'
p797
sg30
I1
sg31
I140412377157288
sg32
(lp798
g65
ag5
asg139
I22
sg140
Nsg154
I-1
sg87
I01
sg158
I01
sg89
I0
sg104
I1
sg90
I21
sg141
S'140412312781144_4'
p799
sg16
(ielbow.chemistry.xyzClass
xyzClass
p800
(dp801
g14
I1
sg15
F57.295779513082323
sS'y'
F-3.5194311103606402
sS'x'
F-2.1060231606058086
sg16
(F-2.1060231606058086
F-3.5194311103606402
F0.59289527490275362
tp802
sS'z'
F0.59289527490275362
sbsg88
F1
sg143
(lp803
sg145
S'A'
sg146
S' O22'
p804
sg306
S'-'
sg96
I21
sg94
g95
sg147
S'O'
sg307
I1
sg97
I8
sg148
S'A'
sg98
S'   22'
p805
sg106
S'LIG:1:A:'
p806
sg100
g329
sg149
g800
sg102
g804
sg150
I01
sg151
S''
sg164
I1
sg165
(lp807
g65
ag5
asg167
I1
sg152
S'O'
sg108
S' '
sg153
F15.9994
sg92
S'LIG:1:A:???'
p808
sg169
(lp809
I1
asS'y'
F-3.5194311103606402
sS'x'
F-2.1060231606058086
sS'z'
F0.59289527490275362
sg109
g1
(g110
g3
(lp810
I8
a(lp811
I6
aa(lp812
I6
aI1
aI1
aa(lp813
I8
aI6
aI1
aa(lp814
I6
aI8
aI6
aI1
aa(lp815
I7
aI1
aa(lp816
I1
aatRp817
sg105
I22
sbag264
a(ielbow.chemistry.AtomClass
AtomClass
p818
(dp819
g9
Nsg11
(ielbow.chemistry.xyzClass
xyzClass
p820
(dp821
g14
I1
sg15
F57.295779513082323
sS'y'
F-0.10146632177573728
sS'x'
F-0.34828214165595489
sg16
(F-0.34828214165595489
F-0.10146632177573728
F-1.0207656561766976
tp822
sS'z'
F-1.0207656561766976
sbsg16
(ielbow.chemistry.xyzClass
xyzClass
p823
(dp824
g14
I1
sg15
F57.295779513082323
sS'y'
F-2.5819437106441803
sS'x'
F-1.945792282961065
sg16
(F-1.945792282961065
F-2.5819437106441803
F-1.1737127168802817
tp825
sS'z'
F-1.1737127168802817
sbsg97
I1
sg22
(lp826
sg24
I23
sg87
I01
sg88
F1
sg89
I0
sg90
I23
sg106
S'LIG:1:A:'
p827
sg92
S'LIG:1:A:???'
p828
sg94
g95
sg96
I23
sg98
S'   24'
p829
sg100
S'HCH2'
p830
sg102
S'H011'
p831
sg104
I1
sg105
I24
sg108
S' '
sS'x'
F-1.945792282961065
sS'z'
F-1.1737127168802817
sg7
F20
sg8
I140412377258104
sg21
S''
sg25
S'LIG'
p832
sg28
S'   24'
p833
sg31
I140412377258104
sg32
(lp834
g5
asg139
I24
sg140
Nsg141
g799
sg143
(lp835
sg145
S'A'
sg146
g831
sg147
S'H'
sg148
S'A'
sg149
g823
sg150
I01
sg151
S''
sg152
S'H'
sg153
F1.0079
sS'y'
F-2.5819437106441803
sba(ielbow.chemistry.AtomClass
AtomClass
p836
(dp837
g9
Nsg11
(ielbow.chemistry.xyzClass
xyzClass
p838
(dp839
g14
I1
sg15
F57.295779513082323
sS'y'
F0.94366850193221474
sS'x'
F-0.34846438140667096
sg16
(F-0.34846438140667096
F0.94366850193221474
F0.40202079900531995
tp840
sS'z'
F0.40202079900531995
sbsg16
(ielbow.chemistry.xyzClass
xyzClass
p841
(dp842
g14
I1
sg15
F57.295779513082323
sS'y'
F-1.5522969935692337
sS'x'
F-1.8905900840591041
sg16
(F-1.8905900840591041
F-1.5522969935692337
F0.26227139491608603
tp843
sS'z'
F0.26227139491608603
sbsg97
I1
sg22
(lp844
sg24
I24
sg87
I01
sg88
F1
sg89
I0
sg90
I24
sg106
S'LIG:1:A:'
p845
sg92
S'LIG:1:A:???'
p846
sg94
g95
sg96
I24
sg98
S'   25'
p847
sg100
g830
sg102
S'H012'
p848
sg104
I1
sg105
I25
sg108
S' '
sS'x'
F-1.8905900840591041
sS'z'
F0.26227139491608603
sg7
F20
sg8
I140412377259256
sg21
S''
sg25
S'LIG'
p849
sg28
S'   25'
p850
sg31
I140412377259256
sg32
(lp851
g5
asg139
I25
sg140
Nsg141
g799
sg143
(lp852
sg145
S'A'
sg146
g848
sg147
S'H'
sg148
S'A'
sg149
g841
sg150
I01
sg151
S''
sg152
S'H'
sg153
F1.0079
sS'y'
F-1.5522969935692337
sbasg139
I1
sg140
Nsg154
I1
sg87
I01
sg158
I01
sg89
I0
sg104
I1
sg90
I0
sg141
g240
sg16
(ielbow.chemistry.xyzClass
xyzClass
p853
(dp854
g14
I1
sg15
F57.295779513082323
sS'y'
F-2.4998619521993
sS'x'
F-1.5718633210168578
sg16
(F-1.5718633210168578
F-2.4998619521993
F-0.15871509326815583
tp855
sS'z'
F-0.15871509326815583
sbsg88
F1
sg143
(lp856
sg145
S'A'
sg146
S' C01'
p857
sg306
S'-'
sg96
I0
sg94
g95
sg147
S'C'
sg307
I1
sg97
I6
sg148
S'A'
sg98
S'    1'
p858
sg106
S'LIG:1:A:'
p859
sg100
S'CH2'
p860
sg149
g853
sg102
g857
sg150
I01
sg151
S''
sg164
I0
sg165
(lp861
g34
ag264
asg167
I1
sg152
S'C'
sg108
S' '
sg153
F12.010999999999999
sg92
S'LIG:1:A:???'
p862
sg169
(lp863
I1
asS'y'
F-2.4998619521993
sS'x'
F-1.5718633210168578
sS'z'
F-0.15871509326815583
sg109
g1
(g110
g3
(lp864
I6
a(lp865
I8
aI1
aI1
aa(lp866
I15
aa(lp867
I8
aI8
aI8
aa(lp868
I6
aI1
aa(lp869
a(lp870
atRp871
sg105
I1
sbag264
ag172
ag185
ag242
ag254
ag341
ag448
ag436
ag426
ag352
ag362
ag374
ag386
ag398
ag408
ag546
ag197
ag53
ag65
ag43
ag34
ag78
ag818
ag836
ag274
ag720
ag679
ag645
ag460
ag519
ag564
ag582
ag222
ag122
atRp872
(dp873
S'ring_closure_atoms'
p874
(lp875
g5
ag264
ag254
ag341
ag426
ag352
ag398
ag34
asS'CIF_ligand_type'
p876
S'ligand'
p877
sS'original_ring_class'
p878
(lp879
g1
(celbow.chemistry.RingClass
RingClass
p880
g3
(lp881
(lp882
(ielbow.chemistry.RingClass
empty
p883
(dp884
g11
(ielbow.chemistry.xyzClass
xyzClass
p885
(dp886
g14
I0
sg15
F57.295779513082323
sS'y'
F-1.1011055363769386
sS'x'
F0.80000000000000004
sg16
(F0.80000000000000004
F-1.1011055363769386
F0
tp887
sS'z'
F0
sbsg139
I2
sg147
S'C'
sg16
(ielbow.chemistry.xyzClass
xyzClass
p888
(dp889
g14
I1
sg15
F57.295779513082323
sS'y'
F1.6653345369377348e-16
sS'x'
F1.6000000000000001
sg16
(F0
F0
I0
tp890
sS'z'
I0
sbsba(ielbow.chemistry.RingClass
empty
p891
(dp892
g11
(ielbow.chemistry.xyzClass
xyzClass
p893
(dp894
g14
I0
sg15
F57.295779513082323
sS'y'
F0.42058488969530705
sS'x'
F1.2944271909999159
sg16
(F1.2944271909999159
F0.42058488969530705
F0
tp895
sS'z'
F0
sbsg139
I3
sg147
S'C'
sg16
(ielbow.chemistry.xyzClass
xyzClass
p896
(dp897
g14
I1
sg15
F57.295779513082323
sS'y'
F1.5216904260722459
sS'x'
F2.0944271909999159
sg16
(F1.6000000000000001
F0
I0
tp898
sS'z'
I0
sbsba(ielbow.chemistry.RingClass
empty
p899
(dp900
g11
(ielbow.chemistry.xyzClass
xyzClass
p901
(dp902
g14
I0
sg15
F57.295779513082323
sS'y'
F1.3610412933632641
sS'x'
F-2.2204460492503131e-16
sg16
(F-2.2204460492503131e-16
F1.3610412933632641
F0
tp903
sS'z'
F0
sbsg139
I4
sg147
S'C'
sg16
(ielbow.chemistry.xyzClass
xyzClass
p904
(dp905
g14
I1
sg15
F57.295779513082323
sS'y'
F2.4621468297402029
sS'x'
F0.79999999999999982
sg16
(F1.6000000000000001
F0
I0
tp906
sS'z'
I0
sbsba(ielbow.chemistry.RingClass
empty
p907
(dp908
g11
(ielbow.chemistry.xyzClass
xyzClass
p909
(dp910
g14
I0
sg15
F57.295779513082323
sS'y'
F0.42058488969530683
sS'x'
F-1.2944271909999161
sg16
(F-1.2944271909999161
F0.42058488969530683
F0
tp911
sS'z'
F0
sbsg139
I5
sg147
S'C'
sg16
(ielbow.chemistry.xyzClass
xyzClass
p912
(dp913
g14
I1
sg15
F57.295779513082323
sS'y'
F1.5216904260722457
sS'x'
F-0.49442719099991594
sg16
(F1.6000000000000001
F0
I0
tp914
sS'z'
I0
sbsba(ielbow.chemistry.RingClass
empty
p915
(dp916
g11
(ielbow.chemistry.xyzClass
xyzClass
p917
(dp918
g14
I0
sg15
F57.295779513082323
sS'y'
F-1.1011055363769389
sS'x'
F-0.80000000000000004
sg16
(F-0.80000000000000004
F-1.1011055363769389
F0
tp919
sS'z'
F0
sbsg139
I6
sg147
S'O'
sg16
(ielbow.chemistry.xyzClass
xyzClass
p920
(dp921
g14
I1
sg15
F57.295779513082323
sS'y'
F0
sS'x'
F0
sg16
(F1.6000000000000001
F0
I0
tp922
sS'z'
I0
sbsbaa(lp923
(ielbow.chemistry.RingClass
empty
p924
(dp925
g11
(ielbow.chemistry.xyzClass
xyzClass
p926
(dp927
g14
I0
sg15
F57.295779513082323
sS'y'
F-1.3856406460551023
sS'x'
F0.80000000000000082
sg16
(F0.80000000000000082
F-1.3856406460551023
F0
tp928
sS'z'
F0
sbsg139
I1
sg147
S'C'
sg16
(ielbow.chemistry.xyzClass
xyzClass
p929
(dp930
g14
I1
sg15
F57.295779513082323
sS'y'
F0
sS'x'
F1.600000000000001
sg16
(F0
F0
I1
tp931
sS'z'
I1
sbsba(ielbow.chemistry.RingClass
empty
p932
(dp933
g11
(ielbow.chemistry.xyzClass
xyzClass
p934
(dp935
g14
I0
sg15
F57.295779513082323
sS'y'
F4.4408920985006262e-16
sS'x'
F1.6000000000000005
sg16
(F1.6000000000000005
F4.4408920985006262e-16
F0
tp936
sS'z'
F0
sbsg139
I2
sg147
S'C'
sg16
(ielbow.chemistry.xyzClass
xyzClass
p937
(dp938
g14
I1
sg15
F57.295779513082323
sS'y'
F1.3856406460551027
sS'x'
F2.4000000000000008
sg16
(F1.6000000000000001
F0
I1
tp939
sS'z'
I1
sbsba(ielbow.chemistry.RingClass
empty
p940
(dp941
g11
(ielbow.chemistry.xyzClass
xyzClass
p942
(dp943
g14
I0
sg15
F57.295779513082323
sS'y'
F1.3856406460551023
sS'x'
F0.79999999999999971
sg16
(F0.79999999999999971
F1.3856406460551023
F0
tp944
sS'z'
F0
sbsg139
I3
sg147
S'C'
sg16
(ielbow.chemistry.xyzClass
xyzClass
p945
(dp946
g14
I1
sg15
F57.295779513082323
sS'y'
F2.7712812921102046
sS'x'
F1.5999999999999999
sg16
(F1.6000000000000001
F0
I1
tp947
sS'z'
I1
sbsba(ielbow.chemistry.RingClass
empty
p948
(dp949
g11
(ielbow.chemistry.xyzClass
xyzClass
p950
(dp951
g14
I0
sg15
F57.295779513082323
sS'y'
F1.3856406460551018
sS'x'
F-0.8000000000000006
sg16
(F-0.8000000000000006
F1.3856406460551018
F0
tp952
sS'z'
F0
sbsg139
I19
sg147
S'O'
sg16
(ielbow.chemistry.xyzClass
xyzClass
p953
(dp954
g14
I1
sg15
F57.295779513082323
sS'y'
F2.7712812921102041
sS'x'
F-4.4408920985006262e-16
sg16
(F1.6000000000000001
F0
I1
tp955
sS'z'
I1
sbsba(ielbow.chemistry.RingClass
empty
p956
(dp957
g11
(ielbow.chemistry.xyzClass
xyzClass
p958
(dp959
g14
I0
sg15
F57.295779513082323
sS'y'
F-4.4408920985006262e-16
sS'x'
F-1.6000000000000005
sg16
(F-1.6000000000000005
F-4.4408920985006262e-16
F0
tp960
sS'z'
F0
sbsg139
I20
sg147
S'P'
sg16
(ielbow.chemistry.xyzClass
xyzClass
p961
(dp962
g14
I1
sg15
F57.295779513082323
sS'y'
F1.3856406460551018
sS'x'
F-0.80000000000000027
sg16
(F1.6000000000000001
F0
I1
tp963
sS'z'
I1
sbsba(ielbow.chemistry.RingClass
empty
p964
(dp965
g11
(ielbow.chemistry.xyzClass
xyzClass
p966
(dp967
g14
I0
sg15
F57.295779513082323
sS'y'
F-1.3856406460551023
sS'x'
F-0.80000000000000016
sg16
(F-0.80000000000000016
F-1.3856406460551023
F0
tp968
sS'z'
F0
sbsg139
I22
sg147
S'O'
sg16
(ielbow.chemistry.xyzClass
xyzClass
p969
(dp970
g14
I1
sg15
F57.295779513082323
sS'y'
F0
sS'x'
F0
sg16
(F1.6000000000000001
F0
I1
tp971
sS'z'
I1
sbsbaatRp972
(dp973
S'use_cctbx'
p974
I01
sS'RestraintWeights'
p975
(dp976
S'LoopClass'
p977
(dp978
S'angle'
p979
F0.25
sS'bond'
p980
I50
ssS'GetCCTBXRestraints'
p981
(dp982
g979
F1
sg980
F100
ssS'ZMatrixClass'
p983
(dp984
g979
I10
sg980
F100
ssS'AdjustRestraintClass'
p985
(dp986
S'ring_planar'
p987
F0.10000000000000001
sS'aromatic_bond'
p988
F100
sg979
F1.5
sg151
F50
sS'loose_angle'
p989
F0.25
sS'non_ring_planar'
p990
F0.20000000000000001
ssS'RingClass'
p991
(dp992
S'flatness'
p993
F10
sg979
F2
sS'chair_boat'
p994
F1
sS'non_aromatic'
p995
F10
sg980
F200
ssS'ChiralClass'
p996
(dp997
g980
F100
sssS'allow_boat_conformation'
p998
I00
sS'ignore_list'
p999
(lp1000
sS'rejected'
p1001
(lp1002
sS'ignore'
p1003
(lp1004
sS'edges'
p1005
(dp1006
sS'coordinates'
p1007
(lp1008
F0
aF0
aF0
aF0
aF0
aF0
aF0
aF0
aF0
aF0
aF0
aF0
asS'UseRestraintWeights'
p1009
I01
sS'UseRestraintValues'
p1010
I01
sS'min_iter_rings'
p1011
I7
sS'RestraintValues'
p1012
(dp1013
g991
(dp1014
g979
(dp1015
I3
F60
sI4
F90
sI5
F106
sI6
F113
ssS'dihedral'
p1016
(dp1017
I5
(lp1018
F25
aI10
asI6
(lp1019
F55
aI1
assssbag1
(g880
g3
(lp1020
(lp1021
(ielbow.chemistry.RingClass
empty
p1022
(dp1023
g11
(ielbow.chemistry.xyzClass
xyzClass
p1024
(dp1025
g14
I0
sg15
F57.295779513082323
sS'y'
F-1.1011055363769386
sS'x'
F0.80000000000000004
sg16
(F0.80000000000000004
F-1.1011055363769386
F0
tp1026
sS'z'
F0
sbsg139
I7
sg147
S'N'
sg16
(ielbow.chemistry.xyzClass
xyzClass
p1027
(dp1028
g14
I1
sg15
F57.295779513082323
sS'y'
F1.6653345369377348e-16
sS'x'
F1.6000000000000001
sg16
(F0
F0
I0
tp1029
sS'z'
I0
sbsba(ielbow.chemistry.RingClass
empty
p1030
(dp1031
g11
(ielbow.chemistry.xyzClass
xyzClass
p1032
(dp1033
g14
I0
sg15
F57.295779513082323
sS'y'
F0.42058488969530705
sS'x'
F1.2944271909999159
sg16
(F1.2944271909999159
F0.42058488969530705
F0
tp1034
sS'z'
F0
sbsg139
I8
sg147
S'C'
sg16
(ielbow.chemistry.xyzClass
xyzClass
p1035
(dp1036
g14
I1
sg15
F57.295779513082323
sS'y'
F1.5216904260722459
sS'x'
F2.0944271909999159
sg16
(F1.6000000000000001
F0
I0
tp1037
sS'z'
I0
sbsba(ielbow.chemistry.RingClass
empty
p1038
(dp1039
g11
(ielbow.chemistry.xyzClass
xyzClass
p1040
(dp1041
g14
I0
sg15
F57.295779513082323
sS'y'
F1.3610412933632641
sS'x'
F-2.2204460492503131e-16
sg16
(F-2.2204460492503131e-16
F1.3610412933632641
F0
tp1042
sS'z'
F0
sbsg139
I9
sg147
S'N'
sg16
(ielbow.chemistry.xyzClass
xyzClass
p1043
(dp1044
g14
I1
sg15
F57.295779513082323
sS'y'
F2.4621468297402029
sS'x'
F0.79999999999999982
sg16
(F1.6000000000000001
F0
I0
tp1045
sS'z'
I0
sbsba(ielbow.chemistry.RingClass
empty
p1046
(dp1047
g11
(ielbow.chemistry.xyzClass
xyzClass
p1048
(dp1049
g14
I0
sg15
F57.295779513082323
sS'y'
F0.42058488969530683
sS'x'
F-1.2944271909999161
sg16
(F-1.2944271909999161
F0.42058488969530683
F0
tp1050
sS'z'
F0
sbsg139
I10
sg147
S'C'
sg16
(ielbow.chemistry.xyzClass
xyzClass
p1051
(dp1052
g14
I1
sg15
F57.295779513082323
sS'y'
F1.5216904260722457
sS'x'
F-0.49442719099991594
sg16
(F1.6000000000000001
F0
I0
tp1053
sS'z'
I0
sbsba(ielbow.chemistry.RingClass
empty
p1054
(dp1055
g11
(ielbow.chemistry.xyzClass
xyzClass
p1056
(dp1057
g14
I0
sg15
F57.295779513082323
sS'y'
F-1.1011055363769389
sS'x'
F-0.80000000000000004
sg16
(F-0.80000000000000004
F-1.1011055363769389
F0
tp1058
sS'z'
F0
sbsg139
I11
sg147
S'C'
sg16
(ielbow.chemistry.xyzClass
xyzClass
p1059
(dp1060
g14
I1
sg15
F57.295779513082323
sS'y'
F0
sS'x'
F0
sg16
(F1.6000000000000001
F0
I0
tp1061
sS'z'
I0
sbsbaa(lp1062
(ielbow.chemistry.RingClass
empty
p1063
(dp1064
g11
(ielbow.chemistry.xyzClass
xyzClass
p1065
(dp1066
g14
I0
sg15
F57.295779513082323
sS'y'
F-1.3856406460551023
sS'x'
F0.80000000000000082
sg16
(F0.80000000000000082
F-1.3856406460551023
F0
tp1067
sS'z'
F0
sbsg139
I10
sg147
S'C'
sg16
(ielbow.chemistry.xyzClass
xyzClass
p1068
(dp1069
g14
I1
sg15
F57.295779513082323
sS'y'
F0
sS'x'
F1.600000000000001
sg16
(F0
F0
I1
tp1070
sS'z'
I1
sbsba(ielbow.chemistry.RingClass
empty
p1071
(dp1072
g11
(ielbow.chemistry.xyzClass
xyzClass
p1073
(dp1074
g14
I0
sg15
F57.295779513082323
sS'y'
F4.4408920985006262e-16
sS'x'
F1.6000000000000005
sg16
(F1.6000000000000005
F4.4408920985006262e-16
F0
tp1075
sS'z'
F0
sbsg139
I11
sg147
S'C'
sg16
(ielbow.chemistry.xyzClass
xyzClass
p1076
(dp1077
g14
I1
sg15
F57.295779513082323
sS'y'
F1.3856406460551027
sS'x'
F2.4000000000000008
sg16
(F1.6000000000000001
F0
I1
tp1078
sS'z'
I1
sbsba(ielbow.chemistry.RingClass
empty
p1079
(dp1080
g11
(ielbow.chemistry.xyzClass
xyzClass
p1081
(dp1082
g14
I0
sg15
F57.295779513082323
sS'y'
F1.3856406460551023
sS'x'
F0.79999999999999971
sg16
(F0.79999999999999971
F1.3856406460551023
F0
tp1083
sS'z'
F0
sbsg139
I12
sg147
S'N'
sg16
(ielbow.chemistry.xyzClass
xyzClass
p1084
(dp1085
g14
I1
sg15
F57.295779513082323
sS'y'
F2.7712812921102046
sS'x'
F1.5999999999999999
sg16
(F1.6000000000000001
F0
I1
tp1086
sS'z'
I1
sbsba(ielbow.chemistry.RingClass
empty
p1087
(dp1088
g11
(ielbow.chemistry.xyzClass
xyzClass
p1089
(dp1090
g14
I0
sg15
F57.295779513082323
sS'y'
F1.3856406460551018
sS'x'
F-0.8000000000000006
sg16
(F-0.8000000000000006
F1.3856406460551018
F0
tp1091
sS'z'
F0
sbsg139
I13
sg147
S'C'
sg16
(ielbow.chemistry.xyzClass
xyzClass
p1092
(dp1093
g14
I1
sg15
F57.295779513082323
sS'y'
F2.7712812921102041
sS'x'
F-4.4408920985006262e-16
sg16
(F1.6000000000000001
F0
I1
tp1094
sS'z'
I1
sbsba(ielbow.chemistry.RingClass
empty
p1095
(dp1096
g11
(ielbow.chemistry.xyzClass
xyzClass
p1097
(dp1098
g14
I0
sg15
F57.295779513082323
sS'y'
F-4.4408920985006262e-16
sS'x'
F-1.6000000000000005
sg16
(F-1.6000000000000005
F-4.4408920985006262e-16
F0
tp1099
sS'z'
F0
sbsg139
I14
sg147
S'N'
sg16
(ielbow.chemistry.xyzClass
xyzClass
p1100
(dp1101
g14
I1
sg15
F57.295779513082323
sS'y'
F1.3856406460551018
sS'x'
F-0.80000000000000027
sg16
(F1.6000000000000001
F0
I1
tp1102
sS'z'
I1
sbsba(ielbow.chemistry.RingClass
empty
p1103
(dp1104
g11
(ielbow.chemistry.xyzClass
xyzClass
p1105
(dp1106
g14
I0
sg15
F57.295779513082323
sS'y'
F-1.3856406460551023
sS'x'
F-0.80000000000000016
sg16
(F-0.80000000000000016
F-1.3856406460551023
F0
tp1107
sS'z'
F0
sbsg139
I15
sg147
S'C'
sg16
(ielbow.chemistry.xyzClass
xyzClass
p1108
(dp1109
g14
I1
sg15
F57.295779513082323
sS'y'
F0
sS'x'
F0
sg16
(F1.6000000000000001
F0
I1
tp1110
sS'z'
I1
sbsbaatRp1111
(dp1112
g974
I01
sg975
(dp1113
g977
(dp1114
g979
F0.25
sg980
I50
ssg981
(dp1115
g979
F1
sg980
F100
ssg983
(dp1116
g979
I10
sg980
F100
ssg985
(dp1117
g987
F0.10000000000000001
sg988
F100
sg979
F1.5
sg151
F50
sg989
F0.25
sg990
F0.20000000000000001
ssg991
(dp1118
g993
F10
sg979
F2
sg994
F1
sg995
F10
sg980
F200
ssg996
(dp1119
g980
F100
sssg998
I00
sg999
(lp1120
sg1001
(lp1121
sg1003
(lp1122
sg1005
(dp1123
sg1007
(lp1124
F0
aF0
aF0
aF0
aF0
aF0
aF0
aF0
aF0
aF0
aF0
aF0
asg1009
I01
sg1010
I01
sg1011
I7
sg1012
(dp1125
g991
(dp1126
g979
(dp1127
I3
F60
sI4
F90
sI5
F106
sI6
F113
ssg1016
(dp1128
I5
(lp1129
F25
aI10
asI6
(lp1130
F55
aI1
assssbasS'energy'
p1131
F331.45477606839245
sS'chiral_restraint'
p1132
(dp1133
sS'ring_atom_lists'
p1134
(lp1135
(lp1136
S'1'
aS'2'
aS'3'
aS'19'
p1137
aS'20'
p1138
aS'22'
p1139
aa(lp1140
S'2'
aS'3'
aS'4'
aS'5'
aS'6'
aa(lp1141
S'7'
aS'8'
aS'9'
aS'10'
p1142
aS'11'
p1143
aa(lp1144
S'10'
p1145
aS'11'
p1146
aS'12'
p1147
aS'13'
p1148
aS'14'
p1149
aS'15'
p1150
aasS'OutputHeaderData'
p1151
(dp1152
S'smiles'
p1153
S'C1C2C(C(C(O2)N3C=NC4=C3N=C(NC4=O)N)O)OP(=O)(O1)O'
p1154
sS'qm_method'
p1155
S'uhf'
p1156
sS'random_seed'
p1157
S'3628800'
p1158
sS'qm_basis'
p1159
S'am1'
p1160
ssS'OriginalFormat'
p1161
g1
(celbow.formats.FormatClass
FormatClass
p1162
c__builtin__
dict
p1163
(dp1164
S'atom_names'
p1165
I00
sg1153
I01
sS'bond_orders'
p1166
I01
sS'bond_connections'
p1167
I01
sS'xyz_coordinates'
p1168
I00
stRp1169
(dp1170
S'format'
p1171
S'SMILES'
p1172
sbsS'WriteCIF2String_defaults'
p1173
(lp1174
I00
aI01
aS'LIG'
p1175
aS''
ag1154
aI01
aI00
aS'retain'
p1176
aI00
aI01
aI01
a(I4
I3
I2
tp1177
aI00
aI00
aNaI01
a(lp1178
a(lp1179
a(lp1180
a(lp1181
aI00
aI00
asS'chiral_class'
p1182
(dp1183
sS'ring_angles'
p1184
(lp1185
g1
(celbow.chemistry.AngleClass
AngleClass
p1186
g3
(lp1187
g172
ag264
ag5
atRp1188
(dp1189
S'symbols'
p1190
(lp1191
S'-'
aS'-'
asS'restrain'
p1192
I00
sS'equil'
p1193
F115
sbag1
(g1186
g3
(lp1194
g53
ag172
ag264
atRp1195
(dp1196
g1190
(lp1197
S'-'
aS'-'
asg1192
I00
sg1193
F115
sbag1
(g1186
g3
(lp1198
g65
ag53
ag172
atRp1199
(dp1200
g1190
(lp1201
S'-'
aS'-'
asg1192
I00
sg1193
F115
sbag1
(g1186
g3
(lp1202
g34
ag65
ag53
atRp1203
(dp1204
g1190
(lp1205
S'-'
aS'-'
asg1192
I00
sg1193
F115
sbag1
(g1186
g3
(lp1206
g5
ag34
ag65
atRp1207
(dp1208
g1190
(lp1209
S'-'
aS'-'
asg1192
I00
sg1193
F115
sbag1
(g1186
g3
(lp1210
g264
ag5
ag34
atRp1211
(dp1212
g1190
(lp1213
S'-'
aS'-'
asg1192
I00
sg1193
F115
sbag1
(g1186
g3
(lp1214
g185
ag172
ag264
atRp1215
(dp1216
g1190
(lp1217
S'-'
aS'-'
asg1192
I00
sg1193
F103
sbag1
(g1186
g3
(lp1218
g242
ag185
ag172
atRp1219
(dp1220
g1190
(lp1221
S'-'
aS'-'
asg1192
I00
sg1193
F103
sbag1
(g1186
g3
(lp1222
g254
ag242
ag185
atRp1223
(dp1224
g1190
(lp1225
S'-'
aS'-'
asg1192
I00
sg1193
F103
sbag1
(g1186
g3
(lp1226
g264
ag254
ag242
atRp1227
(dp1228
g1190
(lp1229
S'-'
aS'-'
asg1192
I00
sg1193
F103
sbag1
(g1186
g3
(lp1230
g172
ag264
ag254
atRp1231
(dp1232
g1190
(lp1233
S'-'
aS'-'
asg1192
I00
sg1193
F103
sbag1
(g1186
g3
(lp1234
g436
ag448
ag341
atRp1235
(dp1236
g1190
(lp1237
S'='
aS'-'
asg1192
I00
sg1193
F103
sbag1
(g1186
g3
(lp1238
g426
ag436
ag448
atRp1239
(dp1240
g1190
(lp1241
S'-'
aS'='
asg1192
I00
sg1193
F103
sbag1
(g1186
g3
(lp1242
g352
ag426
ag436
atRp1243
(dp1244
g1190
(lp1245
S'='
aS'-'
asg1192
I00
sg1193
F103
sbag1
(g1186
g3
(lp1246
g341
ag352
ag426
atRp1247
(dp1248
g1190
(lp1249
S'-'
aS'='
asg1192
I00
sg1193
F103
sbag1
(g1186
g3
(lp1250
g448
ag341
ag352
atRp1251
(dp1252
g1190
(lp1253
S'-'
aS'-'
asg1192
I00
sg1193
F103
sbag1
(g1186
g3
(lp1254
g362
ag352
ag426
atRp1255
(dp1256
g1190
(lp1257
S'-'
aS'='
asg1192
I00
sg1193
F115
sbag1
(g1186
g3
(lp1258
g374
ag362
ag352
atRp1259
(dp1260
g1190
(lp1261
S'='
aS'-'
asg1192
I00
sg1193
F115
sbag1
(g1186
g3
(lp1262
g386
ag374
ag362
atRp1263
(dp1264
g1190
(lp1265
S'-'
aS'='
asg1192
I00
sg1193
F115
sbag1
(g1186
g3
(lp1266
g398
ag386
ag374
atRp1267
(dp1268
g1190
(lp1269
S'-'
aS'-'
asg1192
I00
sg1193
F115
sbag1
(g1186
g3
(lp1270
g426
ag398
ag386
atRp1271
(dp1272
g1190
(lp1273
S'-'
aS'-'
asg1192
I00
sg1193
F115
sbag1
(g1186
g3
(lp1274
g352
ag426
ag398
atRp1275
(dp1276
g1190
(lp1277
S'='
aS'-'
asg1192
I00
sg1193
F115
sbasS'invisible_plane'
p1278
g1
(celbow.chemistry.PeptideClass
PeptideClass
p1279
g3
(lp1280
g1
(celbow.chemistry.DihedralClass
DihedralClass
p1281
g3
(lp1282
g386
ag398
ag426
ag436
atRp1283
(dp1284
g1190
(lp1285
S'-'
aS'-'
aS'-'
asg1192
I01
sg1193
F180
sbatRp1286
(dp1287
S'restraint_class'
p1288
g1
(celbow.cctbx_api.RestraintClass
RestraintClass
p1289
g1163
(dtRp1290
(dp1291
S'type'
p1292
NsS'link'
p1293
(dp1294
sS'overwrite'
p1295
I00
sS'hydrogens'
p1296
(lp1297
sS'restraint_type'
p1298
(dp1299
sbsS'dihedral_const_var_type'
p1300
(lp1301
I0
aI0
asbsS'rotation_step'
p1302
I10
sg975
(dp1303
g977
(dp1304
g979
F0.25
sg980
I50
ssg981
(dp1305
g979
F1
sg980
F100
ssg983
(dp1306
g979
I10
sg980
F100
ssg985
(dp1307
g987
F0.10000000000000001
sg988
F100
sg979
F1.5
sg151
F50
sg989
F0.25
sg990
F0.20000000000000001
ssg991
(dp1308
g993
F10
sg979
F2
sg995
F10
sg994
F1
sg980
F200
ssg996
(dp1309
g980
F100
sssS'mixed_messages'
p1310
I01
sS'EnergyTerms'
p1311
NsS'CIF_three_letter_code'
p1312
S'LIG'
p1313
sS'RotationSubUnits'
p1314
(dp1315
(I7
I5
tp1316
(lp1317
(ielbow.utilities.sets
Set
p1318
(dp1319
S'dict'
p1320
(dp1321
g582
I1
sg546
I1
sg519
I1
sg352
I1
sg408
I1
sg460
I1
sg426
I1
sg386
I1
sg374
I1
sg436
I1
sg564
I1
sg362
I1
sg448
I1
sg398
I1
ssba(ielbow.utilities.sets
Set
p1322
(dp1323
g1320
(dp1324
g197
I1
sg65
I1
sg645
I1
sg274
I1
sg53
I1
sg679
I1
sg264
I1
sg222
I1
sg34
I1
sg5
I1
sg254
I1
sg720
I1
sg172
I1
sg836
I1
sg43
I1
sg185
I1
sg818
I1
sg78
I1
sg122
I1
ssbassg87
I01
sS'ring_restraint'
p1325
g1
(celbow.chemistry.RingTopologyMixins
empty_dict
p1326
g1163
(dp1327
I1
g1
(g1289
g1163
(dp1328
I1
(F-5.6217573715223876
F0.89993421931084938
F-10.432641479283859
tp1329
sI2
(F-4.0910937410848689
F0.47839010922846664
F-10.250881596106879
tp1330
sI3
(F-3.5414947732853332
F0.92848489714294313
F-9.0497192422832988
tp1331
sI4
(F-3.2153761470223836
F2.4734924289100531
F-9.2822037614426822
tp1332
sI5
(F-2.7750173975842474
F2.5695203571626188
F-10.585017903501365
tp1333
sI6
(F-3.4736896923996516
F1.3771392421928743
F-11.353070447101778
tp1334
s(I5
I4
tp1335
(lp1336
F1.527126
aF200
as(I4
I3
I2
tp1337
(lp1338
F106
aF10
as(I22
I20
I19
I3
tp1339
(lp1340
F55
aF1
aI1
a(F-55
tp1341
as(I19
I3
I2
I1
tp1342
(lp1343
F55
aF1
aI1
ag1341
asI19
(F-4.3368146265768068
F0.55303946920026603
F-7.9029772226669195
tp1344
sI20
(F-5.8677874588864967
F1.0375039926392353
F-8.0239572998030155
tp1345
sI22
(F-6.4064276683901165
F0.51969780964887258
F-9.3661311928219426
tp1346
s(I3
I2
I6
I5
tp1347
(lp1348
F25
aF1
aI10
ag1341
as(I1
I22
tp1349
(lp1350
F1.398717
aF200
as(I22
I20
tp1351
(lp1352
F1.6482159999999999
aF200
as(I20
I19
I3
I2
tp1353
(lp1354
F55
aF1
aI1
ag1341
as(I4
I19
tp1355
(lp1356
F4
aF10
aF1
as(I2
I1
I22
tp1357
(lp1358
F113
aF10
as(I6
I5
I4
I3
tp1359
(lp1360
F25
aF1
aI10
ag1341
as(I2
I6
I5
tp1361
(lp1362
F106
aF10
as(I19
I3
tp1363
(lp1364
F1.398717
aF200
as(I2
I6
I5
I4
tp1365
(lp1366
F25
aF1
aI10
ag1341
as(I6
I5
I4
tp1367
(lp1368
F106
aF10
as(I5
I4
I3
tp1369
(lp1370
F106
aF10
as(I1
I22
I20
tp1371
(lp1372
F113
aF10
as(I20
I19
I3
tp1373
(lp1374
F113
aF10
as(I3
I2
tp1375
(lp1376
F1.527126
aF200
as(I2
I6
tp1377
(lp1378
F1.398717
aF200
as(I3
I2
I1
tp1379
(lp1380
F113
aF10
as(I3
I2
I6
tp1381
(lp1382
F106
aF10
as(I2
I1
tp1383
(lp1384
F1.527126
aF200
as(I20
I19
tp1385
(lp1386
F1.6482159999999999
aF200
as(I19
I3
I2
tp1387
(lp1388
F113
aF10
as(I5
I4
I3
I2
tp1389
(lp1390
F25
aF1
aI10
ag1341
as(I4
I3
I2
I6
tp1391
(lp1392
F25
aF1
aI10
ag1341
as(I6
I5
tp1393
(lp1394
F1.398717
aF200
as(I22
I20
I19
tp1395
(F111
F5
tp1396
s(I6
I1
tp1397
(lp1398
F4
aF10
aF1
as(I2
I1
I22
I20
tp1399
(lp1400
F55
aF1
aI1
ag1341
as(I4
I3
tp1401
(lp1402
F1.527126
aF200
as(I3
I2
I1
I22
tp1403
(lp1404
F55
aF1
aI1
ag1341
as(I1
I22
I20
I19
tp1405
(lp1406
F55
aF1
aI1
ag1341
astRp1407
(dp1408
g1292
Nsg1293
(dp1409
I1
I0
sI2
I1
sI3
I2
sI4
I3
sI5
I4
sI6
I5
sI19
I6
sI20
I7
sI22
I8
ssg1295
I00
sg1296
(lp1410
sg1298
(dp1411
sbsI2
g1
(g1289
g1163
(dp1412
(I12
I11
tp1413
(lp1414
F1.451533
aF200
asI7
(F-3.1404975288987709
F3.6668696516331298
F-11.493659063924264
tp1415
s(I7
I12
tp1416
(lp1417
F4
aF10
aF1
asI9
(F-3.7360667620281882
F5.6529316668669205
F-12.235708280149423
tp1418
s(I9
I8
tp1419
(lp1420
F1.321345
aF200
asI11
(F-2.9133355722471519
F3.7008979475984694
F-12.823607102967067
tp1421
sI12
(F-2.2863982590865013
F2.7139177589581798
F-13.754196948098119
tp1422
sI13
(F-2.1539919693388137
F3.0304614238139687
F-15.1777665064103
tp1423
sI14
(F-2.5478930702478708
F4.3258588427389979
F-15.666965251512019
tp1424
sI15
(F-3.1051293063814116
F5.2886591209284752
F-14.768865873068716
tp1425
s(I14
I13
I12
tp1426
(lp1427
F120
aF10
as(I13
I12
I11
tp1428
(lp1429
F120
aF10
as(I7
I11
tp1430
(lp1431
F1.321345
aF200
as(I11
I10
I9
tp1432
(lp1433
F106.96705108271429
aF2
as(I11
I10
tp1434
(lp1435
F1.385372
aF200
as(I9
I15
tp1436
(lp1437
F4
aF10
aF1
as(I9
I8
I7
tp1438
(lp1439
F109.83224583173867
aF2
as(I7
I11
I10
I9
tp1440
(lp1441
F0
aF10
aI0
asI8
(F-3.6493331891235812
F4.8706566350957878
F-11.122962166705948
tp1442
s(I10
I9
I8
tp1443
(lp1444
F108.10783601982214
aF2
asI10
(F-3.2845072565602398
F4.9378464360980336
F-13.28424762354385
tp1445
s(I10
I9
tp1446
(lp1447
F1.321345
aF200
as(I10
I9
I8
I7
tp1448
(lp1449
F0
aF10
aI0
as(I11
I10
I15
tp1450
(lp1451
F120
aF10
as(I8
I7
I11
I10
tp1452
(lp1453
F0
aF10
aI0
as(I13
I12
tp1454
(lp1455
F1.451533
aF200
as(I11
I10
I9
I8
tp1456
(lp1457
F0
aF10
aI0
as(I14
I13
tp1458
(lp1459
F1.451533
aF200
as(I8
I7
tp1460
(lp1461
F1.321345
aF200
as(I15
I14
tp1462
(lp1463
F1.451533
aF200
as(I9
I8
I7
I11
tp1464
(lp1465
F0
aF10
aI0
as(I10
I15
tp1466
(lp1467
F1.527126
aF200
as(I12
I11
I10
tp1468
(lp1469
F120
aF10
as(I8
I7
I11
tp1470
(lp1471
F108.06897807723924
aF2
as(I15
I14
I13
tp1472
(lp1473
F113
aF10
as(I7
I11
I10
tp1474
(lp1475
F107.02388898848568
aF2
as(I10
I15
I14
tp1476
(lp1477
F120
aF10
astRp1478
(dp1479
g1292
Nsg1293
(dp1480
I7
I0
sI8
I1
sI9
I2
sI10
I3
sI11
I4
sI12
I5
sI13
I6
sI14
I7
sI15
I8
ssg1295
I00
sg1296
(lp1481
sg1298
(dp1482
sbstRp1483
sS'loop_class'
p1484
(lp1485
sS'CIF_id'
p1486
g1175
sg89
I0
sS'residue_name'
p1487
g1175
sS'temp_pdb'
p1488
S'/tmp/tmpPVSZ8P'
p1489
sS'ring_dihedrals'
p1490
(lp1491
g1
(g1281
g3
(lp1492
g53
ag172
ag264
ag5
atRp1493
(dp1494
g1190
(lp1495
S'-'
aS'-'
aS'-'
asg1192
I00
sg1193
F0
sbag1
(g1281
g3
(lp1496
g65
ag53
ag172
ag264
atRp1497
(dp1498
g1190
(lp1499
S'-'
aS'-'
aS'-'
asg1192
I00
sg1193
F0
sbag1
(g1281
g3
(lp1500
g34
ag65
ag53
ag172
atRp1501
(dp1502
g1190
(lp1503
S'-'
aS'-'
aS'-'
asg1192
I00
sg1193
F0
sbag1
(g1281
g3
(lp1504
g5
ag34
ag65
ag53
atRp1505
(dp1506
g1190
(lp1507
S'-'
aS'-'
aS'-'
asg1192
I00
sg1193
F0
sbag1
(g1281
g3
(lp1508
g264
ag5
ag34
ag65
atRp1509
(dp1510
g1190
(lp1511
S'-'
aS'-'
aS'-'
asg1192
I00
sg1193
F0
sbag1
(g1281
g3
(lp1512
g172
ag264
ag5
ag34
atRp1513
(dp1514
g1190
(lp1515
S'-'
aS'-'
aS'-'
asg1192
I00
sg1193
F0
sbag1
(g1281
g3
(lp1516
g242
ag185
ag172
ag264
atRp1517
(dp1518
g1190
(lp1519
S'-'
aS'-'
aS'-'
asg1192
I00
sg1193
F0
sbag1
(g1281
g3
(lp1520
g254
ag242
ag185
ag172
atRp1521
(dp1522
g1190
(lp1523
S'-'
aS'-'
aS'-'
asg1192
I00
sg1193
F0
sbag1
(g1281
g3
(lp1524
g264
ag254
ag242
ag185
atRp1525
(dp1526
g1190
(lp1527
S'-'
aS'-'
aS'-'
asg1192
I00
sg1193
F0
sbag1
(g1281
g3
(lp1528
g172
ag264
ag254
ag242
atRp1529
(dp1530
g1190
(lp1531
S'-'
aS'-'
aS'-'
asg1192
I00
sg1193
F0
sbag1
(g1281
g3
(lp1532
g185
ag172
ag264
ag254
atRp1533
(dp1534
g1190
(lp1535
S'-'
aS'-'
aS'-'
asg1192
I00
sg1193
F0
sbag1
(g1281
g3
(lp1536
g426
ag436
ag448
ag341
atRp1537
(dp1538
g1190
(lp1539
S'-'
aS'='
aS'-'
asg1192
I00
sg1193
F0
sbag1
(g1281
g3
(lp1540
g352
ag426
ag436
ag448
atRp1541
(dp1542
g1190
(lp1543
S'='
aS'-'
aS'='
asg1192
I00
sg1193
F0
sbag1
(g1281
g3
(lp1544
g341
ag352
ag426
ag436
atRp1545
(dp1546
g1190
(lp1547
S'-'
aS'='
aS'-'
asg1192
I00
sg1193
F0
sbag1
(g1281
g3
(lp1548
g448
ag341
ag352
ag426
atRp1549
(dp1550
g1190
(lp1551
S'-'
aS'-'
aS'='
asg1192
I00
sg1193
F0
sbag1
(g1281
g3
(lp1552
g436
ag448
ag341
ag352
atRp1553
(dp1554
g1190
(lp1555
S'='
aS'-'
aS'-'
asg1192
I00
sg1193
F0
sbag1
(g1281
g3
(lp1556
g374
ag362
ag352
ag426
atRp1557
(dp1558
g1190
(lp1559
S'='
aS'-'
aS'='
asg1192
I00
sg1193
F0
sbag1
(g1281
g3
(lp1560
g386
ag374
ag362
ag352
atRp1561
(dp1562
g1190
(lp1563
S'-'
aS'='
aS'-'
asg1192
I00
sg1193
F0
sbag1
(g1281
g3
(lp1564
g398
ag386
ag374
ag362
atRp1565
(dp1566
g1190
(lp1567
S'-'
aS'-'
aS'='
asg1192
I00
sg1193
F0
sbag1
(g1281
g3
(lp1568
g426
ag398
ag386
ag374
atRp1569
(dp1570
g1190
(lp1571
S'-'
aS'-'
aS'-'
asg1192
I00
sg1193
F0
sbag1
(g1281
g3
(lp1572
g352
ag426
ag398
ag386
atRp1573
(dp1574
g1190
(lp1575
S'='
aS'-'
aS'-'
asg1192
I00
sg1193
F0
sbag1
(g1281
g3
(lp1576
g362
ag352
ag426
ag398
atRp1577
(dp1578
g1190
(lp1579
S'-'
aS'='
aS'-'
asg1192
I00
sg1193
F0
sbasS'all_rings'
p1580
(lp1581
(lp1582
S'1'
aS'19'
p1583
aS'2'
aS'20'
p1584
aS'22'
p1585
aS'3'
aa(lp1586
S'2'
aS'3'
aS'4'
aS'5'
aS'6'
aa(lp1587
S'10'
p1588
aS'11'
p1589
aS'7'
aS'8'
aS'9'
aa(lp1590
S'10'
p1591
aS'11'
p1592
aS'12'
p1593
aS'13'
p1594
aS'14'
p1595
aS'15'
p1596
aasS'maximum_bond_length'
p1597
F3
sS'peptide_class'
p1598
g1
(g1279
g3
(ltRp1599
(dp1600
g1288
g1
(g1289
g1163
(dtRp1601
(dp1602
g1292
Nsg1293
(dp1603
sg1295
I00
sg1296
(lp1604
sg1298
(dp1605
sbsg1300
(lp1606
sbsg1012
(dp1607
g991
(dp1608
g979
(dp1609
I3
F60
sI4
F90
sI5
F106
sI6
F113
ssg1016
(dp1610
I5
(lp1611
F25
aI10
asI6
(lp1612
F55
aI1
assssS'molecule_number'
p1613
I0
sS'ring_zmatrix'
p1614
(dp1615
I1
g1
(celbow.chemistry.ZMatrixClass
ZMatrixClass
p1616
g3
(lp1617
g1
(celbow.chemistry.ZMatrixClass
ZMatrixLine
p1618
g3
(lp1619
g5
atRp1620
(dp1621
S'added_atom'
p1622
I00
sS'variable_set'
p1623
I01
sS'angle_index'
p1624
I4
sS'bond_index'
p1625
I2
sS'dihedral_index'
p1626
I6
sS'variable'
p1627
(lp1628
I00
aI00
aI00
asS'ring'
p1629
I01
sg1193
Nsbag1
(g1618
g3
(lp1630
g264
ag5
aF1.5980197875564066
atRp1631
(dp1632
g1622
I00
sg1623
I01
sg1624
I4
sg1625
I2
sg1626
I6
sg1627
(lp1633
I00
aI00
aI00
asg1629
I01
sg1193
F1.5980197875564066
sbag1
(g1618
g3
(lp1634
g172
ag264
aF1.3955054079999463
ag5
aF112.95789858549159
atRp1635
(dp1636
g1622
I00
sg1623
I01
sg1624
I4
sg1625
I2
sg1626
I6
sg1627
(lp1637
I00
aI00
aI00
asg1629
I01
sg1193
F1.3955054079999463
sbag1
(g1618
g3
(lp1638
g185
ag172
aF1.596073520631647
ag264
aF105.50413238315588
ag5
aF-78.264366701489493
atRp1639
(dp1640
g1622
I00
sg1623
I01
sg1624
I4
sg1625
I2
sg1626
I6
sg1627
(lp1641
I00
aI00
aI00
asg1629
I01
sg1193
F1.596073520631647
sbag1
(g1618
g3
(lp1642
g242
ag185
aF1.3785724064985854
ag172
aF105.68523800681679
ag264
aF-37.356009001918089
atRp1643
(dp1644
g1622
I00
sg1623
I01
sg1624
I4
sg1625
I2
sg1626
I6
sg1627
(lp1645
I00
aI00
aI00
asg1629
I01
sg1193
F1.3785724064985854
sbag1
(g1618
g3
(lp1646
g254
ag264
aF1.5504057619199658
ag5
aF98.491402253635798
ag242
aF-37.873239384806325
atRp1647
(dp1648
g1622
I00
sg1623
I01
sg1624
I4
sg1625
I2
sg1626
I6
sg1627
(lp1649
I00
aI00
aI00
asg1629
I01
sg1193
F1.5504057619199658
sbag1
(g1618
g3
(lp1650
g53
ag172
aF1.4451678788142517
ag264
aF112.48639384355124
ag5
aF52.533384392835785
atRp1651
(dp1652
g1622
I00
sg1623
I01
sg1624
I4
sg1625
I2
sg1626
I6
sg1627
(lp1653
I00
aI00
aI00
asg1629
I01
sg1193
F1.4451678788142517
sbag1
(g1618
g3
(lp1654
g65
ag53
aF1.6103477471667906
ag172
aF112.67066888387934
ag264
aF-54.963106182625147
atRp1655
(dp1656
g1622
I00
sg1623
I01
sg1624
I4
sg1625
I2
sg1626
I6
sg1627
(lp1657
I00
aI00
aI00
asg1629
I01
sg1193
F1.6103477471667906
sbag1
(g1618
g3
(lp1658
g34
ag5
aF1.3775817192269211
ag264
aF112.62656666950785
ag172
aF-53.706675599138258
atRp1659
(dp1660
g1622
I00
sg1623
I01
sg1624
I4
sg1625
I2
sg1626
I6
sg1627
(lp1661
I00
aI00
aI00
asg1629
I01
sg1193
F1.3775817192269211
sbatRp1662
(dp1663
g974
I01
sg975
g1303
sS'parent'
p1664
g872
sS'bonds'
p1665
g1
(celbow.chemistry.InternalCoordinateListClass
InternalCoordinateListClass
p1666
g3
(lp1667
g1
(celbow.chemistry.BondClass
BondClass
p1668
g3
(lp1669
g264
ag5
atRp1670
(dp1671
g1190
(lp1672
sg1192
I00
sg1193
F1.527126
sS'max_atoms'
p1673
I2
sg147
S'-'
sS'input_order'
p1674
I1
sS'order'
p1675
I1
sbag1
(g1668
g3
(lp1676
g172
ag264
atRp1677
(dp1678
g1190
g1672
sg1192
I00
sg1193
F1.527126
sg1673
I2
sg147
S'-'
sg1674
I1
sg1675
I1
sbag1
(g1668
g3
(lp1679
g254
ag242
atRp1680
(dp1681
g1190
g1672
sg1192
I00
sg1193
F1.398717
sg1673
I2
sg147
S'-'
sg1674
I1
sg1675
I1
sbag1
(g1668
g3
(lp1682
g341
ag242
atRp1683
(dp1684
g1190
g1672
sg1192
I00
sg1193
F1.451533
sg1673
I2
sg147
S'-'
sg1674
I1
sg1675
I1
sbag1
(g1668
g3
(lp1685
g448
ag341
atRp1686
(dp1687
g1190
g1672
sg1192
I00
sg1193
F1.321345
sg1673
I2
sg147
S'-'
sg1674
I1
sg1675
I1
sbag1
(g1668
g3
(lp1688
g436
ag448
atRp1689
(dp1690
g1190
g1672
sg1192
I00
sg1193
F1.321345
sg1673
I2
sg147
S'='
sg1674
I2
sg1675
I2
sbag1
(g1668
g3
(lp1691
g426
ag436
atRp1692
(dp1693
g1190
g1672
sg1192
I00
sg1193
F1.321345
sg1673
I2
sg147
S'-'
sg1674
I1
sg1675
I1
sbag1
(g1668
g3
(lp1694
g352
ag426
atRp1695
(dp1696
g1190
g1672
sg1192
I00
sg1193
F1.385372
sg1673
I2
sg147
S'='
sg1674
I2
sg1675
I2
sbag1
(g1668
g3
(lp1697
g362
ag352
atRp1698
(dp1699
g1190
g1672
sg1192
I00
sg1193
F1.451533
sg1673
I2
sg147
S'-'
sg1674
I1
sg1675
I1
sbag1
(g1668
g3
(lp1700
g374
ag362
atRp1701
(dp1702
g1190
g1672
sg1192
I00
sg1193
F1.249879
sg1673
I2
sg147
S'='
sg1674
I2
sg1675
I2
sbag1
(g1668
g3
(lp1703
g398
ag386
atRp1704
(dp1705
g1190
g1672
sg1192
I00
sg1193
F1.451533
sg1673
I2
sg147
S'-'
sg1674
I1
sg1675
I1
sbag1
(g1668
g3
(lp1706
g408
ag398
atRp1707
(dp1708
g1190
g1672
sg1192
I00
sg1193
F1.184607
sg1673
I2
sg147
S'='
sg1674
I2
sg1675
I2
sbag1
(g1668
g3
(lp1709
g386
ag374
atRp1710
(dp1711
g1190
g1672
sg1192
I00
sg1193
F1.451533
sg1673
I2
sg147
S'-'
sg1674
I1
sg1675
I1
sbag1
(g1668
g3
(lp1712
g546
ag374
atRp1713
(dp1714
g1190
g1672
sg1192
I00
sg1193
F1.451533
sg1673
I2
sg147
S'-'
sg1674
I1
sg1675
I1
sbag1
(g1668
g3
(lp1715
g242
ag185
atRp1716
(dp1717
g1190
g1672
sg1192
I00
sg1193
F1.527126
sg1673
I2
sg147
S'-'
sg1674
I1
sg1675
I1
sbag1
(g1668
g3
(lp1718
g197
ag185
atRp1719
(dp1720
g1190
g1672
sg1192
I00
sg1193
F1.398717
sg1673
I2
sg147
S'-'
sg1674
I1
sg1675
I1
sbag1
(g1668
g3
(lp1721
g185
ag172
atRp1722
(dp1723
g1190
g1672
sg1192
I00
sg1193
F1.527126
sg1673
I2
sg147
S'-'
sg1674
I1
sg1675
I1
sbag1
(g1668
g3
(lp1724
g53
ag172
atRp1725
(dp1726
g1190
g1672
sg1192
I00
sg1193
F1.398717
sg1673
I2
sg147
S'-'
sg1674
I1
sg1675
I1
sbag1
(g1668
g3
(lp1727
g65
ag53
atRp1728
(dp1729
g1190
g1672
sg1192
I00
sg1193
F1.6482159999999999
sg1673
I2
sg147
S'-'
sg1674
I1
sg1675
I1
sbag1
(g1668
g3
(lp1730
g43
ag65
atRp1731
(dp1732
g1190
g1672
sg1192
I00
sg1193
F1.4604889999999999
sg1673
I2
sg147
S'='
sg1674
I2
sg1675
I2
sbag1
(g1668
g3
(lp1733
g34
ag65
atRp1734
(dp1735
g1190
g1672
sg1192
I00
sg1193
F1.6482159999999999
sg1673
I2
sg147
S'-'
sg1674
I1
sg1675
I1
sbag1
(g1668
g3
(lp1736
g78
ag65
atRp1737
(dp1738
g1190
g1672
sg1192
I00
sg1193
F1.6482159999999999
sg1673
I2
sg147
S'-'
sg1674
I1
sg1675
I1
sbag1
(g1668
g3
(lp1739
g5
ag34
atRp1740
(dp1741
g1190
g1672
sg1192
I00
sg1193
F1.398717
sg1673
I2
sg147
S'-'
sg1674
I1
sg1675
I1
sbag1
(g1668
g3
(lp1742
g264
ag254
atRp1743
(dp1744
g1190
g1672
sg1192
I00
sg1193
F1.398717
sg1673
I2
sg147
S'-'
sg1674
I1
sg1675
I1
sbag1
(g1668
g3
(lp1745
g341
ag352
atRp1746
(dp1747
g1190
g1672
sg1192
I00
sg1193
F1.321345
sg1673
I2
sg147
S'-'
sg1674
I1
sg1675
I1
sbag1
(g1668
g3
(lp1748
g426
ag398
atRp1749
(dp1750
g1190
g1672
sg1192
I00
sg1193
F1.527126
sg1673
I2
sg147
S'-'
sg1674
I1
sg1675
I1
sbag1
(g1668
g3
(lp1751
g818
ag5
atRp1752
(dp1753
g1190
g1672
sg1192
I00
sg1193
F1.0833090000000001
sg1673
I2
sg147
S'-'
sg1674
I1
sg1675
I1
sbag1
(g1668
g3
(lp1754
g836
ag5
atRp1755
(dp1756
g1190
g1672
sg1192
I00
sg1193
F1.0833090000000001
sg1673
I2
sg147
S'-'
sg1674
I1
sg1675
I1
sbag1
(g1668
g3
(lp1757
g274
ag264
atRp1758
(dp1759
g1190
g1672
sg1192
I00
sg1193
F1.0833090000000001
sg1673
I2
sg147
S'-'
sg1674
I1
sg1675
I1
sbag1
(g1668
g3
(lp1760
g720
ag172
atRp1761
(dp1762
g1190
g1672
sg1192
I00
sg1193
F1.0833090000000001
sg1673
I2
sg147
S'-'
sg1674
I1
sg1675
I1
sbag1
(g1668
g3
(lp1763
g679
ag185
atRp1764
(dp1765
g1190
g1672
sg1192
I00
sg1193
F1.0833090000000001
sg1673
I2
sg147
S'-'
sg1674
I1
sg1675
I1
sbag1
(g1668
g3
(lp1766
g645
ag242
atRp1767
(dp1768
g1190
g1672
sg1192
I00
sg1193
F1.0833090000000001
sg1673
I2
sg147
S'-'
sg1674
I1
sg1675
I1
sbag1
(g1668
g3
(lp1769
g460
ag448
atRp1770
(dp1771
g1190
g1672
sg1192
I00
sg1193
F1.0833090000000001
sg1673
I2
sg147
S'-'
sg1674
I1
sg1675
I1
sbag1
(g1668
g3
(lp1772
g519
ag386
atRp1773
(dp1774
g1190
g1672
sg1192
I00
sg1193
F1.0008300000000001
sg1673
I2
sg147
S'-'
sg1674
I1
sg1675
I1
sbag1
(g1668
g3
(lp1775
g564
ag546
atRp1776
(dp1777
g1190
g1672
sg1192
I00
sg1193
F1.0008300000000001
sg1673
I2
sg147
S'-'
sg1674
I1
sg1675
I1
sbag1
(g1668
g3
(lp1778
g582
ag546
atRp1779
(dp1780
g1190
g1672
sg1192
I00
sg1193
F1.0008300000000001
sg1673
I2
sg147
S'-'
sg1674
I1
sg1675
I1
sbag1
(g1668
g3
(lp1781
g222
ag197
atRp1782
(dp1783
g1190
g1672
sg1192
I00
sg1193
F0.94288300000000003
sg1673
I2
sg147
S'-'
sg1674
I1
sg1675
I1
sbag1
(g1668
g3
(lp1784
g122
ag78
atRp1785
(dp1786
g1190
g1672
sg1192
I00
sg1193
F0.94288300000000003
sg1673
I2
sg147
S'-'
sg1674
I1
sg1675
I1
sbatRp1787
sg1009
I01
sS'atoms'
p1788
(lp1789
g5
ag264
ag172
ag185
ag242
ag254
ag53
ag65
ag34
asg1288
g1
(g1289
g1163
(dp1790
I1
(F0.83481865295232194
F-1.1270366070527862
F-1.7143805937081367
tp1791
sI2
(F0.85045965233691401
F-1.0043388311902699
F-1.3561515476383628
tp1792
sI3
(F1.770147708696074
F-2.0090473200488197
F-0.47902638792855068
tp1793
sI4
(F1.4818212868364027
F-1.7712770490144849
F0.91622878139223762
tp1794
sI5
(F0.37270650740505484
F-0.63924902188151278
F1.0007945286553397
tp1795
sI6
(F0.069482694316938987
F-0.16751635907649309
F-0.42010027939293715
tp1796
s(I5
I4
tp1797
(lp1798
F1.527126
aF200
as(I4
I3
I2
tp1799
(lp1800
F106
aF10
as(I22
I20
I19
I3
tp1801
(lp1802
F55
aF1
aI1
ag1341
as(I19
I3
I2
I1
tp1803
(lp1804
F55
aF1
aI1
ag1341
asI19
(F3.1218311772126879
F-2.3783996771599436
F-1.2729717909827245
tp1805
sI20
(F3.2843347320337632
F-2.1101798071854239
F-1.3701762036690013
tp1806
sI22
(F2.1920926848579079
F-1.2613969972423327
F-2.3427850679038311
tp1807
s(I3
I2
I6
I5
tp1808
(lp1809
F25
aF1
aI10
ag1341
as(I1
I22
tp1810
(lp1811
F1.398717
aF200
as(I22
I20
tp1812
(lp1813
F1.6482159999999999
aF200
as(I20
I19
I3
I2
tp1814
(lp1815
F55
aF1
aI1
ag1341
as(I4
I19
tp1816
(lp1817
F4
aF10
aF1
as(I2
I1
I22
tp1818
(lp1819
F113
aF10
as(I6
I5
I4
I3
tp1820
(lp1821
F25
aF1
aI10
ag1341
as(I2
I6
I5
tp1822
(lp1823
F106
aF10
as(I19
I3
tp1824
(lp1825
F1.398717
aF200
as(I2
I6
I5
I4
tp1826
(lp1827
F25
aF1
aI10
ag1341
as(I6
I5
I4
tp1828
(lp1829
F106
aF10
as(I5
I4
I3
tp1830
(lp1831
F106
aF10
as(I1
I22
I20
tp1832
(lp1833
F113
aF10
as(I20
I19
I3
tp1834
(lp1835
F113
aF10
as(I3
I2
tp1836
(lp1837
F1.527126
aF200
as(I2
I6
tp1838
(lp1839
F1.398717
aF200
as(I3
I2
I1
tp1840
(lp1841
F113
aF10
as(I3
I2
I6
tp1842
(lp1843
F106
aF10
as(I2
I1
tp1844
(lp1845
F1.527126
aF200
as(I20
I19
tp1846
(lp1847
F1.6482159999999999
aF200
as(I19
I3
I2
tp1848
(lp1849
F113
aF10
as(I5
I4
I3
I2
tp1850
(lp1851
F25
aF1
aI10
ag1341
as(I4
I3
I2
I6
tp1852
(lp1853
F25
aF1
aI10
ag1341
as(I6
I5
tp1854
(lp1855
F1.398717
aF200
as(I22
I20
I19
tp1856
(F111
F5
tp1857
s(I6
I1
tp1858
(lp1859
F4
aF10
aF1
as(I2
I1
I22
I20
tp1860
(lp1861
F55
aF1
aI1
ag1341
as(I4
I3
tp1862
(lp1863
F1.527126
aF200
as(I3
I2
I1
I22
tp1864
(lp1865
F55
aF1
aI1
ag1341
as(I1
I22
I20
I19
tp1866
(lp1867
F55
aF1
aI1
ag1341
astRp1868
(dp1869
g1292
Nsg1293
(dp1870
I1
I0
sI2
I1
sI3
I2
sI4
I3
sI5
I4
sI6
I5
sI19
I6
sI20
I7
sI22
I8
ssg1295
I00
sg1296
(lp1871
sg1298
(dp1872
sbsS'angles'
p1873
g1
(g1666
g3
(lp1874
g1
(g1186
g3
(lp1875
g172
ag264
ag5
atRp1876
(dp1877
g1190
(lp1878
S'-'
aS'-'
asg1192
I01
sg1193
F115
sbag1
(g1186
g3
(lp1879
g254
ag264
ag5
atRp1880
(dp1881
g1190
(lp1882
S'-'
aS'-'
asg1192
I01
sbag1
(g1186
g3
(lp1883
g65
ag34
ag5
atRp1884
(dp1885
g1190
(lp1886
S'-'
aS'-'
asg1192
I01
sg1193
F115
sbag1
(g1186
g3
(lp1887
g34
ag5
ag264
atRp1888
(dp1889
g1190
(lp1890
S'-'
aS'-'
asg1192
I01
sg1193
F115
sbag1
(g1186
g3
(lp1891
g185
ag172
ag264
atRp1892
(dp1893
g1190
(lp1894
S'-'
aS'-'
asg1192
I01
sg1193
F103
sbag1
(g1186
g3
(lp1895
g53
ag172
ag264
atRp1896
(dp1897
g1190
(lp1898
S'-'
aS'-'
asg1192
I01
sg1193
F115
sbag1
(g1186
g3
(lp1899
g242
ag254
ag264
atRp1900
(dp1901
g1190
(lp1902
S'-'
aS'-'
asg1192
I01
sg1193
F103
sbag1
(g1186
g3
(lp1903
g254
ag264
ag172
atRp1904
(dp1905
g1190
(lp1906
S'-'
aS'-'
asg1192
I01
sg1193
F103
sbag1
(g1186
g3
(lp1907
g242
ag185
ag172
atRp1908
(dp1909
g1190
(lp1910
S'-'
aS'-'
asg1192
I01
sg1193
F103
sbag1
(g1186
g3
(lp1911
g197
ag185
ag172
atRp1912
(dp1913
g1190
(lp1914
S'-'
aS'-'
asg1192
I01
sg1193
F108.129
sbag1
(g1186
g3
(lp1915
g65
ag53
ag172
atRp1916
(dp1917
g1190
(lp1918
S'-'
aS'-'
asg1192
I01
sg1193
F115
sbag1
(g1186
g3
(lp1919
g254
ag242
ag185
atRp1920
(dp1921
g1190
(lp1922
S'-'
aS'-'
asg1192
I01
sg1193
F103
sbag1
(g1186
g3
(lp1923
g341
ag242
ag185
atRp1924
(dp1925
g1190
(lp1926
S'-'
aS'-'
asg1192
I01
sbag1
(g1186
g3
(lp1927
g53
ag172
ag185
atRp1928
(dp1929
g1190
(lp1930
S'-'
aS'-'
asg1192
I01
sbag1
(g1186
g3
(lp1931
g448
ag341
ag242
atRp1932
(dp1933
g1190
(lp1934
S'-'
aS'-'
asg1192
I01
sg1193
F128.5
sbag1
(g1186
g3
(lp1935
g352
ag341
ag242
atRp1936
(dp1937
g1190
(lp1938
S'-'
aS'-'
asg1192
I01
sg1193
F128.5
sbag1
(g1186
g3
(lp1939
g197
ag185
ag242
atRp1940
(dp1941
g1190
(lp1942
S'-'
aS'-'
asg1192
I01
sg1193
F108.129
sbag1
(g1186
g3
(lp1943
g341
ag242
ag254
atRp1944
(dp1945
g1190
(lp1946
S'-'
aS'-'
asg1192
I01
sbag1
(g1186
g3
(lp1947
g436
ag448
ag341
atRp1948
(dp1949
g1190
(lp1950
S'='
aS'-'
asg1192
I01
sg1193
F103
sbag1
(g1186
g3
(lp1951
g426
ag352
ag341
atRp1952
(dp1953
g1190
(lp1954
S'='
aS'-'
asg1192
I01
sg1193
F103
sbag1
(g1186
g3
(lp1955
g362
ag352
ag341
atRp1956
(dp1957
g1190
(lp1958
S'-'
aS'-'
asg1192
I01
sg1193
F120
sbag1
(g1186
g3
(lp1959
g352
ag341
ag448
atRp1960
(dp1961
g1190
(lp1962
S'-'
aS'-'
asg1192
I01
sg1193
F128.5
sbag1
(g1186
g3
(lp1963
g426
ag436
ag448
atRp1964
(dp1965
g1190
(lp1966
S'-'
aS'='
asg1192
I01
sg1193
F103
sbag1
(g1186
g3
(lp1967
g352
ag426
ag436
atRp1968
(dp1969
g1190
(lp1970
S'='
aS'-'
asg1192
I01
sg1193
F103
sbag1
(g1186
g3
(lp1971
g398
ag426
ag436
atRp1972
(dp1973
g1190
(lp1974
S'-'
aS'-'
asg1192
I01
sg1193
F120
sbag1
(g1186
g3
(lp1975
g362
ag352
ag426
atRp1976
(dp1977
g1190
(lp1978
S'-'
aS'='
asg1192
I01
sg1193
F115
sbag1
(g1186
g3
(lp1979
g386
ag398
ag426
atRp1980
(dp1981
g1190
(lp1982
S'-'
aS'-'
asS'must_be'
p1983
F120
sg1192
I01
sg1193
F120
sbag1
(g1186
g3
(lp1984
g408
ag398
ag426
atRp1985
(dp1986
g1190
(lp1987
S'='
aS'-'
asg1983
F120
sg1192
I01
sg1193
F120
sbag1
(g1186
g3
(lp1988
g398
ag426
ag352
atRp1989
(dp1990
g1190
(lp1991
S'-'
aS'='
asg1192
I01
sg1193
F115
sbag1
(g1186
g3
(lp1992
g374
ag362
ag352
atRp1993
(dp1994
g1190
(lp1995
S'='
aS'-'
asg1192
I01
sg1193
F120
sbag1
(g1186
g3
(lp1996
g386
ag374
ag362
atRp1997
(dp1998
g1190
(lp1999
S'-'
aS'='
asg1192
I01
sg1193
F120
sbag1
(g1186
g3
(lp2000
g546
ag374
ag362
atRp2001
(dp2002
g1190
(lp2003
S'-'
aS'='
asg1192
I01
sg1193
F120
sbag1
(g1186
g3
(lp2004
g398
ag386
ag374
atRp2005
(dp2006
g1190
(lp2007
S'-'
aS'-'
asg1192
I01
sg1193
F120
sbag1
(g1186
g3
(lp2008
g408
ag398
ag386
atRp2009
(dp2010
g1190
(lp2011
S'='
aS'-'
asg1983
F120
sg1192
I01
sg1193
F120
sbag1
(g1186
g3
(lp2012
g546
ag374
ag386
atRp2013
(dp2014
g1190
(lp2015
S'-'
aS'-'
asg1192
I01
sg1193
F120
sbag1
(g1186
g3
(lp2016
g43
ag65
ag53
atRp2017
(dp2018
g1190
(lp2019
S'='
aS'-'
asg1192
I01
sg1193
F109.47122063449069
sbag1
(g1186
g3
(lp2020
g34
ag65
ag53
atRp2021
(dp2022
g1190
(lp2023
S'-'
aS'-'
asg1192
I01
sg1193
F115
sbag1
(g1186
g3
(lp2024
g78
ag65
ag53
atRp2025
(dp2026
g1190
(lp2027
S'-'
aS'-'
asg1192
I01
sg1193
F120
sbag1
(g1186
g3
(lp2028
g34
ag65
ag43
atRp2029
(dp2030
g1190
(lp2031
S'-'
aS'='
asg1192
I01
sg1193
F109.47122063449069
sbag1
(g1186
g3
(lp2032
g78
ag65
ag43
atRp2033
(dp2034
g1190
(lp2035
S'-'
aS'='
asg1192
I01
sg1193
F109.47122063449069
sbag1
(g1186
g3
(lp2036
g78
ag65
ag34
atRp2037
(dp2038
g1190
(lp2039
S'-'
aS'-'
asg1192
I01
sg1193
F120
sbatRp2040
sS'use_parent_energise'
p2041
I01
sS'dihedrals'
p2042
g1
(g1666
g3
(lp2043
g1
(g1281
g3
(lp2044
g185
ag172
ag264
ag5
atRp2045
(dp2046
g1190
(lp2047
S'-'
aS'-'
aS'-'
asg1192
I00
sbag1
(g1281
g3
(lp2048
g53
ag172
ag264
ag5
atRp2049
(dp2050
g1190
(lp2051
S'-'
aS'-'
aS'-'
asg1192
I00
sbag1
(g1281
g3
(lp2052
g242
ag254
ag264
ag5
atRp2053
(dp2054
g1190
(lp2055
S'-'
aS'-'
aS'-'
asg1192
I00
sbag1
(g1281
g3
(lp2056
g53
ag65
ag34
ag5
atRp2057
(dp2058
g1190
(lp2059
S'-'
aS'-'
aS'-'
asg1192
I00
sbag1
(g1281
g3
(lp2060
g43
ag65
ag34
ag5
atRp2061
(dp2062
g1190
(lp2063
S'='
aS'-'
aS'-'
asg1192
I00
sbag1
(g1281
g3
(lp2064
g78
ag65
ag34
ag5
atRp2065
(dp2066
g1190
(lp2067
S'-'
aS'-'
aS'-'
asg1192
I00
sbag1
(g1281
g3
(lp2068
g65
ag34
ag5
ag264
atRp2069
(dp2070
g1190
(lp2071
S'-'
aS'-'
aS'-'
asg1192
I00
sbag1
(g1281
g3
(lp2072
g242
ag185
ag172
ag264
atRp2073
(dp2074
g1190
(lp2075
S'-'
aS'-'
aS'-'
asg1192
I00
sbag1
(g1281
g3
(lp2076
g197
ag185
ag172
ag264
atRp2077
(dp2078
g1190
(lp2079
S'-'
aS'-'
aS'-'
asg1192
I00
sbag1
(g1281
g3
(lp2080
g65
ag53
ag172
ag264
atRp2081
(dp2082
g1190
(lp2083
S'-'
aS'-'
aS'-'
asg1192
I00
sbag1
(g1281
g3
(lp2084
g341
ag242
ag254
ag264
atRp2085
(dp2086
g1190
(lp2087
S'-'
aS'-'
aS'-'
asg1192
I00
sbag1
(g1281
g3
(lp2088
g185
ag242
ag254
ag264
atRp2089
(dp2090
g1190
(lp2091
S'-'
aS'-'
aS'-'
asg1192
I00
sbag1
(g1281
g3
(lp2092
g34
ag5
ag264
ag172
atRp2093
(dp2094
g1190
(lp2095
S'-'
aS'-'
aS'-'
asg1192
I00
sbag1
(g1281
g3
(lp2096
g242
ag254
ag264
ag172
atRp2097
(dp2098
g1190
(lp2099
S'-'
aS'-'
aS'-'
asg1192
I00
sbag1
(g1281
g3
(lp2100
g254
ag242
ag185
ag172
atRp2101
(dp2102
g1190
(lp2103
S'-'
aS'-'
aS'-'
asg1192
I00
sbag1
(g1281
g3
(lp2104
g341
ag242
ag185
ag172
atRp2105
(dp2106
g1190
(lp2107
S'-'
aS'-'
aS'-'
asg1192
I00
sbag1
(g1281
g3
(lp2108
g43
ag65
ag53
ag172
atRp2109
(dp2110
g1190
(lp2111
S'='
aS'-'
aS'-'
asg1192
I00
sbag1
(g1281
g3
(lp2112
g34
ag65
ag53
ag172
atRp2113
(dp2114
g1190
(lp2115
S'-'
aS'-'
aS'-'
asg1192
I00
sbag1
(g1281
g3
(lp2116
g78
ag65
ag53
ag172
atRp2117
(dp2118
g1190
(lp2119
S'-'
aS'-'
aS'-'
asg1192
I00
sbag1
(g1281
g3
(lp2120
g448
ag341
ag242
ag185
atRp2121
(dp2122
g1190
(lp2123
S'-'
aS'-'
aS'-'
asg1192
I00
sbag1
(g1281
g3
(lp2124
g352
ag341
ag242
ag185
atRp2125
(dp2126
g1190
(lp2127
S'-'
aS'-'
aS'-'
asg1192
I00
sbag1
(g1281
g3
(lp2128
g254
ag264
ag172
ag185
atRp2129
(dp2130
g1190
(lp2131
S'-'
aS'-'
aS'-'
asg1192
I00
sbag1
(g1281
g3
(lp2132
g65
ag53
ag172
ag185
atRp2133
(dp2134
g1190
(lp2135
S'-'
aS'-'
aS'-'
asg1192
I00
sbag1
(g1281
g3
(lp2136
g436
ag448
ag341
ag242
atRp2137
(dp2138
g1190
(lp2139
S'='
aS'-'
aS'-'
asg1192
I00
sbag1
(g1281
g3
(lp2140
g426
ag352
ag341
ag242
atRp2141
(dp2142
g1190
(lp2143
S'='
aS'-'
aS'-'
asg1192
I00
sbag1
(g1281
g3
(lp2144
g362
ag352
ag341
ag242
atRp2145
(dp2146
g1190
(lp2147
S'-'
aS'-'
aS'-'
asg1192
I00
sbag1
(g1281
g3
(lp2148
g53
ag172
ag185
ag242
atRp2149
(dp2150
g1190
(lp2151
S'-'
aS'-'
aS'-'
asg1192
I00
sbag1
(g1281
g3
(lp2152
g448
ag341
ag242
ag254
atRp2153
(dp2154
g1190
(lp2155
S'-'
aS'-'
aS'-'
asg1192
I00
sbag1
(g1281
g3
(lp2156
g352
ag341
ag242
ag254
atRp2157
(dp2158
g1190
(lp2159
S'-'
aS'-'
aS'-'
asg1192
I00
sbag1
(g1281
g3
(lp2160
g197
ag185
ag242
ag254
atRp2161
(dp2162
g1190
(lp2163
S'-'
aS'-'
aS'-'
asg1192
I00
sbag1
(g1281
g3
(lp2164
g34
ag5
ag264
ag254
atRp2165
(dp2166
g1190
(lp2167
S'-'
aS'-'
aS'-'
asg1192
I00
sbag1
(g1281
g3
(lp2168
g53
ag172
ag264
ag254
atRp2169
(dp2170
g1190
(lp2171
S'-'
aS'-'
aS'-'
asg1192
I00
sbag1
(g1281
g3
(lp2172
g197
ag185
ag242
ag341
atRp2173
(dp2174
g1190
(lp2175
S'-'
aS'-'
aS'-'
asg1192
I00
sbag1
(g1281
g3
(lp2176
g426
ag436
ag448
ag341
atRp2177
(dp2178
g1190
(lp2179
S'-'
aS'='
aS'-'
asg1192
I00
sbag1
(g1281
g3
(lp2180
g436
ag426
ag352
ag341
atRp2181
(dp2182
g1190
(lp2183
S'-'
aS'='
aS'-'
asg1192
I00
sbag1
(g1281
g3
(lp2184
g398
ag426
ag352
ag341
atRp2185
(dp2186
g1190
(lp2187
S'-'
aS'='
aS'-'
asg1192
I00
sbag1
(g1281
g3
(lp2188
g374
ag362
ag352
ag341
atRp2189
(dp2190
g1190
(lp2191
S'='
aS'-'
aS'-'
asg1192
I00
sbag1
(g1281
g3
(lp2192
g426
ag352
ag341
ag448
atRp2193
(dp2194
g1190
(lp2195
S'='
aS'-'
aS'-'
asg1192
I00
sbag1
(g1281
g3
(lp2196
g362
ag352
ag341
ag448
atRp2197
(dp2198
g1190
(lp2199
S'-'
aS'-'
aS'-'
asg1192
I00
sbag1
(g1281
g3
(lp2200
g352
ag426
ag436
ag448
atRp2201
(dp2202
g1190
(lp2203
S'='
aS'-'
aS'='
asg1192
I00
sbag1
(g1281
g3
(lp2204
g398
ag426
ag436
ag448
atRp2205
(dp2206
g1190
(lp2207
S'-'
aS'-'
aS'='
asg1192
I00
sbag1
(g1281
g3
(lp2208
g352
ag341
ag448
ag436
atRp2209
(dp2210
g1190
(lp2211
S'-'
aS'-'
aS'='
asg1192
I00
sbag1
(g1281
g3
(lp2212
g362
ag352
ag426
ag436
atRp2213
(dp2214
g1190
(lp2215
S'-'
aS'='
aS'-'
asg1192
I00
sbag1283
ag1
(g1281
g3
(lp2216
g408
ag398
ag426
ag436
atRp2217
(dp2218
g1190
(lp2219
S'='
aS'-'
aS'-'
asg1192
I00
sbag1
(g1281
g3
(lp2220
g374
ag362
ag352
ag426
atRp2221
(dp2222
g1190
(lp2223
S'='
aS'-'
aS'='
asg1192
I00
sbag1
(g1281
g3
(lp2224
g374
ag386
ag398
ag426
atRp2225
(dp2226
g1190
(lp2227
S'-'
aS'-'
aS'-'
asg1192
I00
sbag1
(g1281
g3
(lp2228
g386
ag398
ag426
ag352
atRp2229
(dp2230
g1190
(lp2231
S'-'
aS'-'
aS'='
asg1192
I00
sbag1
(g1281
g3
(lp2232
g408
ag398
ag426
ag352
atRp2233
(dp2234
g1190
(lp2235
S'='
aS'-'
aS'='
asg1192
I00
sbag1
(g1281
g3
(lp2236
g386
ag374
ag362
ag352
atRp2237
(dp2238
g1190
(lp2239
S'-'
aS'='
aS'-'
asg1192
I00
sbag1
(g1281
g3
(lp2240
g546
ag374
ag362
ag352
atRp2241
(dp2242
g1190
(lp2243
S'-'
aS'='
aS'-'
asg1192
I00
sbag1
(g1281
g3
(lp2244
g398
ag426
ag352
ag362
atRp2245
(dp2246
g1190
(lp2247
S'-'
aS'='
aS'-'
asg1192
I00
sbag1
(g1281
g3
(lp2248
g398
ag386
ag374
ag362
atRp2249
(dp2250
g1190
(lp2251
S'-'
aS'-'
aS'='
asg1192
I00
sbag1
(g1281
g3
(lp2252
g408
ag398
ag386
ag374
atRp2253
(dp2254
g1190
(lp2255
S'='
aS'-'
aS'-'
asg1192
I00
sbag1
(g1281
g3
(lp2256
g546
ag374
ag386
ag398
atRp2257
(dp2258
g1190
(lp2259
S'-'
aS'-'
aS'-'
asg1192
I00
sbag1
(g1281
g3
(lp2260
g53
ag172
ag185
ag197
atRp2261
(dp2262
g1190
(lp2263
S'-'
aS'-'
aS'-'
asg1192
I00
sbatRp2264
sbsI2
g1
(g1616
g3
(lp2265
g1
(g1618
g3
(lp2266
g341
ag242
aF1.4708432815481334
ag185
aF123.80829023007503
ag264
aF119.31817818849098
atRp2267
(dp2268
g1622
I01
sg1623
I01
sg1624
I4
sg1625
I2
sg1626
I6
sg1627
(lp2269
I00
aI00
aI00
asg1629
I01
sg1193
F1.4708432815481334
sbag1
(g1618
g3
(lp2270
g448
ag341
aF1.3584671583361274
ag242
aF125.84647868384832
ag185
aI0
atRp2271
(dp2272
g1622
I01
sg1623
I01
sg1624
I4
sg1625
I2
sg1626
I6
sg1627
(lp2273
I00
aI00
aI00
asg1629
I01
sg1193
F1.3584671583361274
sbag1
(g1618
g3
(lp2274
g436
ag448
aF1.3629676632205485
ag341
aF108.03822488331797
ag242
aI180
atRp2275
(dp2276
g1622
I01
sg1623
I01
sg1624
I4
sg1625
I2
sg1626
I6
sg1627
(lp2277
I00
aI00
aI00
asg1629
I01
sg1193
F1.3629676632205485
sbag1
(g1618
g3
(lp2278
g426
ag436
aF1.3471034217491493
ag448
aF108.02710918072233
ag341
aI360
atRp2279
(dp2280
g1622
I01
sg1623
I01
sg1624
I4
sg1625
I2
sg1626
I6
sg1627
(lp2281
I00
aI00
aI00
asg1629
I01
sg1193
F1.3471034217491493
sbag1
(g1618
g3
(lp2282
g352
ag341
aF1.349637827726347
ag448
aF108.03513567438669
ag436
aI0
atRp2283
(dp2284
g1622
I01
sg1623
I01
sg1624
I4
sg1625
I2
sg1626
I6
sg1627
(lp2285
I00
aI00
aI00
asg1629
I01
sg1193
F1.349637827726347
sbag1
(g1618
g3
(lp2286
g362
ag352
aF1.4943820620117714
ag341
aF131.88216705011538
ag448
aI180
atRp2287
(dp2288
g1622
I01
sg1623
I01
sg1624
I4
sg1625
I2
sg1626
I6
sg1627
(lp2289
I00
aI00
aI00
asg1629
I01
sg1193
F1.4943820620117714
sbag1
(g1618
g3
(lp2290
g374
ag362
aF1.46433657493017
ag352
aF120.03653907543894
ag341
aI180
atRp2291
(dp2292
g1622
I01
sg1623
I01
sg1624
I4
sg1625
I2
sg1626
I6
sg1627
(lp2293
I00
aI00
aI00
asg1629
I01
sg1193
F1.46433657493017
sbag1
(g1618
g3
(lp2294
g386
ag374
aF1.4396277166212417
ag362
aF120.00795743208489
ag352
aI0
atRp2295
(dp2296
g1622
I01
sg1623
I01
sg1624
I4
sg1625
I2
sg1626
I6
sg1627
(lp2297
I00
aI00
aI00
asg1629
I01
sg1193
F1.4396277166212417
sbag1
(g1618
g3
(lp2298
g398
ag426
aF1.5360134555629963
ag436
aF132.08483247313546
ag448
aI180
atRp2299
(dp2300
g1622
I01
sg1623
I01
sg1624
I4
sg1625
I2
sg1626
I6
sg1627
(lp2301
I00
aI00
aI00
asg1629
I01
sg1193
F1.5360134555629963
sbatRp2302
(dp2303
g974
I01
sg975
g1303
sg1664
g872
sg1665
g1787
sg1009
I01
sg1788
(lp2304
g341
ag448
ag436
ag426
ag352
ag362
ag374
ag386
ag398
asg1288
g1
(g1289
g1163
(dp2305
(I12
I11
tp2306
(lp2307
F1.451533
aF200
asI7
(F-1.0367242316326335
F-0.41874803371731317
F1.262020857431134
tp2308
s(I7
I12
tp2309
(lp2310
F4
aF10
aF1
asI9
(F-3.3292291299359449
F-0.27458890852688217
F0.66178933367930037
tp2311
s(I9
I8
tp2312
(lp2313
F1.321345
aF200
asI11
(F-1.3465626430826403
F0.98420095177866929
F1.0022467946856148
tp2314
sI12
(F-0.51958474510059793
F2.195222445644982
F1.0267025770231852
tp2315
sI13
(F-1.1214855841267903
F3.5144046142802852
F0.70322201113377569
tp2316
sI14
(F-2.5609599699459964
F3.6105465676566499
F0.35451665321350356
tp2317
sI15
(F-3.3744750356225137
F2.4112382326147701
F0.28836847190367987
tp2318
s(I14
I13
I12
tp2319
(lp2320
F120
aF10
as(I13
I12
I11
tp2321
(lp2322
F120
aF10
as(I7
I11
tp2323
(lp2324
F1.321345
aF200
as(I11
I10
I9
tp2325
(lp2326
F106.96705108271429
aF2
as(I11
I10
tp2327
(lp2328
F1.385372
aF200
as(I9
I15
tp2329
(lp2330
F4
aF10
aF1
as(I9
I8
I7
tp2331
(lp2332
F109.83224583173867
aF2
as(I7
I11
I10
I9
tp2333
(lp2334
F0
aF10
aI0
asI8
(F-2.259865442765336
F-1.1998678149268254
F1.0525447420937171
tp2335
s(I10
I9
I8
tp2336
(lp2337
F108.10783601982214
aF2
asI10
(F-2.7707227480514649
F1.0733608382022788
F0.62950609463230633
tp2338
s(I10
I9
tp2339
(lp2340
F1.321345
aF200
as(I10
I9
I8
I7
tp2341
(lp2342
F0
aF10
aI0
as(I11
I10
I15
tp2343
(lp2344
F120
aF10
as(I8
I7
I11
I10
tp2345
(lp2346
F0
aF10
aI0
as(I13
I12
tp2347
(lp2348
F1.451533
aF200
as(I11
I10
I9
I8
tp2349
(lp2350
F0
aF10
aI0
as(I14
I13
tp2351
(lp2352
F1.451533
aF200
as(I8
I7
tp2353
(lp2354
F1.321345
aF200
as(I15
I14
tp2355
(lp2356
F1.451533
aF200
as(I9
I8
I7
I11
tp2357
(lp2358
F0
aF10
aI0
as(I10
I15
tp2359
(lp2360
F1.527126
aF200
as(I12
I11
I10
tp2361
(lp2362
F120
aF10
as(I8
I7
I11
tp2363
(lp2364
F108.06897807723924
aF2
as(I15
I14
I13
tp2365
(lp2366
F113
aF10
as(I7
I11
I10
tp2367
(lp2368
F107.02388898848568
aF2
as(I10
I15
I14
tp2369
(lp2370
F120
aF10
astRp2371
(dp2372
g1292
Nsg1293
(dp2373
I7
I0
sI8
I1
sI9
I2
sI10
I3
sI11
I4
sI12
I5
sI13
I6
sI14
I7
sI15
I8
ssg1295
I00
sg1296
(lp2374
sg1298
(dp2375
sbsg1873
g2040
sg2041
I01
sg2042
g2264
sbssS'chiral_zmatrix'
p2376
(dp2377
sS'trace'
p2378
(dp2379
I0
(dp2380
S'O'
I1
ssI1
(dp2381
S'H'
I1
sssS'filename_preamble'
p2382
S'elbow.001'
p2383
sS'start_time'
p2384
F1580492220.076431
sS'UseCIFWeights'
p2385
I01
sg1001
(lp2386
sS'ring_class'
p2387
(lp2388
g1
(g880
g3
(lp2389
(lp2390
g264
ag172
ag185
ag242
ag254
aa(lp2391
g5
ag264
ag172
ag53
ag65
ag34
aatRp2392
(dp2393
g1011
I7
sS'allowed'
p2394
(dp2395
(tI01
ssg1001
(lp2396
sg1005
(dp2397
I0
(lp2398
I1
asI1
(lp2399
I0
assg999
(dp2400
I0
(lp2401
(lp2402
asI1
(lp2403
(lp2404
I1
aa(lp2405
I0
aasI2
(lp2406
(lp2407
I0
aI1
aassS'random_non_aromatic_angle'
p2408
I00
sS'ideal_ring_angles'
p2409
(lp2410
g1
(celbow.chemistry.RingClass
RingCircle
p2411
g3
(lp2412
(ielbow.chemistry.RingClass
empty
p2413
(dp2414
g139
I2
sg164
I0
sg11
(ielbow.chemistry.xyzClass
xyzClass
p2415
(dp2416
g14
I0
sg15
F57.295779513082323
sS'y'
F-1.1011055363769386
sS'x'
F0.80000000000000004
sg16
g887
sS'z'
F0
sbsg27
I01
sg147
S'C'
sg16
(ielbow.chemistry.xyzClass
xyzClass
p2417
(dp2418
g14
I0
sg15
F57.295779513082323
sS'y'
F0
sS'x'
F1.5250750316053718e-05
sg16
(F1.5250750316053718e-05
F0
I0
tp2419
sS'z'
I0
sbsg158
I01
sba(ielbow.chemistry.RingClass
empty
p2420
(dp2421
g139
I3
sg164
I1
sg11
(ielbow.chemistry.xyzClass
xyzClass
p2422
(dp2423
g14
I0
sg15
F57.295779513082323
sS'y'
F0.42058488969530705
sS'x'
F1.2944271909999159
sg16
g895
sS'z'
F0
sbsg27
I01
sg147
S'C'
sg16
(ielbow.chemistry.xyzClass
xyzClass
p2424
(dp2425
g14
I0
sg15
F57.295779513082323
sS'y'
I0
sS'x'
F1.527126
sg16
(F1.527126
I0
I0
tp2426
sS'z'
I0
sbsg158
I01
sba(ielbow.chemistry.RingClass
empty
p2427
(dp2428
g139
I4
sg164
I0
sg11
(ielbow.chemistry.xyzClass
xyzClass
p2429
(dp2430
g14
I0
sg15
F57.295779513082323
sS'y'
F1.3610412933632641
sS'x'
F-2.2204460492503131e-16
sg16
g903
sS'z'
F0
sbsg27
I00
sg147
S'C'
sg16
(ielbow.chemistry.xyzClass
xyzClass
p2431
(dp2432
g14
I0
sg15
F57.295779513082323
sS'y'
F1.4763455886158079
sS'x'
F1.917660918862121
sg16
(F1.917660918862121
F1.4763455886158079
I0
tp2433
sS'z'
I0
sbsg158
I01
sba(ielbow.chemistry.RingClass
empty
p2434
(dp2435
g139
I5
sg164
I1
sg11
(ielbow.chemistry.xyzClass
xyzClass
p2436
(dp2437
g14
I0
sg15
F57.295779513082323
sS'y'
F0.42058488969530683
sS'x'
F-1.2944271909999161
sg16
g911
sS'z'
F0
sbsg27
I00
sg147
S'C'
sg16
(ielbow.chemistry.xyzClass
xyzClass
p2438
(dp2439
g14
I0
sg15
F57.295779513082323
sS'y'
F2.2335254684490331
sS'x'
F0.59146619354771879
sg16
(F0.59146619354771879
F2.2335254684490331
I0
tp2440
sS'z'
I0
sbsg158
I01
sba(ielbow.chemistry.RingClass
empty
p2441
(dp2442
g139
I6
sg164
I0
sg11
(ielbow.chemistry.xyzClass
xyzClass
p2443
(dp2444
g14
I0
sg15
F57.295779513082323
sS'y'
F-1.1011055363769389
sS'x'
F-0.80000000000000004
sg16
g919
sS'z'
F0
sbsg27
I00
sg147
S'O'
sg16
(ielbow.chemistry.xyzClass
xyzClass
p2445
(dp2446
g14
I0
sg15
F57.295779513082323
sS'y'
F1.3186157911974274
sS'x'
F-0.46652696737552768
sg16
(F-0.46652696737552768
F1.3186157911974274
I0
tp2447
sS'z'
I0
sbsg158
I01
sbatRp2448
(dp2449
g1665
(lp2450
F1.527126
aF1.527126
aF1.527126
aF1.398717
aF1.398717
asbag1
(g2411
g3
(lp2451
(ielbow.chemistry.RingClass
empty
p2452
(dp2453
g139
I1
sg164
I0
sg11
(ielbow.chemistry.xyzClass
xyzClass
p2454
(dp2455
g14
I0
sg15
F57.295779513082323
sS'y'
F-1.3856406460551023
sS'x'
F0.80000000000000082
sg16
g928
sS'z'
F0
sbsg27
I00
sg147
S'C'
sg16
(ielbow.chemistry.xyzClass
xyzClass
p2456
(dp2457
g14
I0
sg15
F57.295779513082323
sS'y'
F4.4408920985006262e-16
sS'x'
F6.8248587183572518e-05
sg16
(F6.8248587183572518e-05
F4.4408920985006262e-16
I0
tp2458
sS'z'
I0
sbsg158
I01
sba(ielbow.chemistry.RingClass
empty
p2459
(dp2460
g139
I2
sg164
I1
sg11
(ielbow.chemistry.xyzClass
xyzClass
p2461
(dp2462
g14
I0
sg15
F57.295779513082323
sS'y'
F4.4408920985006262e-16
sS'x'
F1.6000000000000005
sg16
g936
sS'z'
F0
sbsg27
I01
sg147
S'C'
sg16
(ielbow.chemistry.xyzClass
xyzClass
p2463
(dp2464
g14
I0
sg15
F57.295779513082323
sS'y'
I0
sS'x'
F1.527126
sg16
(F1.527126
I0
I0
tp2465
sS'z'
I0
sbsg158
I01
sba(ielbow.chemistry.RingClass
empty
p2466
(dp2467
g139
I3
sg164
I0
sg11
(ielbow.chemistry.xyzClass
xyzClass
p2468
(dp2469
g14
I0
sg15
F57.295779513082323
sS'y'
F1.3856406460551023
sS'x'
F0.79999999999999971
sg16
g944
sS'z'
F0
sbsg27
I01
sg147
S'C'
sg16
(ielbow.chemistry.xyzClass
xyzClass
p2470
(dp2471
g14
I0
sg15
F57.295779513082323
sS'y'
F1.2781401098517344
sS'x'
F2.36287218124416
sg16
(F2.36287218124416
F1.2781401098517344
I0
tp2472
sS'z'
I0
sbsg158
I01
sba(ielbow.chemistry.RingClass
empty
p2473
(dp2474
g139
I19
sg164
I1
sg11
(ielbow.chemistry.xyzClass
xyzClass
p2475
(dp2476
g14
I0
sg15
F57.295779513082323
sS'y'
F1.3856406460551018
sS'x'
F-0.8000000000000006
sg16
g952
sS'z'
F0
sbsg27
I00
sg147
S'O'
sg16
(ielbow.chemistry.xyzClass
xyzClass
p2477
(dp2478
g14
I0
sg15
F57.295779513082323
sS'y'
F2.5286964712851603
sS'x'
F1.7363595852276155
sg16
(F1.7363595852276155
F2.5286964712851603
I0
tp2479
sS'z'
I0
sbsg158
I01
sba(ielbow.chemistry.RingClass
empty
p2480
(dp2481
g139
I20
sg164
I0
sg11
(ielbow.chemistry.xyzClass
xyzClass
p2482
(dp2483
g14
I0
sg15
F57.295779513082323
sS'y'
F-4.4408920985006262e-16
sS'x'
F-1.6000000000000005
sg16
g960
sS'z'
F0
sbsg147
S'P'
sg158
I01
sg27
I00
sg16
(ielbow.chemistry.xyzClass
xyzClass
p2484
(dp2485
g14
I0
sg15
F57.295779513082323
sS'y'
F2.6088863304020258
sS'x'
F0.090095460261388371
sg16
(F0.090095460261388371
F2.6088863304020258
I0
tp2486
sS'z'
I0
sbsg157
I01
sba(ielbow.chemistry.RingClass
empty
p2487
(dp2488
g139
I22
sg164
I1
sg11
(ielbow.chemistry.xyzClass
xyzClass
p2489
(dp2490
g14
I0
sg15
F57.295779513082323
sS'y'
F-1.3856406460551023
sS'x'
F-0.80000000000000016
sg16
g968
sS'z'
F0
sbsg27
I00
sg147
S'O'
sg16
(ielbow.chemistry.xyzClass
xyzClass
p2491
(dp2492
g14
I0
sg15
F57.295779513082323
sS'y'
F1.1858940979854713
sS'x'
F-0.74159504054894898
sg16
(F-0.74159504054894898
F1.1858940979854713
I0
tp2493
sS'z'
I0
sbsg158
I01
sbatRp2494
(dp2495
g1665
(lp2496
F1.527126
aF1.527126
aF1.398717
aF1.6482159999999999
aF1.6482159999999999
aF1.398717
asbasg974
I01
sg975
g1303
sg1009
I01
sS'compare_dict'
p2497
(dp2498
(F0.0039183726700395688
F6.3140442592731425
tp2499
(lp2500
I0
aI1
assg1007
(lp2501
I0
aI0
aI0
aF1.5707963267948966
aF1.5707963267948966
aF1.5707963267948966
aI10
aI10
aI10
aF1.5707963267948966
aF1.5707963267948966
aF1.5707963267948966
asg1003
(tsg1288
g1407
sg998
I00
sg1010
I01
sg1012
g1607
sbag1
(g880
g3
(lp2502
(lp2503
g341
ag448
ag436
ag426
ag352
aa(lp2504
g426
ag352
ag362
ag374
ag386
ag398
aatRp2505
(dp2506
g1011
I7
sg2394
(dp2507
(tI01
ssg1001
(lp2508
sg1005
(dp2509
I0
(lp2510
I1
asI1
(lp2511
I0
assg999
(dp2512
I0
(lp2513
(lp2514
asI1
(lp2515
(lp2516
I1
aa(lp2517
I0
aasI2
(lp2518
(lp2519
I0
aI1
aassg2408
I00
sg2409
(lp2520
g1
(g2411
g3
(lp2521
(ielbow.chemistry.RingClass
empty
p2522
(dp2523
g139
I7
sg164
I0
sg11
(ielbow.chemistry.xyzClass
xyzClass
p2524
(dp2525
g14
I0
sg15
F57.295779513082323
sS'y'
F-1.1011055363769386
sS'x'
F0.80000000000000004
sg16
g1026
sS'z'
F0
sbsg27
I00
sg147
S'N'
sg16
(ielbow.chemistry.xyzClass
xyzClass
p2526
(dp2527
g14
I1
sg15
F57.295779513082323
sS'y'
F8.8817841970012523e-16
sS'x'
F-8.3739154621453871e-05
sg16
(F-8.3739154621453871e-05
F8.8817841970012523e-16
I0
tp2528
sS'z'
I0
sbsg158
I01
sba(ielbow.chemistry.RingClass
empty
p2529
(dp2530
g139
I8
sg164
I1
sg11
(ielbow.chemistry.xyzClass
xyzClass
p2531
(dp2532
g14
I0
sg15
F57.295779513082323
sS'y'
F0.42058488969530705
sS'x'
F1.2944271909999159
sg16
g1034
sS'z'
F0
sbsg147
S'C'
sg158
I01
sg27
I00
sg16
(ielbow.chemistry.xyzClass
xyzClass
p2533
(dp2534
g14
I1
sg15
F57.295779513082323
sS'y'
I0
sS'x'
F1.451533
sg16
(F1.451533
I0
I0
tp2535
sS'z'
I0
sbsg157
I01
sba(ielbow.chemistry.RingClass
empty
p2536
(dp2537
g139
I9
sg164
I0
sg11
(ielbow.chemistry.xyzClass
xyzClass
p2538
(dp2539
g14
I0
sg15
F57.295779513082323
sS'y'
F1.3610412933632641
sS'x'
F-2.2204460492503131e-16
sg16
g1042
sS'z'
F0
sbsg147
S'N'
sg158
I01
sg27
I00
sg16
(ielbow.chemistry.xyzClass
xyzClass
p2540
(dp2541
g14
I1
sg15
F57.295779513082323
sS'y'
F1.3654425482068973
sS'x'
F1.9439908130512853
sg16
(F1.9439908130512853
F1.3654425482068973
I0
tp2542
sS'z'
I0
sbsg157
I01
sba(ielbow.chemistry.RingClass
empty
p2543
(dp2544
g139
I10
sg164
I1
sg11
(ielbow.chemistry.xyzClass
xyzClass
p2545
(dp2546
g14
I0
sg15
F57.295779513082323
sS'y'
F0.42058488969530683
sS'x'
F-1.2944271909999161
sg16
g1050
sS'z'
F0
sbsg147
S'C'
sg158
I01
sg27
I01
sg16
(ielbow.chemistry.xyzClass
xyzClass
p2547
(dp2548
g14
I1
sg15
F57.295779513082323
sS'y'
F2.2578988327806897
sS'x'
F0.79923327094302654
sg16
(F0.79923327094302654
F2.2578988327806897
I0
tp2549
sS'z'
I0
sbsg157
I01
sba(ielbow.chemistry.RingClass
empty
p2550
(dp2551
g139
I11
sg164
I0
sg11
(ielbow.chemistry.xyzClass
xyzClass
p2552
(dp2553
g14
I0
sg15
F57.295779513082323
sS'y'
F-1.1011055363769389
sS'x'
F-0.80000000000000004
sg16
g1058
sS'z'
F0
sbsg147
S'C'
sg158
I01
sg27
I01
sg16
(ielbow.chemistry.xyzClass
xyzClass
p2554
(dp2555
g14
I1
sg15
F57.295779513082323
sS'y'
F1.3799489130469484
sS'x'
F-0.45029374289681723
sg16
(F-0.45029374289681723
F1.3799489130469484
I0
tp2556
sS'z'
I0
sbsg157
I01
sbatRp2557
(dp2558
g1665
(lp2559
F1.451533
aF1.451533
aF1.451533
aF1.527126
aF1.451533
asbag1
(g2411
g3
(lp2560
(ielbow.chemistry.RingClass
empty
p2561
(dp2562
g139
I10
sg164
I0
sg11
(ielbow.chemistry.xyzClass
xyzClass
p2563
(dp2564
g14
I0
sg15
F57.295779513082323
sS'y'
F-1.3856406460551023
sS'x'
F0.80000000000000082
sg16
g1067
sS'z'
F0
sbsg147
S'C'
sg158
I01
sg27
I01
sg16
(ielbow.chemistry.xyzClass
xyzClass
p2565
(dp2566
g14
I0
sg15
F57.295779513082323
sS'y'
F-4.4408920985006262e-16
sS'x'
F0.00016091008390795025
sg16
(F0.00016091008390795025
F-4.4408920985006262e-16
I0
tp2567
sS'z'
I0
sbsg157
I01
sba(ielbow.chemistry.RingClass
empty
p2568
(dp2569
g139
I11
sg164
I1
sg11
(ielbow.chemistry.xyzClass
xyzClass
p2570
(dp2571
g14
I0
sg15
F57.295779513082323
sS'y'
F4.4408920985006262e-16
sS'x'
F1.6000000000000005
sg16
g1075
sS'z'
F0
sbsg147
S'C'
sg158
I01
sg27
I01
sg16
(ielbow.chemistry.xyzClass
xyzClass
p2572
(dp2573
g14
I0
sg15
F57.295779513082323
sS'y'
I0
sS'x'
F1.527126
sg16
(F1.527126
I0
I0
tp2574
sS'z'
I0
sbsg157
I01
sba(ielbow.chemistry.RingClass
empty
p2575
(dp2576
g139
I12
sg164
I0
sg11
(ielbow.chemistry.xyzClass
xyzClass
p2577
(dp2578
g14
I0
sg15
F57.295779513082323
sS'y'
F1.3856406460551023
sS'x'
F0.79999999999999971
sg16
g1083
sS'z'
F0
sbsg147
S'N'
sg158
I01
sg27
I00
sg16
(ielbow.chemistry.xyzClass
xyzClass
p2579
(dp2580
g14
I0
sg15
F57.295779513082323
sS'y'
F1.2632984295903487
sS'x'
F2.2419862156250963
sg16
(F2.2419862156250963
F1.2632984295903487
I0
tp2581
sS'z'
I0
sbsg157
I01
sba(ielbow.chemistry.RingClass
empty
p2582
(dp2583
g139
I13
sg164
I1
sg11
(ielbow.chemistry.xyzClass
xyzClass
p2584
(dp2585
g14
I0
sg15
F57.295779513082323
sS'y'
F1.3856406460551018
sS'x'
F-0.8000000000000006
sg16
g1091
sS'z'
F0
sbsg147
S'C'
sg158
I01
sg27
I00
sg16
(ielbow.chemistry.xyzClass
xyzClass
p2586
(dp2587
g14
I0
sg15
F57.295779513082323
sS'y'
F2.5165693058114598
sS'x'
F1.5096883521125988
sg16
(F1.5096883521125988
F2.5165693058114598
I0
tp2588
sS'z'
I0
sbsg157
I01
sba(ielbow.chemistry.RingClass
empty
p2589
(dp2590
g139
I14
sg164
I0
sg11
(ielbow.chemistry.xyzClass
xyzClass
p2591
(dp2592
g14
I0
sg15
F57.295779513082323
sS'y'
F-4.4408920985006262e-16
sS'x'
F-1.6000000000000005
sg16
g1099
sS'z'
F0
sbsg27
I00
sg147
S'N'
sg16
(ielbow.chemistry.xyzClass
xyzClass
p2593
(dp2594
g14
I0
sg15
F57.295779513082323
sS'y'
F2.5662327026041787
sS'x'
F0.059005203693203612
sg16
(F0.059005203693203612
F2.5662327026041787
I0
tp2595
sS'z'
I0
sbsg158
I01
sba(ielbow.chemistry.RingClass
empty
p2596
(dp2597
g139
I15
sg164
I1
sg11
(ielbow.chemistry.xyzClass
xyzClass
p2598
(dp2599
g14
I0
sg15
F57.295779513082323
sS'y'
F-1.3856406460551023
sS'x'
F-0.80000000000000016
sg16
g1107
sS'z'
F0
sbsg147
S'C'
sg158
I01
sg27
I00
sg16
(ielbow.chemistry.xyzClass
xyzClass
p2600
(dp2601
g14
I0
sg15
F57.295779513082323
sS'y'
F1.3442769408381394
sS'x'
F-0.72443092412818977
sg16
(F-0.72443092412818977
F1.3442769408381394
I0
tp2602
sS'z'
I0
sbsg157
I01
sbatRp2603
(dp2604
g1665
(lp2605
F1.527126
aF1.451533
aF1.451533
aF1.451533
aF1.451533
aF1.527126
asbasg974
I01
sg975
g1303
sg1009
I01
sg2497
(dp2606
(F0.00065538474687717009
F0.88179146950413234
tp2607
(lp2608
I0
aI1
assg1007
(lp2609
I0
aI0
aI0
aF1.5707963267948966
aF1.5707963267948966
aF1.5707963267948966
aI10
aI10
aI10
aF1.5707963267948966
aF1.5707963267948966
aF1.5707963267948966
asg1003
(tsg1288
g1478
sg998
I00
sg1010
I01
sg1012
g1607
sbasg1873
g1
(g1666
g3
(lp2610
g1876
ag1880
ag1884
ag1888
ag1892
ag1896
ag1900
ag1904
ag1908
ag1912
ag1916
ag1920
ag1924
ag1928
ag1932
ag1936
ag1940
ag1944
ag1948
ag1952
ag1956
ag1960
ag1964
ag1968
ag1972
ag1976
ag1980
ag1985
ag1989
ag1993
ag1997
ag2001
ag2005
ag2009
ag2013
ag2017
ag2021
ag2025
ag2029
ag2033
ag2037
ag1
(g1186
g3
(lp2611
g274
ag264
ag5
atRp2612
(dp2613
g1190
(lp2614
S'-'
aS'-'
asg1192
I01
sg1193
F109.47122063449069
sbag1
(g1186
g3
(lp2615
g818
ag5
ag264
atRp2616
(dp2617
g1190
(lp2618
S'-'
aS'-'
asg1192
I01
sg1193
F109.47122063449069
sbag1
(g1186
g3
(lp2619
g836
ag5
ag264
atRp2620
(dp2621
g1190
(lp2622
S'-'
aS'-'
asg1192
I01
sg1193
F109.47122063449069
sbag1
(g1186
g3
(lp2623
g720
ag172
ag264
atRp2624
(dp2625
g1190
(lp2626
S'-'
aS'-'
asg1192
I01
sg1193
F109.47122063449069
sbag1
(g1186
g3
(lp2627
g274
ag264
ag172
atRp2628
(dp2629
g1190
(lp2630
S'-'
aS'-'
asg1192
I01
sg1193
F109.47122063449069
sbag1
(g1186
g3
(lp2631
g679
ag185
ag172
atRp2632
(dp2633
g1190
(lp2634
S'-'
aS'-'
asg1192
I01
sg1193
F109.47122063449069
sbag1
(g1186
g3
(lp2635
g645
ag242
ag185
atRp2636
(dp2637
g1190
(lp2638
S'-'
aS'-'
asg1192
I01
sg1193
F109.47122063449069
sbag1
(g1186
g3
(lp2639
g222
ag197
ag185
atRp2640
(dp2641
g1190
(lp2642
S'-'
aS'-'
asg1192
I01
sg1193
F109.47122063449069
sbag1
(g1186
g3
(lp2643
g720
ag172
ag185
atRp2644
(dp2645
g1190
(lp2646
S'-'
aS'-'
asg1192
I01
sg1193
F109.47122063449069
sbag1
(g1186
g3
(lp2647
g679
ag185
ag242
atRp2648
(dp2649
g1190
(lp2650
S'-'
aS'-'
asg1192
I01
sg1193
F109.47122063449069
sbag1
(g1186
g3
(lp2651
g645
ag242
ag254
atRp2652
(dp2653
g1190
(lp2654
S'-'
aS'-'
asg1192
I01
sg1193
F109.47122063449069
sbag1
(g1186
g3
(lp2655
g274
ag264
ag254
atRp2656
(dp2657
g1190
(lp2658
S'-'
aS'-'
asg1192
I01
sg1193
F109.47122063449069
sbag1
(g1186
g3
(lp2659
g645
ag242
ag341
atRp2660
(dp2661
g1190
(lp2662
S'-'
aS'-'
asg1192
I01
sg1193
F109.47122063449069
sbag1
(g1186
g3
(lp2663
g460
ag448
ag341
atRp2664
(dp2665
g1190
(lp2666
S'-'
aS'-'
asg1192
I01
sg1193
F144
sbag1
(g1186
g3
(lp2667
g460
ag448
ag436
atRp2668
(dp2669
g1190
(lp2670
S'-'
aS'='
asg1983
F126
sg1192
I01
sg1193
F144
sbag1
(g1186
g3
(lp2671
g519
ag386
ag374
atRp2672
(dp2673
g1190
(lp2674
S'-'
aS'-'
asg1192
I01
sg1193
F120
sbag1
(g1186
g3
(lp2675
g564
ag546
ag374
atRp2676
(dp2677
g1190
(lp2678
S'-'
aS'-'
asg1192
I01
sg1193
F120
sbag1
(g1186
g3
(lp2679
g582
ag546
ag374
atRp2680
(dp2681
g1190
(lp2682
S'-'
aS'-'
asg1192
I01
sg1193
F120
sbag1
(g1186
g3
(lp2683
g519
ag386
ag398
atRp2684
(dp2685
g1190
(lp2686
S'-'
aS'-'
asg1192
I01
sg1193
F120
sbag1
(g1186
g3
(lp2687
g679
ag185
ag197
atRp2688
(dp2689
g1190
(lp2690
S'-'
aS'-'
asg1192
I01
sg1193
F109.47122063449069
sbag1
(g1186
g3
(lp2691
g720
ag172
ag53
atRp2692
(dp2693
g1190
(lp2694
S'-'
aS'-'
asg1192
I01
sg1193
F109.47122063449069
sbag1
(g1186
g3
(lp2695
g122
ag78
ag65
atRp2696
(dp2697
g1190
(lp2698
S'-'
aS'-'
asg1192
I01
sg1193
F109.47122063449069
sbag1
(g1186
g3
(lp2699
g818
ag5
ag34
atRp2700
(dp2701
g1190
(lp2702
S'-'
aS'-'
asg1192
I01
sg1193
F109.47122063449069
sbag1
(g1186
g3
(lp2703
g836
ag5
ag34
atRp2704
(dp2705
g1190
(lp2706
S'-'
aS'-'
asg1192
I01
sg1193
F109.47122063449069
sbag1
(g1186
g3
(lp2707
g836
ag5
ag818
atRp2708
(dp2709
g1190
(lp2710
S'-'
aS'-'
asg1192
I01
sg1193
F109.47122063449069
sbag1
(g1186
g3
(lp2711
g582
ag546
ag564
atRp2712
(dp2713
g1190
(lp2714
S'-'
aS'-'
asg1192
I01
sg1193
F120
sbatRp2715
sg1665
g1787
sS'CIF_name'
p2716
S'Unknown'
p2717
sS'used_auto_bond'
p2718
I00
sg2042
g1
(g1666
g3
(lp2719
g2045
ag2049
ag2053
ag2057
ag2061
ag2065
ag2069
ag2073
ag2077
ag2081
ag2085
ag2089
ag2093
ag2097
ag2101
ag2105
ag2109
ag2113
ag2117
ag2121
ag2125
ag2129
ag2133
ag2137
ag2141
ag2145
ag2149
ag2153
ag2157
ag2161
ag2165
ag2169
ag2173
ag2177
ag2181
ag2185
ag2189
ag2193
ag2197
ag2201
ag2205
ag2209
ag2213
ag1283
ag2217
ag2221
ag2225
ag2229
ag2233
ag2237
ag2241
ag2245
ag2249
ag2253
ag2257
ag2261
ag1
(g1281
g3
(lp2720
g720
ag172
ag264
ag5
atRp2721
(dp2722
g1190
(lp2723
S'-'
aS'-'
aS'-'
asg1192
I00
sbag1
(g1281
g3
(lp2724
g679
ag185
ag172
ag264
atRp2725
(dp2726
g1190
(lp2727
S'-'
aS'-'
aS'-'
asg1192
I00
sbag1
(g1281
g3
(lp2728
g645
ag242
ag254
ag264
atRp2729
(dp2730
g1190
(lp2731
S'-'
aS'-'
aS'-'
asg1192
I00
sbag1
(g1281
g3
(lp2732
g818
ag5
ag264
ag172
atRp2733
(dp2734
g1190
(lp2735
S'-'
aS'-'
aS'-'
asg1192
I00
sbag1
(g1281
g3
(lp2736
g836
ag5
ag264
ag172
atRp2737
(dp2738
g1190
(lp2739
S'-'
aS'-'
aS'-'
asg1192
I00
sbag1
(g1281
g3
(lp2740
g645
ag242
ag185
ag172
atRp2741
(dp2742
g1190
(lp2743
S'-'
aS'-'
aS'-'
asg1192
I00
sbag1
(g1281
g3
(lp2744
g222
ag197
ag185
ag172
atRp2745
(dp2746
g1190
(lp2747
S'-'
aS'-'
aS'-'
asg1192
I00
sbag1
(g1281
g3
(lp2748
g274
ag264
ag172
ag185
atRp2749
(dp2750
g1190
(lp2751
S'-'
aS'-'
aS'-'
asg1192
I00
sbag1
(g1281
g3
(lp2752
g274
ag264
ag254
ag242
atRp2753
(dp2754
g1190
(lp2755
S'-'
aS'-'
aS'-'
asg1192
I00
sbag1
(g1281
g3
(lp2756
g460
ag448
ag341
ag242
atRp2757
(dp2758
g1190
(lp2759
S'-'
aS'-'
aS'-'
asg1192
I00
sbag1
(g1281
g3
(lp2760
g222
ag197
ag185
ag242
atRp2761
(dp2762
g1190
(lp2763
S'-'
aS'-'
aS'-'
asg1192
I00
sbag1
(g1281
g3
(lp2764
g720
ag172
ag185
ag242
atRp2765
(dp2766
g1190
(lp2767
S'-'
aS'-'
aS'-'
asg1192
I00
sbag1
(g1281
g3
(lp2768
g679
ag185
ag242
ag254
atRp2769
(dp2770
g1190
(lp2771
S'-'
aS'-'
aS'-'
asg1192
I00
sbag1
(g1281
g3
(lp2772
g818
ag5
ag264
ag254
atRp2773
(dp2774
g1190
(lp2775
S'-'
aS'-'
aS'-'
asg1192
I00
sbag1
(g1281
g3
(lp2776
g836
ag5
ag264
ag254
atRp2777
(dp2778
g1190
(lp2779
S'-'
aS'-'
aS'-'
asg1192
I00
sbag1
(g1281
g3
(lp2780
g720
ag172
ag264
ag254
atRp2781
(dp2782
g1190
(lp2783
S'-'
aS'-'
aS'-'
asg1192
I00
sbag1
(g1281
g3
(lp2784
g679
ag185
ag242
ag341
atRp2785
(dp2786
g1190
(lp2787
S'-'
aS'-'
aS'-'
asg1192
I00
sbag1
(g1281
g3
(lp2788
g645
ag242
ag341
ag448
atRp2789
(dp2790
g1190
(lp2791
S'-'
aS'-'
aS'-'
asg1192
I00
sbag1
(g1281
g3
(lp2792
g460
ag448
ag436
ag426
atRp2793
(dp2794
g1190
(lp2795
S'-'
aS'='
aS'-'
asg1192
I01
sg1193
F180
sbag1
(g1281
g3
(lp2796
g519
ag386
ag398
ag426
atRp2797
(dp2798
g1190
(lp2799
S'-'
aS'-'
aS'-'
asg1192
I01
sg1193
F180
sbag1
(g1281
g3
(lp2800
g645
ag242
ag341
ag352
atRp2801
(dp2802
g1190
(lp2803
S'-'
aS'-'
aS'-'
asg1192
I00
sbag1
(g1281
g3
(lp2804
g460
ag448
ag341
ag352
atRp2805
(dp2806
g1190
(lp2807
S'-'
aS'-'
aS'-'
asg1192
I00
sbag1
(g1281
g3
(lp2808
g519
ag386
ag374
ag362
atRp2809
(dp2810
g1190
(lp2811
S'-'
aS'-'
aS'='
asg1192
I01
sg1193
F180
sbag1
(g1281
g3
(lp2812
g564
ag546
ag374
ag362
atRp2813
(dp2814
g1190
(lp2815
S'-'
aS'-'
aS'='
asg1192
I00
sbag1
(g1281
g3
(lp2816
g582
ag546
ag374
ag362
atRp2817
(dp2818
g1190
(lp2819
S'-'
aS'-'
aS'='
asg1192
I00
sbag1
(g1281
g3
(lp2820
g564
ag546
ag374
ag386
atRp2821
(dp2822
g1190
(lp2823
S'-'
aS'-'
aS'-'
asg1192
I00
sbag1
(g1281
g3
(lp2824
g582
ag546
ag374
ag386
atRp2825
(dp2826
g1190
(lp2827
S'-'
aS'-'
aS'-'
asg1192
I00
sbag1
(g1281
g3
(lp2828
g519
ag386
ag398
ag408
atRp2829
(dp2830
g1190
(lp2831
S'-'
aS'-'
aS'='
asg1192
I00
sbag1
(g1281
g3
(lp2832
g519
ag386
ag374
ag546
atRp2833
(dp2834
g1190
(lp2835
S'-'
aS'-'
aS'-'
asg1192
I00
sbag1
(g1281
g3
(lp2836
g645
ag242
ag185
ag197
atRp2837
(dp2838
g1190
(lp2839
S'-'
aS'-'
aS'-'
asg1192
I00
sbag1
(g1281
g3
(lp2840
g720
ag172
ag185
ag197
atRp2841
(dp2842
g1190
(lp2843
S'-'
aS'-'
aS'-'
asg1192
I00
sbag1
(g1281
g3
(lp2844
g274
ag264
ag172
ag53
atRp2845
(dp2846
g1190
(lp2847
S'-'
aS'-'
aS'-'
asg1192
I00
sbag1
(g1281
g3
(lp2848
g679
ag185
ag172
ag53
atRp2849
(dp2850
g1190
(lp2851
S'-'
aS'-'
aS'-'
asg1192
I00
sbag1
(g1281
g3
(lp2852
g122
ag78
ag65
ag53
atRp2853
(dp2854
g1190
(lp2855
S'-'
aS'-'
aS'-'
asg1192
I00
sbag1
(g1281
g3
(lp2856
g720
ag172
ag53
ag65
atRp2857
(dp2858
g1190
(lp2859
S'-'
aS'-'
aS'-'
asg1192
I00
sbag1
(g1281
g3
(lp2860
g818
ag5
ag34
ag65
atRp2861
(dp2862
g1190
(lp2863
S'-'
aS'-'
aS'-'
asg1192
I00
sbag1
(g1281
g3
(lp2864
g836
ag5
ag34
ag65
atRp2865
(dp2866
g1190
(lp2867
S'-'
aS'-'
aS'-'
asg1192
I00
sbag1
(g1281
g3
(lp2868
g122
ag78
ag65
ag43
atRp2869
(dp2870
g1190
(lp2871
S'-'
aS'-'
aS'='
asg1192
I00
sbag1
(g1281
g3
(lp2872
g122
ag78
ag65
ag34
atRp2873
(dp2874
g1190
(lp2875
S'-'
aS'-'
aS'-'
asg1192
I00
sbag1
(g1281
g3
(lp2876
g274
ag264
ag5
ag34
atRp2877
(dp2878
g1190
(lp2879
S'-'
aS'-'
aS'-'
asg1192
I00
sbag1
(g1281
g3
(lp2880
g274
ag264
ag5
ag818
atRp2881
(dp2882
g1190
(lp2883
S'-'
aS'-'
aS'-'
asg1192
I00
sbag1
(g1281
g3
(lp2884
g274
ag264
ag5
ag836
atRp2885
(dp2886
g1190
(lp2887
S'-'
aS'-'
aS'-'
asg1192
I00
sbag1
(g1281
g3
(lp2888
g720
ag172
ag264
ag274
atRp2889
(dp2890
g1190
(lp2891
S'-'
aS'-'
aS'-'
asg1192
I00
sbag1
(g1281
g3
(lp2892
g679
ag185
ag172
ag720
atRp2893
(dp2894
g1190
(lp2895
S'-'
aS'-'
aS'-'
asg1192
I00
sbag1
(g1281
g3
(lp2896
g645
ag242
ag185
ag679
atRp2897
(dp2898
g1190
(lp2899
S'-'
aS'-'
aS'-'
asg1192
I00
sbag1
(g1281
g3
(lp2900
g222
ag197
ag185
ag679
atRp2901
(dp2902
g1190
(lp2903
S'-'
aS'-'
aS'-'
asg1192
I00
sbatRp2904
sS'auto_bond_cutoff'
p2905
F3.8024999999999998
sg974
I01
sS'CIFWeights'
p2906
(dp2907
g979
F3
sg1016
F30
sS'outer_ring'
p2908
F0.050000000000000003
sS'amine'
p2909
F0.10000000000000001
sS'peptide'
p2910
F0.10000000000000001
sS'inner_ring'
p2911
F0.02
sg980
F0.02
ssS'last'
p2912
g122
sg102
g1154
sS'amine_class'
p2913
g1
(g1279
g3
(ltRp2914
(dp2915
g1288
g1
(g1289
g1163
(dtRp2916
(dp2917
g1292
Nsg1293
(dp2918
sg1295
I00
sg1296
(lp2919
sg1298
(dp2920
sbsg1300
(lp2921
sbsS'G_md5'
p2922
S'b58ebf4b573bf36c7f66c95fc6e5c0e9'
p2923
sS'files_written'
p2924
g1
(celbow.utilities.Utilities
PushFilename
p2925
g3
(lp2926
S'/home/adrmercurio/XtaLab/phenix-1.17.1-3660/eLBOW_4/elbow.001.pdb'
p2927
aS'/home/adrmercurio/XtaLab/phenix-1.17.1-3660/eLBOW_4/elbow.001.cif'
p2928
atRp2929
sg1009
I01
sS'azide_class'
p2930
g1
(g1279
g3
(ltRp2931
(dp2932
g1288
g1
(g1289
g1163
(dtRp2933
(dp2934
g1292
Nsg1293
(dp2935
sg1295
I00
sg1296
(lp2936
sg1298
(dp2937
sbsg1300
(lp2938
sbsS'SubUnitEnergies'
p2939
(dp2940
(I7
I5
I0
tp2941
F331.34721704900954
s(I7
I5
I310
tp2942
F332.4528405770144
s(I7
I5
I270
tp2943
F334.25916639902107
s(I7
I5
I290
tp2944
F333.3612495841009
s(I7
I5
I180
tp2945
F332.99678116228324
s(I7
I5
I70
tp2946
F331.58597748978588
s(I7
I5
I250
tp2947
F334.66285595111907
s(I7
I5
I140
tp2948
F332.08028522126835
s(I7
I5
I30
tp2949
F331.3238105185286
s(I7
I5
I160
tp2950
F332.45199998592352
s(I7
I5
I50
tp2951
F331.43161778755859
s(I7
I5
I120
tp2952
F331.84739394307451
s(I7
I5
I10
tp2953
F331.30348726753658
s(I7
I5
I340
tp2954
F331.59342440284485
s(I7
I5
I230
tp2955
F334.52644281409573
s(I7
I5
I300
tp2956
F332.88082861193828
s(I7
I5
I190
tp2957
F333.34399140149486
s(I7
I5
I320
tp2958
F332.09528307671621
s(I7
I5
I210
tp2959
F334.08008869764268
s(I7
I5
I100
tp2960
F331.7328955071502
s(I7
I5
I280
tp2961
F333.84477359717283
s(I7
I5
I170
tp2962
F332.69941885737762
s(I7
I5
I60
tp2963
F331.50745449546599
s(I7
I5
I80
tp2964
F331.65130857123324
s(I7
I5
I40
tp2965
F331.36910850114106
s(I7
I5
I350
tp2966
F331.44115191715667
s(I7
I5
I260
tp2967
F334.54348089122334
s(I7
I5
I150
tp2968
F332.24764901568727
s(I7
I5
I330
tp2969
F331.80991693370925
s(I7
I5
I220
tp2970
F334.35174317791865
s(I7
I5
I110
tp2971
F331.7784085396338
s(I7
I5
I240
tp2972
F334.63665461255118
s(I7
I5
I130
tp2973
F331.94718821365484
s(I7
I5
I20
tp2974
F331.29934411332158
s(I7
I5
I200
tp2975
F333.72206389020118
s(I7
I5
I90
tp2976
F331.69665385254632
ssS'ALT_dihedrals'
p2977
g1
(g1666
g3
(lp2978
g1
(g1281
g3
(lp2979
g185
ag172
ag264
ag5
atRp2980
(dp2981
g1190
(lp2982
S'-'
aS'-'
aS'-'
asg1192
I00
sbag1
(g1281
g3
(lp2983
g53
ag172
ag264
ag5
atRp2984
(dp2985
g1190
(lp2986
S'-'
aS'-'
aS'-'
asg1192
I00
sbag1
(g1281
g3
(lp2987
g242
ag254
ag264
ag5
atRp2988
(dp2989
g1190
(lp2990
S'-'
aS'-'
aS'-'
asg1192
I00
sbag1
(g1281
g3
(lp2991
g53
ag65
ag34
ag5
atRp2992
(dp2993
g1190
(lp2994
S'-'
aS'-'
aS'-'
asg1192
I00
sbag1
(g1281
g3
(lp2995
g43
ag65
ag34
ag5
atRp2996
(dp2997
g1190
(lp2998
S'='
aS'-'
aS'-'
asg1192
I00
sbag1
(g1281
g3
(lp2999
g78
ag65
ag34
ag5
atRp3000
(dp3001
g1190
(lp3002
S'-'
aS'-'
aS'-'
asg1192
I00
sbag1
(g1281
g3
(lp3003
g65
ag34
ag5
ag264
atRp3004
(dp3005
g1190
(lp3006
S'-'
aS'-'
aS'-'
asg1192
I00
sbag1
(g1281
g3
(lp3007
g242
ag185
ag172
ag264
atRp3008
(dp3009
g1190
(lp3010
S'-'
aS'-'
aS'-'
asg1192
I00
sbag1
(g1281
g3
(lp3011
g197
ag185
ag172
ag264
atRp3012
(dp3013
g1190
(lp3014
S'-'
aS'-'
aS'-'
asg1192
I00
sbag1
(g1281
g3
(lp3015
g65
ag53
ag172
ag264
atRp3016
(dp3017
g1190
(lp3018
S'-'
aS'-'
aS'-'
asg1192
I00
sbag1
(g1281
g3
(lp3019
g341
ag242
ag254
ag264
atRp3020
(dp3021
g1190
(lp3022
S'-'
aS'-'
aS'-'
asg1192
I00
sbag1
(g1281
g3
(lp3023
g185
ag242
ag254
ag264
atRp3024
(dp3025
g1190
(lp3026
S'-'
aS'-'
aS'-'
asg1192
I00
sbag1
(g1281
g3
(lp3027
g34
ag5
ag264
ag172
atRp3028
(dp3029
g1190
(lp3030
S'-'
aS'-'
aS'-'
asg1192
I00
sbag1
(g1281
g3
(lp3031
g242
ag254
ag264
ag172
atRp3032
(dp3033
g1190
(lp3034
S'-'
aS'-'
aS'-'
asg1192
I00
sbag1
(g1281
g3
(lp3035
g254
ag242
ag185
ag172
atRp3036
(dp3037
g1190
(lp3038
S'-'
aS'-'
aS'-'
asg1192
I00
sbag1
(g1281
g3
(lp3039
g341
ag242
ag185
ag172
atRp3040
(dp3041
g1190
(lp3042
S'-'
aS'-'
aS'-'
asg1192
I00
sbag1
(g1281
g3
(lp3043
g43
ag65
ag53
ag172
atRp3044
(dp3045
g1190
(lp3046
S'='
aS'-'
aS'-'
asg1192
I00
sbag1
(g1281
g3
(lp3047
g34
ag65
ag53
ag172
atRp3048
(dp3049
g1190
(lp3050
S'-'
aS'-'
aS'-'
asg1192
I00
sbag1
(g1281
g3
(lp3051
g78
ag65
ag53
ag172
atRp3052
(dp3053
g1190
(lp3054
S'-'
aS'-'
aS'-'
asg1192
I00
sbag1
(g1281
g3
(lp3055
g264
ag254
ag242
ag185
atRp3056
(dp3057
g1190
(lp3058
S'-'
aS'-'
aS'-'
asg1192
I00
sbag1
(g1281
g3
(lp3059
g448
ag341
ag242
ag185
atRp3060
(dp3061
g1190
(lp3062
S'-'
aS'-'
aS'-'
asg1192
I00
sbag1
(g1281
g3
(lp3063
g352
ag341
ag242
ag185
atRp3064
(dp3065
g1190
(lp3066
S'-'
aS'-'
aS'-'
asg1192
I00
sbag1
(g1281
g3
(lp3067
g5
ag264
ag172
ag185
atRp3068
(dp3069
g1190
(lp3070
S'-'
aS'-'
aS'-'
asg1192
I00
sbag1
(g1281
g3
(lp3071
g254
ag264
ag172
ag185
atRp3072
(dp3073
g1190
(lp3074
S'-'
aS'-'
aS'-'
asg1192
I00
sbag1
(g1281
g3
(lp3075
g65
ag53
ag172
ag185
atRp3076
(dp3077
g1190
(lp3078
S'-'
aS'-'
aS'-'
asg1192
I00
sbag1
(g1281
g3
(lp3079
g5
ag264
ag254
ag242
atRp3080
(dp3081
g1190
(lp3082
S'-'
aS'-'
aS'-'
asg1192
I00
sbag1
(g1281
g3
(lp3083
g172
ag264
ag254
ag242
atRp3084
(dp3085
g1190
(lp3086
S'-'
aS'-'
aS'-'
asg1192
I00
sbag1
(g1281
g3
(lp3087
g436
ag448
ag341
ag242
atRp3088
(dp3089
g1190
(lp3090
S'='
aS'-'
aS'-'
asg1192
I00
sbag1
(g1281
g3
(lp3091
g426
ag352
ag341
ag242
atRp3092
(dp3093
g1190
(lp3094
S'='
aS'-'
aS'-'
asg1192
I00
sbag1
(g1281
g3
(lp3095
g362
ag352
ag341
ag242
atRp3096
(dp3097
g1190
(lp3098
S'-'
aS'-'
aS'-'
asg1192
I00
sbag1
(g1281
g3
(lp3099
g264
ag172
ag185
ag242
atRp3100
(dp3101
g1190
(lp3102
S'-'
aS'-'
aS'-'
asg1192
I00
sbag1
(g1281
g3
(lp3103
g53
ag172
ag185
ag242
atRp3104
(dp3105
g1190
(lp3106
S'-'
aS'-'
aS'-'
asg1192
I00
sbag1
(g1281
g3
(lp3107
g448
ag341
ag242
ag254
atRp3108
(dp3109
g1190
(lp3110
S'-'
aS'-'
aS'-'
asg1192
I00
sbag1
(g1281
g3
(lp3111
g352
ag341
ag242
ag254
atRp3112
(dp3113
g1190
(lp3114
S'-'
aS'-'
aS'-'
asg1192
I00
sbag1
(g1281
g3
(lp3115
g197
ag185
ag242
ag254
atRp3116
(dp3117
g1190
(lp3118
S'-'
aS'-'
aS'-'
asg1192
I00
sbag1
(g1281
g3
(lp3119
g172
ag185
ag242
ag254
atRp3120
(dp3121
g1190
(lp3122
S'-'
aS'-'
aS'-'
asg1192
I00
sbag1
(g1281
g3
(lp3123
g34
ag5
ag264
ag254
atRp3124
(dp3125
g1190
(lp3126
S'-'
aS'-'
aS'-'
asg1192
I00
sbag1
(g1281
g3
(lp3127
g185
ag172
ag264
ag254
atRp3128
(dp3129
g1190
(lp3130
S'-'
aS'-'
aS'-'
asg1192
I00
sbag1
(g1281
g3
(lp3131
g53
ag172
ag264
ag254
atRp3132
(dp3133
g1190
(lp3134
S'-'
aS'-'
aS'-'
asg1192
I00
sbag1
(g1281
g3
(lp3135
g264
ag254
ag242
ag341
atRp3136
(dp3137
g1190
(lp3138
S'-'
aS'-'
aS'-'
asg1192
I00
sbag1
(g1281
g3
(lp3139
g197
ag185
ag242
ag341
atRp3140
(dp3141
g1190
(lp3142
S'-'
aS'-'
aS'-'
asg1192
I00
sbag1
(g1281
g3
(lp3143
g172
ag185
ag242
ag341
atRp3144
(dp3145
g1190
(lp3146
S'-'
aS'-'
aS'-'
asg1192
I00
sbag1
(g1281
g3
(lp3147
g426
ag436
ag448
ag341
atRp3148
(dp3149
g1190
(lp3150
S'-'
aS'='
aS'-'
asg1192
I00
sbag1
(g1281
g3
(lp3151
g436
ag426
ag352
ag341
atRp3152
(dp3153
g1190
(lp3154
S'-'
aS'='
aS'-'
asg1192
I00
sbag1
(g1281
g3
(lp3155
g398
ag426
ag352
ag341
atRp3156
(dp3157
g1190
(lp3158
S'-'
aS'='
aS'-'
asg1192
I00
sbag1
(g1281
g3
(lp3159
g374
ag362
ag352
ag341
atRp3160
(dp3161
g1190
(lp3162
S'='
aS'-'
aS'-'
asg1192
I00
sbag1
(g1281
g3
(lp3163
g254
ag242
ag341
ag448
atRp3164
(dp3165
g1190
(lp3166
S'-'
aS'-'
aS'-'
asg1192
I00
sbag1
(g1281
g3
(lp3167
g185
ag242
ag341
ag448
atRp3168
(dp3169
g1190
(lp3170
S'-'
aS'-'
aS'-'
asg1192
I00
sbag1
(g1281
g3
(lp3171
g426
ag352
ag341
ag448
atRp3172
(dp3173
g1190
(lp3174
S'='
aS'-'
aS'-'
asg1192
I00
sbag1
(g1281
g3
(lp3175
g362
ag352
ag341
ag448
atRp3176
(dp3177
g1190
(lp3178
S'-'
aS'-'
aS'-'
asg1192
I00
sbag1
(g1281
g3
(lp3179
g352
ag426
ag436
ag448
atRp3180
(dp3181
g1190
(lp3182
S'='
aS'-'
aS'='
asg1192
I00
sbag1
(g1281
g3
(lp3183
g398
ag426
ag436
ag448
atRp3184
(dp3185
g1190
(lp3186
S'-'
aS'-'
aS'='
asg1192
I00
sbag1
(g1281
g3
(lp3187
g242
ag341
ag448
ag436
atRp3188
(dp3189
g1190
(lp3190
S'-'
aS'-'
aS'='
asg1192
I00
sbag1
(g1281
g3
(lp3191
g352
ag341
ag448
ag436
atRp3192
(dp3193
g1190
(lp3194
S'-'
aS'-'
aS'='
asg1192
I00
sbag1
(g1281
g3
(lp3195
g362
ag352
ag426
ag436
atRp3196
(dp3197
g1190
(lp3198
S'-'
aS'='
aS'-'
asg1192
I00
sbag1
(g1281
g3
(lp3199
g341
ag352
ag426
ag436
atRp3200
(dp3201
g1190
(lp3202
S'-'
aS'='
aS'-'
asg1192
I00
sbag1
(g1281
g3
(lp3203
g386
ag398
ag426
ag436
atRp3204
(dp3205
g1190
(lp3206
S'-'
aS'-'
aS'-'
asg1192
I00
sbag1
(g1281
g3
(lp3207
g408
ag398
ag426
ag436
atRp3208
(dp3209
g1190
(lp3210
S'='
aS'-'
aS'-'
asg1192
I00
sbag1
(g1281
g3
(lp3211
g341
ag448
ag436
ag426
atRp3212
(dp3213
g1190
(lp3214
S'-'
aS'='
aS'-'
asg1192
I00
sbag1
(g1281
g3
(lp3215
g374
ag362
ag352
ag426
atRp3216
(dp3217
g1190
(lp3218
S'='
aS'-'
aS'='
asg1192
I00
sbag1
(g1281
g3
(lp3219
g242
ag341
ag352
ag426
atRp3220
(dp3221
g1190
(lp3222
S'-'
aS'-'
aS'='
asg1192
I00
sbag1
(g1281
g3
(lp3223
g448
ag341
ag352
ag426
atRp3224
(dp3225
g1190
(lp3226
S'-'
aS'-'
aS'='
asg1192
I00
sbag1
(g1281
g3
(lp3227
g374
ag386
ag398
ag426
atRp3228
(dp3229
g1190
(lp3230
S'-'
aS'-'
aS'-'
asg1192
I00
sbag1
(g1281
g3
(lp3231
g448
ag436
ag426
ag352
atRp3232
(dp3233
g1190
(lp3234
S'='
aS'-'
aS'='
asg1192
I00
sbag1
(g1281
g3
(lp3235
g386
ag398
ag426
ag352
atRp3236
(dp3237
g1190
(lp3238
S'-'
aS'-'
aS'='
asg1192
I00
sbag1
(g1281
g3
(lp3239
g408
ag398
ag426
ag352
atRp3240
(dp3241
g1190
(lp3242
S'='
aS'-'
aS'='
asg1192
I00
sbag1
(g1281
g3
(lp3243
g386
ag374
ag362
ag352
atRp3244
(dp3245
g1190
(lp3246
S'-'
aS'='
aS'-'
asg1192
I00
sbag1
(g1281
g3
(lp3247
g546
ag374
ag362
ag352
atRp3248
(dp3249
g1190
(lp3250
S'-'
aS'='
aS'-'
asg1192
I00
sbag1
(g1281
g3
(lp3251
g254
ag242
ag341
ag352
atRp3252
(dp3253
g1190
(lp3254
S'-'
aS'-'
aS'-'
asg1192
I00
sbag1
(g1281
g3
(lp3255
g185
ag242
ag341
ag352
atRp3256
(dp3257
g1190
(lp3258
S'-'
aS'-'
aS'-'
asg1192
I00
sbag1
(g1281
g3
(lp3259
g436
ag448
ag341
ag352
atRp3260
(dp3261
g1190
(lp3262
S'='
aS'-'
aS'-'
asg1192
I00
sbag1
(g1281
g3
(lp3263
g436
ag426
ag352
ag362
atRp3264
(dp3265
g1190
(lp3266
S'-'
aS'='
aS'-'
asg1192
I00
sbag1
(g1281
g3
(lp3267
g398
ag426
ag352
ag362
atRp3268
(dp3269
g1190
(lp3270
S'-'
aS'='
aS'-'
asg1192
I00
sbag1
(g1281
g3
(lp3271
g242
ag341
ag352
ag362
atRp3272
(dp3273
g1190
(lp3274
S'-'
aS'-'
aS'-'
asg1192
I00
sbag1
(g1281
g3
(lp3275
g448
ag341
ag352
ag362
atRp3276
(dp3277
g1190
(lp3278
S'-'
aS'-'
aS'-'
asg1192
I00
sbag1
(g1281
g3
(lp3279
g398
ag386
ag374
ag362
atRp3280
(dp3281
g1190
(lp3282
S'-'
aS'-'
aS'='
asg1192
I00
sbag1
(g1281
g3
(lp3283
g426
ag352
ag362
ag374
atRp3284
(dp3285
g1190
(lp3286
S'='
aS'-'
aS'='
asg1192
I00
sbag1
(g1281
g3
(lp3287
g341
ag352
ag362
ag374
atRp3288
(dp3289
g1190
(lp3290
S'-'
aS'-'
aS'='
asg1192
I00
sbag1
(g1281
g3
(lp3291
g408
ag398
ag386
ag374
atRp3292
(dp3293
g1190
(lp3294
S'='
aS'-'
aS'-'
asg1192
I00
sbag1
(g1281
g3
(lp3295
g426
ag398
ag386
ag374
atRp3296
(dp3297
g1190
(lp3298
S'-'
aS'-'
aS'-'
asg1192
I00
sbag1
(g1281
g3
(lp3299
g436
ag426
ag398
ag386
atRp3300
(dp3301
g1190
(lp3302
S'-'
aS'-'
aS'-'
asg1192
I00
sbag1
(g1281
g3
(lp3303
g352
ag426
ag398
ag386
atRp3304
(dp3305
g1190
(lp3306
S'='
aS'-'
aS'-'
asg1192
I00
sbag1
(g1281
g3
(lp3307
g352
ag362
ag374
ag386
atRp3308
(dp3309
g1190
(lp3310
S'-'
aS'='
aS'-'
asg1192
I00
sbag1
(g1281
g3
(lp3311
g362
ag374
ag386
ag398
atRp3312
(dp3313
g1190
(lp3314
S'='
aS'-'
aS'-'
asg1192
I00
sbag1
(g1281
g3
(lp3315
g546
ag374
ag386
ag398
atRp3316
(dp3317
g1190
(lp3318
S'-'
aS'-'
aS'-'
asg1192
I00
sbag1
(g1281
g3
(lp3319
g448
ag436
ag426
ag398
atRp3320
(dp3321
g1190
(lp3322
S'='
aS'-'
aS'-'
asg1192
I00
sbag1
(g1281
g3
(lp3323
g362
ag352
ag426
ag398
atRp3324
(dp3325
g1190
(lp3326
S'-'
aS'='
aS'-'
asg1192
I00
sbag1
(g1281
g3
(lp3327
g341
ag352
ag426
ag398
atRp3328
(dp3329
g1190
(lp3330
S'-'
aS'='
aS'-'
asg1192
I00
sbag1
(g1281
g3
(lp3331
g374
ag386
ag398
ag408
atRp3332
(dp3333
g1190
(lp3334
S'-'
aS'-'
aS'='
asg1192
I00
sbag1
(g1281
g3
(lp3335
g436
ag426
ag398
ag408
atRp3336
(dp3337
g1190
(lp3338
S'-'
aS'-'
aS'='
asg1192
I00
sbag1
(g1281
g3
(lp3339
g352
ag426
ag398
ag408
atRp3340
(dp3341
g1190
(lp3342
S'='
aS'-'
aS'='
asg1192
I00
sbag1
(g1281
g3
(lp3343
g352
ag362
ag374
ag546
atRp3344
(dp3345
g1190
(lp3346
S'-'
aS'='
aS'-'
asg1192
I00
sbag1
(g1281
g3
(lp3347
g398
ag386
ag374
ag546
atRp3348
(dp3349
g1190
(lp3350
S'-'
aS'-'
aS'-'
asg1192
I00
sbag1
(g1281
g3
(lp3351
g254
ag242
ag185
ag197
atRp3352
(dp3353
g1190
(lp3354
S'-'
aS'-'
aS'-'
asg1192
I00
sbag1
(g1281
g3
(lp3355
g341
ag242
ag185
ag197
atRp3356
(dp3357
g1190
(lp3358
S'-'
aS'-'
aS'-'
asg1192
I00
sbag1
(g1281
g3
(lp3359
g264
ag172
ag185
ag197
atRp3360
(dp3361
g1190
(lp3362
S'-'
aS'-'
aS'-'
asg1192
I00
sbag1
(g1281
g3
(lp3363
g53
ag172
ag185
ag197
atRp3364
(dp3365
g1190
(lp3366
S'-'
aS'-'
aS'-'
asg1192
I00
sbag1
(g1281
g3
(lp3367
g5
ag264
ag172
ag53
atRp3368
(dp3369
g1190
(lp3370
S'-'
aS'-'
aS'-'
asg1192
I00
sbag1
(g1281
g3
(lp3371
g254
ag264
ag172
ag53
atRp3372
(dp3373
g1190
(lp3374
S'-'
aS'-'
aS'-'
asg1192
I00
sbag1
(g1281
g3
(lp3375
g242
ag185
ag172
ag53
atRp3376
(dp3377
g1190
(lp3378
S'-'
aS'-'
aS'-'
asg1192
I00
sbag1
(g1281
g3
(lp3379
g197
ag185
ag172
ag53
atRp3380
(dp3381
g1190
(lp3382
S'-'
aS'-'
aS'-'
asg1192
I00
sbag1
(g1281
g3
(lp3383
g5
ag34
ag65
ag53
atRp3384
(dp3385
g1190
(lp3386
S'-'
aS'-'
aS'-'
asg1192
I00
sbag1
(g1281
g3
(lp3387
g264
ag172
ag53
ag65
atRp3388
(dp3389
g1190
(lp3390
S'-'
aS'-'
aS'-'
asg1192
I00
sbag1
(g1281
g3
(lp3391
g185
ag172
ag53
ag65
atRp3392
(dp3393
g1190
(lp3394
S'-'
aS'-'
aS'-'
asg1192
I00
sbag1
(g1281
g3
(lp3395
g264
ag5
ag34
ag65
atRp3396
(dp3397
g1190
(lp3398
S'-'
aS'-'
aS'-'
asg1192
I00
sbag1
(g1281
g3
(lp3399
g172
ag53
ag65
ag43
atRp3400
(dp3401
g1190
(lp3402
S'-'
aS'-'
aS'='
asg1192
I00
sbag1
(g1281
g3
(lp3403
g5
ag34
ag65
ag43
atRp3404
(dp3405
g1190
(lp3406
S'-'
aS'-'
aS'='
asg1192
I00
sbag1
(g1281
g3
(lp3407
g172
ag53
ag65
ag34
atRp3408
(dp3409
g1190
(lp3410
S'-'
aS'-'
aS'-'
asg1192
I00
sbag1
(g1281
g3
(lp3411
g172
ag264
ag5
ag34
atRp3412
(dp3413
g1190
(lp3414
S'-'
aS'-'
aS'-'
asg1192
I00
sbag1
(g1281
g3
(lp3415
g254
ag264
ag5
ag34
atRp3416
(dp3417
g1190
(lp3418
S'-'
aS'-'
aS'-'
asg1192
I00
sbag1
(g1281
g3
(lp3419
g172
ag53
ag65
ag78
atRp3420
(dp3421
g1190
(lp3422
S'-'
aS'-'
aS'-'
asg1192
I00
sbag1
(g1281
g3
(lp3423
g5
ag34
ag65
ag78
atRp3424
(dp3425
g1190
(lp3426
S'-'
aS'-'
aS'-'
asg1192
I00
sbag1
(g1281
g3
(lp3427
g172
ag264
ag5
ag818
atRp3428
(dp3429
g1190
(lp3430
S'-'
aS'-'
aS'-'
asg1192
I00
sbag1
(g1281
g3
(lp3431
g254
ag264
ag5
ag818
atRp3432
(dp3433
g1190
(lp3434
S'-'
aS'-'
aS'-'
asg1192
I00
sbag1
(g1281
g3
(lp3435
g65
ag34
ag5
ag818
atRp3436
(dp3437
g1190
(lp3438
S'-'
aS'-'
aS'-'
asg1192
I00
sbag1
(g1281
g3
(lp3439
g172
ag264
ag5
ag836
atRp3440
(dp3441
g1190
(lp3442
S'-'
aS'-'
aS'-'
asg1192
I00
sbag1
(g1281
g3
(lp3443
g254
ag264
ag5
ag836
atRp3444
(dp3445
g1190
(lp3446
S'-'
aS'-'
aS'-'
asg1192
I00
sbag1
(g1281
g3
(lp3447
g65
ag34
ag5
ag836
atRp3448
(dp3449
g1190
(lp3450
S'-'
aS'-'
aS'-'
asg1192
I00
sbag1
(g1281
g3
(lp3451
g34
ag5
ag264
ag274
atRp3452
(dp3453
g1190
(lp3454
S'-'
aS'-'
aS'-'
asg1192
I00
sbag1
(g1281
g3
(lp3455
g818
ag5
ag264
ag274
atRp3456
(dp3457
g1190
(lp3458
S'-'
aS'-'
aS'-'
asg1192
I00
sbag1
(g1281
g3
(lp3459
g836
ag5
ag264
ag274
atRp3460
(dp3461
g1190
(lp3462
S'-'
aS'-'
aS'-'
asg1192
I00
sbag1
(g1281
g3
(lp3463
g185
ag172
ag264
ag274
atRp3464
(dp3465
g1190
(lp3466
S'-'
aS'-'
aS'-'
asg1192
I00
sbag1
(g1281
g3
(lp3467
g53
ag172
ag264
ag274
atRp3468
(dp3469
g1190
(lp3470
S'-'
aS'-'
aS'-'
asg1192
I00
sbag1
(g1281
g3
(lp3471
g242
ag254
ag264
ag274
atRp3472
(dp3473
g1190
(lp3474
S'-'
aS'-'
aS'-'
asg1192
I00
sbag1
(g1281
g3
(lp3475
g5
ag264
ag172
ag720
atRp3476
(dp3477
g1190
(lp3478
S'-'
aS'-'
aS'-'
asg1192
I00
sbag1
(g1281
g3
(lp3479
g254
ag264
ag172
ag720
atRp3480
(dp3481
g1190
(lp3482
S'-'
aS'-'
aS'-'
asg1192
I00
sbag1
(g1281
g3
(lp3483
g274
ag264
ag172
ag720
atRp3484
(dp3485
g1190
(lp3486
S'-'
aS'-'
aS'-'
asg1192
I00
sbag1
(g1281
g3
(lp3487
g242
ag185
ag172
ag720
atRp3488
(dp3489
g1190
(lp3490
S'-'
aS'-'
aS'-'
asg1192
I00
sbag1
(g1281
g3
(lp3491
g197
ag185
ag172
ag720
atRp3492
(dp3493
g1190
(lp3494
S'-'
aS'-'
aS'-'
asg1192
I00
sbag1
(g1281
g3
(lp3495
g65
ag53
ag172
ag720
atRp3496
(dp3497
g1190
(lp3498
S'-'
aS'-'
aS'-'
asg1192
I00
sbag1
(g1281
g3
(lp3499
g254
ag242
ag185
ag679
atRp3500
(dp3501
g1190
(lp3502
S'-'
aS'-'
aS'-'
asg1192
I00
sbag1
(g1281
g3
(lp3503
g341
ag242
ag185
ag679
atRp3504
(dp3505
g1190
(lp3506
S'-'
aS'-'
aS'-'
asg1192
I00
sbag1
(g1281
g3
(lp3507
g264
ag172
ag185
ag679
atRp3508
(dp3509
g1190
(lp3510
S'-'
aS'-'
aS'-'
asg1192
I00
sbag1
(g1281
g3
(lp3511
g53
ag172
ag185
ag679
atRp3512
(dp3513
g1190
(lp3514
S'-'
aS'-'
aS'-'
asg1192
I00
sbag1
(g1281
g3
(lp3515
g720
ag172
ag185
ag679
atRp3516
(dp3517
g1190
(lp3518
S'-'
aS'-'
aS'-'
asg1192
I00
sbag1
(g1281
g3
(lp3519
g264
ag254
ag242
ag645
atRp3520
(dp3521
g1190
(lp3522
S'-'
aS'-'
aS'-'
asg1192
I00
sbag1
(g1281
g3
(lp3523
g448
ag341
ag242
ag645
atRp3524
(dp3525
g1190
(lp3526
S'-'
aS'-'
aS'-'
asg1192
I00
sbag1
(g1281
g3
(lp3527
g352
ag341
ag242
ag645
atRp3528
(dp3529
g1190
(lp3530
S'-'
aS'-'
aS'-'
asg1192
I00
sbag1
(g1281
g3
(lp3531
g197
ag185
ag242
ag645
atRp3532
(dp3533
g1190
(lp3534
S'-'
aS'-'
aS'-'
asg1192
I00
sbag1
(g1281
g3
(lp3535
g172
ag185
ag242
ag645
atRp3536
(dp3537
g1190
(lp3538
S'-'
aS'-'
aS'-'
asg1192
I00
sbag1
(g1281
g3
(lp3539
g679
ag185
ag242
ag645
atRp3540
(dp3541
g1190
(lp3542
S'-'
aS'-'
aS'-'
asg1192
I00
sbag1
(g1281
g3
(lp3543
g242
ag341
ag448
ag460
atRp3544
(dp3545
g1190
(lp3546
S'-'
aS'-'
aS'-'
asg1192
I00
sbag1
(g1281
g3
(lp3547
g352
ag341
ag448
ag460
atRp3548
(dp3549
g1190
(lp3550
S'-'
aS'-'
aS'-'
asg1192
I00
sbag1
(g1281
g3
(lp3551
g426
ag436
ag448
ag460
atRp3552
(dp3553
g1190
(lp3554
S'-'
aS'='
aS'-'
asg1192
I00
sbag1
(g1281
g3
(lp3555
g408
ag398
ag386
ag519
atRp3556
(dp3557
g1190
(lp3558
S'='
aS'-'
aS'-'
asg1192
I00
sbag1
(g1281
g3
(lp3559
g426
ag398
ag386
ag519
atRp3560
(dp3561
g1190
(lp3562
S'-'
aS'-'
aS'-'
asg1192
I00
sbag1
(g1281
g3
(lp3563
g362
ag374
ag386
ag519
atRp3564
(dp3565
g1190
(lp3566
S'='
aS'-'
aS'-'
asg1192
I00
sbag1
(g1281
g3
(lp3567
g546
ag374
ag386
ag519
atRp3568
(dp3569
g1190
(lp3570
S'-'
aS'-'
aS'-'
asg1192
I00
sbag1
(g1281
g3
(lp3571
g362
ag374
ag546
ag564
atRp3572
(dp3573
g1190
(lp3574
S'='
aS'-'
aS'-'
asg1192
I00
sbag1
(g1281
g3
(lp3575
g386
ag374
ag546
ag564
atRp3576
(dp3577
g1190
(lp3578
S'-'
aS'-'
aS'-'
asg1192
I00
sbag1
(g1281
g3
(lp3579
g362
ag374
ag546
ag582
atRp3580
(dp3581
g1190
(lp3582
S'='
aS'-'
aS'-'
asg1192
I00
sbag1
(g1281
g3
(lp3583
g386
ag374
ag546
ag582
atRp3584
(dp3585
g1190
(lp3586
S'-'
aS'-'
aS'-'
asg1192
I00
sbag1
(g1281
g3
(lp3587
g242
ag185
ag197
ag222
atRp3588
(dp3589
g1190
(lp3590
S'-'
aS'-'
aS'-'
asg1192
I00
sbag1
(g1281
g3
(lp3591
g172
ag185
ag197
ag222
atRp3592
(dp3593
g1190
(lp3594
S'-'
aS'-'
aS'-'
asg1192
I00
sbag1
(g1281
g3
(lp3595
g679
ag185
ag197
ag222
atRp3596
(dp3597
g1190
(lp3598
S'-'
aS'-'
aS'-'
asg1192
I00
sbag1
(g1281
g3
(lp3599
g53
ag65
ag78
ag122
atRp3600
(dp3601
g1190
(lp3602
S'-'
aS'-'
aS'-'
asg1192
I00
sbag1
(g1281
g3
(lp3603
g43
ag65
ag78
ag122
atRp3604
(dp3605
g1190
(lp3606
S'='
aS'-'
aS'-'
asg1192
I00
sbag1
(g1281
g3
(lp3607
g34
ag65
ag78
ag122
atRp3608
(dp3609
g1190
(lp3610
S'-'
aS'-'
aS'-'
asg1192
I00
sbatRp3611
sS'ALT_angles'
p3612
g1
(g1666
g3
(lp3613
g1
(g1186
g3
(lp3614
g172
ag264
ag5
atRp3615
(dp3616
g1190
(lp3617
S'-'
aS'-'
asg1192
I00
sbag1
(g1186
g3
(lp3618
g254
ag264
ag5
atRp3619
(dp3620
g1190
(lp3621
S'-'
aS'-'
asg1192
I00
sbag1
(g1186
g3
(lp3622
g65
ag34
ag5
atRp3623
(dp3624
g1190
(lp3625
S'-'
aS'-'
asg1192
I00
sbag1
(g1186
g3
(lp3626
g34
ag5
ag264
atRp3627
(dp3628
g1190
(lp3629
S'-'
aS'-'
asg1192
I00
sbag1
(g1186
g3
(lp3630
g185
ag172
ag264
atRp3631
(dp3632
g1190
(lp3633
S'-'
aS'-'
asg1192
I00
sbag1
(g1186
g3
(lp3634
g53
ag172
ag264
atRp3635
(dp3636
g1190
(lp3637
S'-'
aS'-'
asg1192
I00
sbag1
(g1186
g3
(lp3638
g242
ag254
ag264
atRp3639
(dp3640
g1190
(lp3641
S'-'
aS'-'
asg1192
I00
sbag1
(g1186
g3
(lp3642
g5
ag264
ag172
atRp3643
(dp3644
g1190
(lp3645
S'-'
aS'-'
asg1192
I00
sbag1
(g1186
g3
(lp3646
g254
ag264
ag172
atRp3647
(dp3648
g1190
(lp3649
S'-'
aS'-'
asg1192
I00
sbag1
(g1186
g3
(lp3650
g242
ag185
ag172
atRp3651
(dp3652
g1190
(lp3653
S'-'
aS'-'
asg1192
I00
sbag1
(g1186
g3
(lp3654
g197
ag185
ag172
atRp3655
(dp3656
g1190
(lp3657
S'-'
aS'-'
asg1192
I00
sbag1
(g1186
g3
(lp3658
g65
ag53
ag172
atRp3659
(dp3660
g1190
(lp3661
S'-'
aS'-'
asg1192
I00
sbag1
(g1186
g3
(lp3662
g254
ag242
ag185
atRp3663
(dp3664
g1190
(lp3665
S'-'
aS'-'
asg1192
I00
sbag1
(g1186
g3
(lp3666
g341
ag242
ag185
atRp3667
(dp3668
g1190
(lp3669
S'-'
aS'-'
asg1192
I00
sbag1
(g1186
g3
(lp3670
g264
ag172
ag185
atRp3671
(dp3672
g1190
(lp3673
S'-'
aS'-'
asg1192
I00
sbag1
(g1186
g3
(lp3674
g53
ag172
ag185
atRp3675
(dp3676
g1190
(lp3677
S'-'
aS'-'
asg1192
I00
sbag1
(g1186
g3
(lp3678
g264
ag254
ag242
atRp3679
(dp3680
g1190
(lp3681
S'-'
aS'-'
asg1192
I00
sbag1
(g1186
g3
(lp3682
g448
ag341
ag242
atRp3683
(dp3684
g1190
(lp3685
S'-'
aS'-'
asg1192
I00
sbag1
(g1186
g3
(lp3686
g352
ag341
ag242
atRp3687
(dp3688
g1190
(lp3689
S'-'
aS'-'
asg1192
I00
sbag1
(g1186
g3
(lp3690
g197
ag185
ag242
atRp3691
(dp3692
g1190
(lp3693
S'-'
aS'-'
asg1192
I00
sbag1
(g1186
g3
(lp3694
g172
ag185
ag242
atRp3695
(dp3696
g1190
(lp3697
S'-'
aS'-'
asg1192
I00
sbag1
(g1186
g3
(lp3698
g341
ag242
ag254
atRp3699
(dp3700
g1190
(lp3701
S'-'
aS'-'
asg1192
I00
sbag1
(g1186
g3
(lp3702
g185
ag242
ag254
atRp3703
(dp3704
g1190
(lp3705
S'-'
aS'-'
asg1192
I00
sbag1
(g1186
g3
(lp3706
g5
ag264
ag254
atRp3707
(dp3708
g1190
(lp3709
S'-'
aS'-'
asg1192
I00
sbag1
(g1186
g3
(lp3710
g172
ag264
ag254
atRp3711
(dp3712
g1190
(lp3713
S'-'
aS'-'
asg1192
I00
sbag1
(g1186
g3
(lp3714
g254
ag242
ag341
atRp3715
(dp3716
g1190
(lp3717
S'-'
aS'-'
asg1192
I00
sbag1
(g1186
g3
(lp3718
g185
ag242
ag341
atRp3719
(dp3720
g1190
(lp3721
S'-'
aS'-'
asg1192
I00
sbag1
(g1186
g3
(lp3722
g436
ag448
ag341
atRp3723
(dp3724
g1190
(lp3725
S'='
aS'-'
asg1192
I00
sbag1
(g1186
g3
(lp3726
g426
ag352
ag341
atRp3727
(dp3728
g1190
(lp3729
S'='
aS'-'
asg1192
I00
sbag1
(g1186
g3
(lp3730
g362
ag352
ag341
atRp3731
(dp3732
g1190
(lp3733
S'-'
aS'-'
asg1192
I00
sbag1
(g1186
g3
(lp3734
g242
ag341
ag448
atRp3735
(dp3736
g1190
(lp3737
S'-'
aS'-'
asg1192
I00
sbag1
(g1186
g3
(lp3738
g352
ag341
ag448
atRp3739
(dp3740
g1190
(lp3741
S'-'
aS'-'
asg1192
I00
sbag1
(g1186
g3
(lp3742
g426
ag436
ag448
atRp3743
(dp3744
g1190
(lp3745
S'-'
aS'='
asg1192
I00
sbag1
(g1186
g3
(lp3746
g341
ag448
ag436
atRp3747
(dp3748
g1190
(lp3749
S'-'
aS'='
asg1192
I00
sbag1
(g1186
g3
(lp3750
g352
ag426
ag436
atRp3751
(dp3752
g1190
(lp3753
S'='
aS'-'
asg1192
I00
sbag1
(g1186
g3
(lp3754
g398
ag426
ag436
atRp3755
(dp3756
g1190
(lp3757
S'-'
aS'-'
asg1192
I00
sbag1
(g1186
g3
(lp3758
g448
ag436
ag426
atRp3759
(dp3760
g1190
(lp3761
S'='
aS'-'
asg1192
I00
sbag1
(g1186
g3
(lp3762
g362
ag352
ag426
atRp3763
(dp3764
g1190
(lp3765
S'-'
aS'='
asg1192
I00
sbag1
(g1186
g3
(lp3766
g341
ag352
ag426
atRp3767
(dp3768
g1190
(lp3769
S'-'
aS'='
asg1192
I00
sbag1
(g1186
g3
(lp3770
g386
ag398
ag426
atRp3771
(dp3772
g1190
(lp3773
S'-'
aS'-'
asg1192
I00
sbag1
(g1186
g3
(lp3774
g408
ag398
ag426
atRp3775
(dp3776
g1190
(lp3777
S'='
aS'-'
asg1192
I00
sbag1
(g1186
g3
(lp3778
g436
ag426
ag352
atRp3779
(dp3780
g1190
(lp3781
S'-'
aS'='
asg1192
I00
sbag1
(g1186
g3
(lp3782
g398
ag426
ag352
atRp3783
(dp3784
g1190
(lp3785
S'-'
aS'='
asg1192
I00
sbag1
(g1186
g3
(lp3786
g374
ag362
ag352
atRp3787
(dp3788
g1190
(lp3789
S'='
aS'-'
asg1192
I00
sbag1
(g1186
g3
(lp3790
g242
ag341
ag352
atRp3791
(dp3792
g1190
(lp3793
S'-'
aS'-'
asg1192
I00
sbag1
(g1186
g3
(lp3794
g448
ag341
ag352
atRp3795
(dp3796
g1190
(lp3797
S'-'
aS'-'
asg1192
I00
sbag1
(g1186
g3
(lp3798
g426
ag352
ag362
atRp3799
(dp3800
g1190
(lp3801
S'='
aS'-'
asg1192
I00
sbag1
(g1186
g3
(lp3802
g341
ag352
ag362
atRp3803
(dp3804
g1190
(lp3805
S'-'
aS'-'
asg1192
I00
sbag1
(g1186
g3
(lp3806
g386
ag374
ag362
atRp3807
(dp3808
g1190
(lp3809
S'-'
aS'='
asg1192
I00
sbag1
(g1186
g3
(lp3810
g546
ag374
ag362
atRp3811
(dp3812
g1190
(lp3813
S'-'
aS'='
asg1192
I00
sbag1
(g1186
g3
(lp3814
g352
ag362
ag374
atRp3815
(dp3816
g1190
(lp3817
S'-'
aS'='
asg1192
I00
sbag1
(g1186
g3
(lp3818
g398
ag386
ag374
atRp3819
(dp3820
g1190
(lp3821
S'-'
aS'-'
asg1192
I00
sbag1
(g1186
g3
(lp3822
g408
ag398
ag386
atRp3823
(dp3824
g1190
(lp3825
S'='
aS'-'
asg1192
I00
sbag1
(g1186
g3
(lp3826
g426
ag398
ag386
atRp3827
(dp3828
g1190
(lp3829
S'-'
aS'-'
asg1192
I00
sbag1
(g1186
g3
(lp3830
g362
ag374
ag386
atRp3831
(dp3832
g1190
(lp3833
S'='
aS'-'
asg1192
I00
sbag1
(g1186
g3
(lp3834
g546
ag374
ag386
atRp3835
(dp3836
g1190
(lp3837
S'-'
aS'-'
asg1192
I00
sbag1
(g1186
g3
(lp3838
g374
ag386
ag398
atRp3839
(dp3840
g1190
(lp3841
S'-'
aS'-'
asg1192
I00
sbag1
(g1186
g3
(lp3842
g436
ag426
ag398
atRp3843
(dp3844
g1190
(lp3845
S'-'
aS'-'
asg1192
I00
sbag1
(g1186
g3
(lp3846
g352
ag426
ag398
atRp3847
(dp3848
g1190
(lp3849
S'='
aS'-'
asg1192
I00
sbag1
(g1186
g3
(lp3850
g386
ag398
ag408
atRp3851
(dp3852
g1190
(lp3853
S'-'
aS'='
asg1192
I00
sbag1
(g1186
g3
(lp3854
g426
ag398
ag408
atRp3855
(dp3856
g1190
(lp3857
S'-'
aS'='
asg1192
I00
sbag1
(g1186
g3
(lp3858
g362
ag374
ag546
atRp3859
(dp3860
g1190
(lp3861
S'='
aS'-'
asg1192
I00
sbag1
(g1186
g3
(lp3862
g386
ag374
ag546
atRp3863
(dp3864
g1190
(lp3865
S'-'
aS'-'
asg1192
I00
sbag1
(g1186
g3
(lp3866
g242
ag185
ag197
atRp3867
(dp3868
g1190
(lp3869
S'-'
aS'-'
asg1192
I00
sbag1
(g1186
g3
(lp3870
g172
ag185
ag197
atRp3871
(dp3872
g1190
(lp3873
S'-'
aS'-'
asg1192
I00
sbag1
(g1186
g3
(lp3874
g264
ag172
ag53
atRp3875
(dp3876
g1190
(lp3877
S'-'
aS'-'
asg1192
I00
sbag1
(g1186
g3
(lp3878
g185
ag172
ag53
atRp3879
(dp3880
g1190
(lp3881
S'-'
aS'-'
asg1192
I00
sbag1
(g1186
g3
(lp3882
g43
ag65
ag53
atRp3883
(dp3884
g1190
(lp3885
S'='
aS'-'
asg1192
I00
sbag1
(g1186
g3
(lp3886
g34
ag65
ag53
atRp3887
(dp3888
g1190
(lp3889
S'-'
aS'-'
asg1192
I00
sbag1
(g1186
g3
(lp3890
g78
ag65
ag53
atRp3891
(dp3892
g1190
(lp3893
S'-'
aS'-'
asg1192
I00
sbag1
(g1186
g3
(lp3894
g172
ag53
ag65
atRp3895
(dp3896
g1190
(lp3897
S'-'
aS'-'
asg1192
I00
sbag1
(g1186
g3
(lp3898
g5
ag34
ag65
atRp3899
(dp3900
g1190
(lp3901
S'-'
aS'-'
asg1192
I00
sbag1
(g1186
g3
(lp3902
g53
ag65
ag43
atRp3903
(dp3904
g1190
(lp3905
S'-'
aS'='
asg1192
I00
sbag1
(g1186
g3
(lp3906
g34
ag65
ag43
atRp3907
(dp3908
g1190
(lp3909
S'-'
aS'='
asg1192
I00
sbag1
(g1186
g3
(lp3910
g78
ag65
ag43
atRp3911
(dp3912
g1190
(lp3913
S'-'
aS'='
asg1192
I00
sbag1
(g1186
g3
(lp3914
g53
ag65
ag34
atRp3915
(dp3916
g1190
(lp3917
S'-'
aS'-'
asg1192
I00
sbag1
(g1186
g3
(lp3918
g43
ag65
ag34
atRp3919
(dp3920
g1190
(lp3921
S'='
aS'-'
asg1192
I00
sbag1
(g1186
g3
(lp3922
g78
ag65
ag34
atRp3923
(dp3924
g1190
(lp3925
S'-'
aS'-'
asg1192
I00
sbag1
(g1186
g3
(lp3926
g264
ag5
ag34
atRp3927
(dp3928
g1190
(lp3929
S'-'
aS'-'
asg1192
I00
sbag1
(g1186
g3
(lp3930
g53
ag65
ag78
atRp3931
(dp3932
g1190
(lp3933
S'-'
aS'-'
asg1192
I00
sbag1
(g1186
g3
(lp3934
g43
ag65
ag78
atRp3935
(dp3936
g1190
(lp3937
S'='
aS'-'
asg1192
I00
sbag1
(g1186
g3
(lp3938
g34
ag65
ag78
atRp3939
(dp3940
g1190
(lp3941
S'-'
aS'-'
asg1192
I00
sbag1
(g1186
g3
(lp3942
g264
ag5
ag818
atRp3943
(dp3944
g1190
(lp3945
S'-'
aS'-'
asg1192
I00
sbag1
(g1186
g3
(lp3946
g34
ag5
ag818
atRp3947
(dp3948
g1190
(lp3949
S'-'
aS'-'
asg1192
I00
sbag1
(g1186
g3
(lp3950
g264
ag5
ag836
atRp3951
(dp3952
g1190
(lp3953
S'-'
aS'-'
asg1192
I00
sbag1
(g1186
g3
(lp3954
g34
ag5
ag836
atRp3955
(dp3956
g1190
(lp3957
S'-'
aS'-'
asg1192
I00
sbag1
(g1186
g3
(lp3958
g818
ag5
ag836
atRp3959
(dp3960
g1190
(lp3961
S'-'
aS'-'
asg1192
I00
sbag1
(g1186
g3
(lp3962
g5
ag264
ag274
atRp3963
(dp3964
g1190
(lp3965
S'-'
aS'-'
asg1192
I00
sbag1
(g1186
g3
(lp3966
g172
ag264
ag274
atRp3967
(dp3968
g1190
(lp3969
S'-'
aS'-'
asg1192
I00
sbag1
(g1186
g3
(lp3970
g254
ag264
ag274
atRp3971
(dp3972
g1190
(lp3973
S'-'
aS'-'
asg1192
I00
sbag1
(g1186
g3
(lp3974
g264
ag172
ag720
atRp3975
(dp3976
g1190
(lp3977
S'-'
aS'-'
asg1192
I00
sbag1
(g1186
g3
(lp3978
g185
ag172
ag720
atRp3979
(dp3980
g1190
(lp3981
S'-'
aS'-'
asg1192
I00
sbag1
(g1186
g3
(lp3982
g53
ag172
ag720
atRp3983
(dp3984
g1190
(lp3985
S'-'
aS'-'
asg1192
I00
sbag1
(g1186
g3
(lp3986
g242
ag185
ag679
atRp3987
(dp3988
g1190
(lp3989
S'-'
aS'-'
asg1192
I00
sbag1
(g1186
g3
(lp3990
g197
ag185
ag679
atRp3991
(dp3992
g1190
(lp3993
S'-'
aS'-'
asg1192
I00
sbag1
(g1186
g3
(lp3994
g172
ag185
ag679
atRp3995
(dp3996
g1190
(lp3997
S'-'
aS'-'
asg1192
I00
sbag1
(g1186
g3
(lp3998
g254
ag242
ag645
atRp3999
(dp4000
g1190
(lp4001
S'-'
aS'-'
asg1192
I00
sbag1
(g1186
g3
(lp4002
g341
ag242
ag645
atRp4003
(dp4004
g1190
(lp4005
S'-'
aS'-'
asg1192
I00
sbag1
(g1186
g3
(lp4006
g185
ag242
ag645
atRp4007
(dp4008
g1190
(lp4009
S'-'
aS'-'
asg1192
I00
sbag1
(g1186
g3
(lp4010
g341
ag448
ag460
atRp4011
(dp4012
g1190
(lp4013
S'-'
aS'-'
asg1192
I00
sbag1
(g1186
g3
(lp4014
g436
ag448
ag460
atRp4015
(dp4016
g1190
(lp4017
S'='
aS'-'
asg1192
I00
sbag1
(g1186
g3
(lp4018
g398
ag386
ag519
atRp4019
(dp4020
g1190
(lp4021
S'-'
aS'-'
asg1192
I00
sbag1
(g1186
g3
(lp4022
g374
ag386
ag519
atRp4023
(dp4024
g1190
(lp4025
S'-'
aS'-'
asg1192
I00
sbag1
(g1186
g3
(lp4026
g374
ag546
ag564
atRp4027
(dp4028
g1190
(lp4029
S'-'
aS'-'
asg1192
I00
sbag1
(g1186
g3
(lp4030
g374
ag546
ag582
atRp4031
(dp4032
g1190
(lp4033
S'-'
aS'-'
asg1192
I00
sbag1
(g1186
g3
(lp4034
g564
ag546
ag582
atRp4035
(dp4036
g1190
(lp4037
S'-'
aS'-'
asg1192
I00
sbag1
(g1186
g3
(lp4038
g185
ag197
ag222
atRp4039
(dp4040
g1190
(lp4041
S'-'
aS'-'
asg1192
I00
sbag1
(g1186
g3
(lp4042
g65
ag78
ag122
atRp4043
(dp4044
g1190
(lp4045
S'-'
aS'-'
asg1192
I00
sbatRp4046
sS'temp_cif'
p4047
S'/tmp/tmpd_mILw'
p4048
sS'zmatrix_class'
p4049
g1
(g1616
g3
(lp4050
g1620
ag1631
ag1635
ag1639
ag1643
ag1647
ag1651
ag1655
ag1659
ag2267
ag2271
ag2275
ag2279
ag2283
ag2287
ag2291
ag2295
ag2299
ag1
(g1618
g3
(lp4051
g408
ag398
aF1.1862384221140667
ag426
aF120.00997932318147
ag436
aF1.1571224312398374
atRp4052
(dp4053
g1625
I2
sg1626
I6
sg1623
I01
sg1627
(lp4054
I00
aI00
aI00
asg1629
I00
sg1624
I4
sg1193
F1.1862384221140667
sbag1
(g1618
g3
(lp4055
g546
ag374
aF1.4558643115701699
ag362
aF120.00053062134617
ag352
aF-177.24471747679826
atRp4056
(dp4057
g1625
I2
sg1626
I6
sg1623
I01
sg1627
(lp4058
I00
aI00
aI00
asg1629
I00
sg1624
I4
sg1193
F1.4558643115701699
sbag1
(g1618
g3
(lp4059
g197
ag185
aF1.4065692153824649
ag172
aF110.11603596373837
ag264
aF-156.28972059541542
atRp4060
(dp4061
g1625
I2
sg1626
I6
sg1623
I01
sg1627
(lp4062
I00
aI00
aI00
asg1629
I00
sg1624
I4
sg1193
F1.4065692153824649
sbag1
(g1618
g3
(lp4063
g43
ag65
aF1.4644448151108695
ag53
aF109.80663806395057
ag172
aF172.52337471665979
atRp4064
(dp4065
g1625
I2
sg1626
I6
sg1623
I01
sg1627
(lp4066
I00
aI00
aI00
asg1629
I00
sg1624
I4
sg1193
F1.4644448151108695
sbag1
(g1618
g3
(lp4067
g78
ag65
aF1.649782313205238
ag53
aF109.83429398956669
ag172
aF-66.118397980102671
atRp4068
(dp4069
g1625
I2
sg1626
I6
sg1623
I01
sg1627
(lp4070
I00
aI00
aI00
asg1629
I00
sg1624
I4
sg1193
F1.649782313205238
sbag1
(g1618
g3
(lp4071
g818
ag5
aF1.0833090000000001
ag264
aF108.75356774844823
ag172
aF-174.32332283472005
atRp4072
(dp4073
g1625
I2
sg1626
I6
sg1623
I01
sg1627
(lp4074
I00
aI00
aI01
asg1629
I00
sg1624
I4
sg1193
F1.0833090000000001
sbag1
(g1618
g3
(lp4075
g836
ag5
aF1.0833090000000001
ag264
aF108.76374704438186
ag172
aF66.925069529810401
atRp4076
(dp4077
g1625
I2
sg1626
I6
sg1623
I01
sg1627
(lp4078
I00
aI00
aI01
asg1629
I00
sg1624
I4
sg1193
F1.0833090000000001
sbag1
(g1618
g3
(lp4079
g274
ag264
aF1.0833090000000001
ag5
aF112.94403074706813
ag34
aF76.397791405639865
atRp4080
(dp4081
g1625
I2
sg1626
I6
sg1623
I01
sg1627
(lp4082
I00
aI00
aI01
asg1629
I00
sg1624
I4
sg1193
F1.0833090000000001
sbag1
(g1618
g3
(lp4083
g720
ag172
aF1.0833090000000001
ag264
aF106.73263300661547
ag5
aF168.71574277747797
atRp4084
(dp4085
g1625
I2
sg1626
I6
sg1623
I01
sg1627
(lp4086
I00
aI00
aI01
asg1629
I00
sg1624
I4
sg1193
F1.0833090000000001
sbag1
(g1618
g3
(lp4087
g679
ag185
aF1.0833090000000001
ag172
aF110.12164941265664
ag264
aF81.5532191283706
atRp4088
(dp4089
g1625
I2
sg1626
I6
sg1623
I01
sg1627
(lp4090
I00
aI00
aI01
asg1629
I00
sg1624
I4
sg1193
F1.0833090000000001
sbag1
(g1618
g3
(lp4091
g645
ag242
aF1.0833090000000001
ag185
aF109.08013573171567
ag172
aF-89.231849093363593
atRp4092
(dp4093
g1625
I2
sg1626
I6
sg1623
I01
sg1627
(lp4094
I00
aI00
aI01
asg1629
I00
sg1624
I4
sg1193
F1.0833090000000001
sbag1
(g1618
g3
(lp4095
g460
ag448
aF1.0833090000000001
ag341
aF125.97392318358629
ag242
aF-4.0378221819518183
atRp4096
(dp4097
g1625
I2
sg1626
I6
sg1623
I01
sg1627
(lp4098
I00
aI00
aI01
asg1629
I00
sg1624
I4
sg1193
F1.0833090000000001
sbag1
(g1618
g3
(lp4099
g519
ag386
aF1.0008300000000001
ag374
aF120.01586009011194
ag362
aF-180
atRp4100
(dp4101
g1625
I2
sg1626
I6
sg1623
I01
sg1627
(lp4102
I00
aI00
aI01
asg1629
I00
sg1624
I4
sg1193
F1.0008300000000001
sbag1
(g1618
g3
(lp4103
g564
ag546
aF1.0008300000000001
ag374
aF120.00140029337686
ag362
aF-179.87069225598628
atRp4104
(dp4105
g1625
I2
sg1626
I6
sg1623
I01
sg1627
(lp4106
I00
aI00
aI01
asg1629
I00
sg1624
I4
sg1193
F1.0008300000000001
sbag1
(g1618
g3
(lp4107
g582
ag546
aF1.0008300000000001
ag374
aF120.00030711112724
ag362
aF-0.050364527084798057
atRp4108
(dp4109
g1625
I2
sg1626
I6
sg1623
I01
sg1627
(lp4110
I00
aI00
aI01
asg1629
I00
sg1624
I4
sg1193
F1.0008300000000001
sbag1
(g1618
g3
(lp4111
g222
ag197
aF0.94288300000000003
ag185
aF109.47938880837111
ag172
aF-115.2874606954599
atRp4112
(dp4113
g1625
I2
sg1626
I6
sg1623
I01
sg1627
(lp4114
I00
aI00
aI01
asg1629
I00
sg1624
I4
sg1193
F0.94288300000000003
sbag1
(g1618
g3
(lp4115
g122
ag78
aF0.94288300000000003
ag65
aF109.47513578875227
ag53
aF-133.76646519782449
atRp4116
(dp4117
g1625
I2
sg1626
I6
sg1623
I01
sg1627
(lp4118
I00
aI00
aI01
asg1629
I00
sg1624
I4
sg1193
F0.94288300000000003
sbatRp4119
(dp4120
g974
I01
sg975
g1303
sg1664
g872
sg1665
g1787
sg1009
I01
sg1788
(lp4121
g5
ag264
ag172
ag185
ag242
ag254
ag53
ag65
ag34
ag341
ag448
ag436
ag426
ag352
ag362
ag374
ag386
ag398
ag408
ag546
ag197
ag43
ag78
ag818
ag836
ag274
ag720
ag679
ag645
ag460
ag519
ag564
ag582
ag222
ag122
asg1627
(dp4122
I32
(lp4123
I6
asI33
(lp4124
I6
asI34
(lp4125
I6
asI23
(lp4126
I6
asI24
(lp4127
I6
asI25
(lp4128
I6
asI26
(lp4129
I6
asI27
(lp4130
I6
asI28
(lp4131
I6
asI29
(lp4132
I6
asI30
(lp4133
I6
asI31
(lp4134
I6
assg1288
(dp4135
sg1873
g2715
sg2041
I01
sg2042
g2904
sbsS'small_planar_class'
p4136
g1
(g1279
g3
(lp4137
(lp4138
g374
ag362
ag352
ag374
ag386
ag398
ag374
ag519
ag546
ag374
ag564
ag582
aa(lp4139
g386
ag398
ag374
ag519
ag408
ag426
aa(lp4140
g398
ag386
ag408
ag426
aatRp4141
(dp4142
g1288
g1
(g1289
g1163
(dtRp4143
(dp4144
g1292
Nsg1293
(dp4145
sg1295
I00
sg1296
(lp4146
sg1298
(dp4147
sbsg1300
(lp4148
I0
aI0
aI0
aI0
aI0
aI0
aI0
asbsS'unequil_angles'
p4149
(lp4150
g1880
ag1924
ag1928
ag1932
ag1936
ag1944
asS'bonds_md5'
p4151
S'bdcc64020eda33f2343d3302179abc68'
p4152
sg1288
g1
(g1289
g1163
(dp4153
I1
(F-5.6217573715223876
F0.89993421931084938
F-10.432641479283859
tp4154
sI2
(F-4.0910937410848689
F0.47839010922846664
F-10.250881596106879
tp4155
sI3
(F-3.5414947732853332
F0.92848489714294313
F-9.0497192422832988
tp4156
sI4
(F-3.2153761470223836
F2.4734924289100531
F-9.2822037614426822
tp4157
sI5
(F-2.7750173975842474
F2.5695203571626188
F-10.585017903501365
tp4158
sI6
(F-3.4736896923996516
F1.3771392421928743
F-11.353070447101778
tp4159
sI7
(F-3.1404975288987709
F3.6668696516331298
F-11.493659063924264
tp4160
sI8
(F-3.6493331891235812
F4.8706566350957878
F-11.122962166705948
tp4161
sI9
(F-3.7360667620281882
F5.6529316668669205
F-12.235708280149423
tp4162
sI10
(F-3.2845072565602398
F4.9378464360980336
F-13.28424762354385
tp4163
sI11
(F-2.9133355722471519
F3.7008979475984694
F-12.823607102967067
tp4164
sI12
(F-2.2863982590865013
F2.7139177589581798
F-13.754196948098119
tp4165
sI13
(F-2.1539919693388137
F3.0304614238139687
F-15.1777665064103
tp4166
sI14
(F-2.5478930702478708
F4.3258588427389979
F-15.666965251512019
tp4167
sI15
(F-3.1051293063814116
F5.2886591209284752
F-14.768865873068716
tp4168
sI16
(F-3.372086134610242
F6.3770761489632042
F-15.157766913239248
tp4169
sI17
(F-1.598093050418137
F2.045025974815001
F-16.093972957764311
tp4170
s(I19
I3
I2
I1
tp4171
(lp4172
F55
aF1
aI1
ag1341
asI19
(F-4.3368146265768068
F0.55303946920026603
F-7.9029772226669195
tp4173
sI20
(F-5.8677874588864967
F1.0375039926392353
F-8.0239572998030155
tp4174
sI21
(F-6.6543948530745114
F0.4758914392693695
F-6.9237578797835218
tp4175
sI22
(F-6.4064276683901165
F0.51969780964887258
F-9.3661311928219426
tp4176
sI23
(F-5.9376496929934195
F2.6854882251183505
F-7.9915702852657384
tp4177
sI24
(F2.2797765372003402
F89.70789450403926
F-16.694633443010041
tp4178
sI25
(F-102.50035092516561
F-94.749179591713428
F-47.741765912040833
tp4179
sI26
(F-53.768983772570245
F-46.653753599311528
F-60.277999118060869
tp4180
sI27
(F51.341196642623252
F-29.263383013729879
F-28.402118907727541
tp4181
sI28
(F74.71204739000342
F-51.884148135301068
F-9.406463034864597
tp4182
sI29
(F6.5806745618375242
F59.739425498438301
F-61.987518010951341
tp4183
sI30
(F-15.930386331648734
F-39.489746685377916
F-70.924045971785588
tp4184
sI31
(F7.0903210582937195
F20.3363825174787
F-51.818166790035399
tp4185
sI32
(F-98.659704363477118
F38.08757090393631
F-55.151617562096021
tp4186
sI33
(F-85.780245214515929
F-73.572012702621805
F37.631421486006104
tp4187
sI34
(F-67.11452934699156
F35.549304060679226
F-15.721538806849917
tp4188
sI35
(F43.538598465281353
F-32.303655060241013
F56.901720344399564
tp4189
s(I20
I19
I3
I2
tp4190
(lp4191
F55
aF1
aI1
ag1341
as(I4
I19
tp4192
(lp4193
F4
aF10
aF1
as(I2
I1
I22
tp4194
(lp4195
F113
aF10
as(I9
I8
I7
tp4196
(lp4197
F108
aF1.5
as(I6
I5
I4
I3
tp4198
(lp4199
F25
aF1
aI10
ag1341
as(I2
I6
I5
tp4200
(lp4201
F106
aF10
as(I7
I12
tp4202
(lp4203
F4
aF10
aF1
as(I19
I3
tp4204
(lp4205
F1.398717
aF200
as(I24
I1
tp4206
(lp4207
F1.0833090000000001
aF100
as(I22
I20
I21
tp4208
(lp4209
F109.09999999999999
aF1
as(I29
I5
I4
tp4210
(lp4211
F109.09999999999999
aF1
as(I3
I2
tp4212
(lp4213
F1.527126
aF200
as(I2
I6
tp4214
(lp4215
F1.398717
aF200
as(I8
I7
I11
I10
tp4216
(lp4217
F0
aF10
aI0
as(I29
I5
I6
tp4218
(lp4219
F109.09999999999999
aF1
as(I3
I2
I6
tp4220
(lp4221
F106
aF10
as(I18
I4
tp4222
(lp4223
F1.398717
aF100
as(I7
I5
tp4224
(lp4225
F1.451533
aF100
as(I12
I11
tp4226
(lp4227
F1.451533
aF200
as(I19
I3
I2
tp4228
(lp4229
F113
aF10
as(I18
I4
I3
tp4230
(lp4231
F109.09999999999999
aF1
as(I17
I13
tp4232
(lp4233
F1.451533
aF100
as(I15
I14
tp4234
(lp4235
F1.451533
aF200
as(I22
I20
I19
tp4236
(F111
F0.75
tp4237
s(I18
I4
I5
tp4238
(lp4239
F109.09999999999999
aF1
as(I13
I12
I11
tp4240
(lp4241
F120
aF1.5
asI18
(F-2.2057228128605275
F2.8932529150656259
F-8.3974222987413398
tp4242
s(I2
I1
I22
I20
tp4243
(lp4244
F55
aF1
aI1
ag1341
as(I21
I20
I19
tp4245
(lp4246
F109.09999999999999
aF1
as(I25
I1
tp4247
(lp4248
F1.0833090000000001
aF100
as(I25
I1
I22
tp4249
(lp4250
F109.09999999999999
aF1
as(I4
I3
I2
tp4251
(lp4252
F106
aF10
as(I26
I2
tp4253
(lp4254
F1.0833090000000001
aF100
as(I14
I13
I12
tp4255
(lp4256
F120
aF1.5
as(I27
I3
I19
tp4257
(lp4258
F109.47122063449069
aF1
as(I11
I10
I9
tp4259
(lp4260
F108
aF1.5
as(I11
I10
tp4261
(lp4262
F1.385372
aF100
as(I24
I1
I22
tp4263
(lp4264
F109.09999999999999
aF1
as(I11
I10
I15
tp4265
(lp4266
F120
aF1.5
as(I7
I11
I10
I9
tp4267
(lp4268
F0
aF10
aI0
as(I27
I3
I2
tp4269
(lp4270
F109.47122063449069
aF1
as(I20
I19
I3
tp4271
(lp4272
F113
aF10
as(I2
I6
I5
I4
tp4273
(lp4274
F25
aF1
aI10
ag1341
as(I5
I4
I3
tp4275
(lp4276
F106
aF10
as(I1
I22
I20
tp4277
(lp4278
F113
aF10
as(I27
I3
I4
tp4279
(lp4280
F109.47122063449069
aF1
as(I10
I9
tp4281
(lp4282
F1.321345
aF100
as(I3
I2
I1
I22
tp4283
(lp4284
F55
aF1
aI1
ag1341
as(I5
I4
tp4285
(lp4286
F1.527126
aF200
as(I21
I20
tp4287
(lp4288
F1.4604889999999999
aF100
as(I5
I4
I3
I2
tp4289
(lp4290
F25
aF1
aI10
ag1341
as(I9
I15
tp4291
(lp4292
F4
aF10
aF1
as(I10
I15
I14
tp4293
(lp4294
F120
aF1.5
as(I6
I1
tp4295
(lp4296
F4
aF10
aF1
as(I23
I20
I19
tp4297
(lp4298
F109.09999999999999
aF1
as(I15
I14
I13
tp4299
(lp4300
F120
aF1.5
as(I23
I20
I21
tp4301
(lp4302
F109.47122063449069
aF1
as(I26
I2
I6
tp4303
(lp4304
F109.47122063449069
aF1
as(I9
I8
tp4305
(lp4306
F1.321345
aF100
as(I30
I8
tp4307
(lp4308
F1.0833090000000001
aF100
as(I10
I15
tp4309
(lp4310
F1.527126
aF200
as(I17
I13
I12
tp4311
(lp4312
F120
aF1
as(I30
I8
I9
tp4313
(lp4314
F126
aF1
as(I7
I11
tp4315
(lp4316
F1.321345
aF100
as(I17
I13
I14
tp4317
(lp4318
F120
aF1
as(I22
I20
tp4319
(lp4320
F1.6482159999999999
aF200
as(I13
I12
tp4321
(lp4322
F1.451533
aF200
as(I4
I3
I2
I6
tp4323
(lp4324
F25
aF1
aI10
ag1341
as(I33
I17
tp4325
(lp4326
F1.0008300000000001
aF100
as(I23
I20
I22
tp4327
(lp4328
F109.09999999999999
aF1
as(I32
I17
I13
tp4329
(lp4330
F120
aF1
as(I6
I5
I4
tp4331
(lp4332
F106
aF10
as(I10
I9
I8
tp4333
(lp4334
F108
aF1.5
as(I10
I9
I8
I7
tp4335
(lp4336
F0
aF10
aI0
as(I29
I5
I7
tp4337
(lp4338
F109.47122063449069
aF1
as(I3
I2
I1
tp4339
(lp4340
F113
aF10
as(I23
I20
tp4341
(lp4342
F1.6482159999999999
aF100
as(I2
I1
tp4343
(lp4344
F1.527126
aF200
as(I8
I7
tp4345
(lp4346
F1.321345
aF100
as(I6
I5
tp4347
(lp4348
F1.398717
aF200
as(I25
I1
I24
tp4349
(lp4350
F109.47122063449069
aF1
as(I14
I13
tp4351
(lp4352
F1.451533
aF200
as(I35
I23
tp4353
(lp4354
F0.94288300000000003
aF100
as(I11
I7
I5
tp4355
(lp4356
F125.96551096138037
aF1
as(I30
I8
I7
tp4357
(lp4358
F126
aF1
as(I28
I4
I18
tp4359
(lp4360
F109.47122063449069
aF1
as(I35
I23
I20
tp4361
(lp4362
F109.47122063449069
aF1
as(I7
I11
I10
tp4363
(lp4364
F108
aF1.5
as(I20
I19
tp4365
(lp4366
F1.6482159999999999
aF200
as(I27
I3
tp4367
(lp4368
F1.0833090000000001
aF100
as(I28
I4
tp4369
(lp4370
F1.0833090000000001
aF100
as(I16
I15
I10
tp4371
(lp4372
F120
aF1
as(I33
I17
I13
tp4373
(lp4374
F120
aF1
as(I24
I1
I2
tp4375
(lp4376
F109.09999999999999
aF1
as(I33
I17
I32
tp4377
(lp4378
F120
aF1
as(I31
I14
I15
tp4379
(lp4380
F120
aF1.5
as(I3
I2
I6
I5
tp4381
(lp4382
F25
aF1
aI10
ag1341
as(I31
I14
tp4383
(lp4384
F1.0008300000000001
aF100
as(I22
I20
I19
I3
tp4385
(lp4386
F55
aF1
aI1
ag1341
as(I28
I4
I5
tp4387
(lp4388
F109.09999999999999
aF1
as(I31
I14
I13
tp4389
(lp4390
F120
aF1.5
as(I8
I7
I5
tp4391
(lp4392
F125.96551096138037
aF1
as(I16
I15
tp4393
(lp4394
F1.184607
aF100
as(I31
I14
I13
I12
tp4395
(lp4396
F180
aF1
aI0
as(I11
I10
I9
I8
tp4397
(lp4398
F0
aF10
aI0
as(I1
I22
I20
I19
tp4399
(lp4400
F55
aF1
aI1
ag1341
as(I34
I18
I4
tp4401
(lp4402
F109.47122063449069
aF1
as(I9
I8
I7
I11
tp4403
(lp4404
F0
aF10
aI0
as(I32
I17
tp4405
(lp4406
F1.0008300000000001
aF100
as(I26
I2
I3
tp4407
(lp4408
F109.47122063449069
aF1
as(I1
I22
tp4409
(lp4410
F1.398717
aF200
as(I12
I11
I10
tp4411
(lp4412
F120
aF1.5
as(I16
I15
I14
tp4413
(lp4414
F120
aF1
as(I34
I18
tp4415
(lp4416
F0.94288300000000003
aF100
as(I8
I7
I11
tp4417
(lp4418
F108.06897807723924
aF2
as(I26
I2
I1
tp4419
(lp4420
F109.47122063449069
aF1
as(I4
I3
tp4421
(lp4422
F1.527126
aF200
as(I25
I1
I2
tp4423
(lp4424
F109.09999999999999
aF1
as(I29
I5
tp4425
(lp4426
F1.0833090000000001
aF100
as(I28
I4
I3
tp4427
(lp4428
F109.09999999999999
aF1
astRp4429
(dp4430
g1293
(dp4431
I1
I0
sI2
I1
sI3
I2
sI4
I3
sI5
I4
sI6
I5
sI7
I6
sI8
I7
sI9
I8
sI10
I9
sI11
I10
sI12
I11
sI13
I12
sI14
I13
sI15
I14
sI16
I15
sI17
I16
sI18
I17
sI19
I18
sI20
I19
sI21
I20
sI22
I21
sI23
I22
sI24
I23
sI25
I24
sI26
I25
sI27
I26
sI28
I27
sI29
I28
sI30
I29
sI31
I30
sI32
I31
sI33
I32
sI34
I33
sI35
I34
ssg1296
(lp4432
sS'planes'
p4433
(lp4434
(lp4435
g242
ag341
ag448
ag436
ag426
ag352
ag362
ag374
ag386
ag398
ag408
ag546
ag460
ag519
ag564
ag582
aasg1298
(dp4436
sg1292
NsS'plane_weights'
p4437
(lp4438
F0.20000000000000001
aF0.20000000000000001
aF0.20000000000000001
aF0.02
asg1295
I00
sbsg4433
(lp4439
sS'cctbx_energy_parameters'
p4440
(lp4441
F2
aF0.66666666666666663
aF1
aI1
a(I1
I1
I1
I1
tp4442
asg1010
I01
sS'planar_indices'
p4443
(dp4444
(I1
I19
I2
I20
I22
I3
tp4445
I00
s(I2
I3
I4
I5
I6
tp4446
I00
s(I10
I11
I12
I13
I14
I15
tp4447
I01
s(I10
I11
I7
I8
I9
tp4448
I01
ssb.