ccopy_reg
_reconstructor
p1
(celbow.chemistry.MoleculeClass
MoleculeClass
p2
c__builtin__
list
p3
(lp4
(ielbow.chemistry.AtomClass
AtomClass
p5
(dp6
S'tempFactor'
p7
F20
sS'tmp_id'
p8
I140669989715264
sS'pi_electrons'
p9
(I1
tp10
sS'starting_xyz'
p11
(ielbow.chemistry.xyzClass
xyzClass
p12
(dp13
S'dotProduct'
p14
I1
sS'angleScale'
p15
F57.295779513082323
sS'y'
F0
sS'x'
F1.526623378201341
sS'xyz'
p16
(F1.526623378201341
F0
F0
tp17
sS'z'
F0
sbsg16
(ielbow.chemistry.xyzClass
xyzClass
p18
(dp19
g14
I1
sg15
F57.295779513082323
sS'y'
F0.85320644878675678
sS'x'
F2.5702493097631556
sg16
(F2.5702493097631556
F0.85320644878675678
F0.68582847611898046
tp20
sS'z'
F0.68582847611898046
sbsS'pos'
p21
I0
sS'sign'
p22
S''
sS'ring_id'
p23
(lp24
sS'rotation_index'
p25
I0
sS'resName'
p26
S'LIG'
p27
sS'cif_name'
p28
S' C01'
p29
sS'serial'
p30
S'    1'
p31
sS'id'
p32
I140669989715264
sS'bonded'
p33
(lp34
(ielbow.chemistry.AtomClass
AtomClass
p35
(dp36
g9
g10
sg11
(ielbow.chemistry.xyzClass
xyzClass
p37
(dp38
g14
I1
sg15
F57.295779513082323
sS'y'
F0
sS'x'
F0
sg16
(F0
F0
F0
tp39
sS'z'
F0
sbsg16
(ielbow.chemistry.xyzClass
xyzClass
p40
(dp41
g14
I1
sg15
F57.295779513082323
sS'y'
F0.85320644878675678
sS'x'
F1.0436259315618146
sg16
(F1.0436259315618146
F0.85320644878675678
F0.68582847611898046
tp42
sS'z'
F0.68582847611898046
sbsg21
I2
sg23
(lp43
sg25
I1
sS'hydrogenised'
p44
I01
sS'occupancy'
p45
F1
sS'charge'
p46
I0
sS'input_index'
p47
I1
sS'smiles_index'
p48
(lp49
I2
asS'unique_residue_key_altloc'
p50
S'LIG:1:A:???'
p51
sS'record_name'
p52
S'HETATM'
p53
sS'cif_index'
p54
I1
sS'number'
p55
I6
sS'original_serial'
p56
S'    2'
p57
sS'cif_energy_type'
p58
S'CH1'
p59
sS'name'
p60
S' C02'
p61
sS'resSeq'
p62
I1
sS'original_index'
p63
I2
sS'unique_residue_key'
p64
S'LIG:1:A:'
p65
sS'iCode'
p66
S' '
sS'x'
F1.0436259315618146
sS'z'
F0.68582847611898046
sS'cip_levels'
p67
g1
(celbow.chemistry.CIPMixins
PriorityClass
p68
g3
(ltRp69
sg7
F20
sg8
I140669989715768
sS'chiral_index'
p70
I1
sg22
S''
sg26
S'LIG'
p71
sg30
S'    2'
p72
sg32
I140669989715768
sg33
(lp73
g5
a(ielbow.chemistry.AtomClass
AtomClass
p74
(dp75
g7
F20
sg8
I140669989715552
sg9
(I2
tp76
sg11
(ielbow.chemistry.xyzClass
xyzClass
p77
(dp78
g14
I1
sg15
F57.295779513082323
sS'y'
F0
sS'x'
F-0.46668234693256327
sg16
(F-0.46668234693256327
F0
F1.3199423021582857
tp79
sS'z'
F1.3199423021582857
sbsg16
(ielbow.chemistry.xyzClass
xyzClass
p80
(dp81
g14
I1
sg15
F57.295779513082323
sS'y'
F0.85320644878675678
sS'x'
F0.57694358462925133
sg16
(F0.57694358462925133
F0.85320644878675678
F2.0057707782772662
tp82
sS'z'
F2.0057707782772662
sbsg21
I7
sg22
S''
sg23
(lp83
sg25
I2
sg26
S'LIG'
p84
sg52
g53
sg30
S'    3'
p85
sg32
I140669989715552
sg33
(lp86
g35
a(ielbow.chemistry.AtomClass
AtomClass
p87
(dp88
S'ring_id_backup'
p89
(lp90
sS'chainID'
p91
S'A'
sg28
S'H031'
p92
sg9
Nsg54
I12
sg7
F20
sg11
(ielbow.chemistry.xyzClass
xyzClass
p93
(dp94
g14
I1
sg15
F57.295779513082323
sS'y'
F0.84487276806145195
sS'x'
F-0.31093870440419613
sg16
(F-0.31093870440419613
F0.84487276806145195
F1.7084809428224754
tp95
sS'z'
F1.7084809428224754
sbsg16
(ielbow.chemistry.xyzClass
xyzClass
p96
(dp97
g14
I1
sg15
F57.295779513082323
sS'y'
F1.6980792168482086
sS'x'
F0.73268722715761847
sg16
(F0.73268722715761847
F1.6980792168482086
F2.394309418941456
tp98
sS'z'
F2.394309418941456
sbsg55
I1
sg22
S''
sg23
(lp99
sg8
I140669989726616
sg25
I12
sg64
S'LIG:1:A:'
p100
sg26
S'LIG'
p101
sg52
g53
sg30
S'   13'
p102
sS'segID'
p103
S'A'
sS'old_xyz'
p104
g96
sg32
I140669989726616
sg33
(lp105
g74
asS'chiral'
p106
S''
sS'index'
p107
I13
sS'pre_pdb_write_index'
p108
Nsg58
S'HOH1'
p109
sS'randomised'
p110
I01
sg60
g92
sg62
I1
sg63
I13
sg44
I01
sg45
F1
sS'element'
p111
S'H'
sg46
I0
sg66
S' '
sS'mass'
p112
F1.0079
sg47
I12
sS'y'
F1.6980792168482086
sS'x'
F0.73268722715761847
sg56
S'   13'
p113
sS'z'
F2.394309418941456
sS'symbol'
p114
S'H'
sg50
S'LIG:1:A:???'
p115
sbasg107
I3
sg108
NsS'cip_priority'
p116
I-1
sg44
I01
sg45
F1
sg46
I0
sg47
I2
sS'cip_done'
p117
S'140669989760264_3'
p118
sg48
(lp119
I4
asg50
S'LIG:1:A:???'
p120
sg89
(lp121
sS'junk'
p122
(ielbow.chemistry.xyzClass
xyzClass
p123
(dp124
g14
I1
sg15
F57.295779513082323
sS'y'
F0.11832412722305548
sS'x'
F-0.51135061258903758
sg16
(F-0.51135061258903758
F0.11832412722305548
F1.4053458977054183
tp125
sS'z'
F1.4053458977054183
sbsg91
S'A'
sg28
S' O03'
p126
sg54
I2
sg114
S'O'
sg55
I8
sg103
S'A'
sg56
S'    3'
p127
sg64
S'LIG:1:A:'
p128
sg58
S'OH1'
p129
sg104
g80
sg60
g126
sg110
I01
sg106
S''
sg62
I1
sg63
I3
sg111
S'O'
sg66
S' '
sg112
F15.9994
sS'y'
F0.85320644878675678
sS'x'
F0.57694358462925133
sS'z'
F2.0057707782772662
sg67
g1
(g68
g3
(lp130
I8
a(lp131
a(lp132
a(lp133
a(lp134
a(lp135
a(lp136
atRp137
sba(ielbow.chemistry.AtomClass
AtomClass
p138
(dp139
g7
F20
sg8
I140669989715912
sg9
g10
sg11
(ielbow.chemistry.xyzClass
xyzClass
p140
(dp141
g14
I1
sg15
F57.295779513082323
sS'y'
F-1.2464645619703674
sS'x'
F-0.50888635578999075
sg16
(F-0.50888635578999075
F-1.2464645619703674
F-0.71968029345963103
tp142
sS'z'
F-0.71968029345963103
sbsg16
(ielbow.chemistry.xyzClass
xyzClass
p143
(dp144
g14
I1
sg15
F57.295779513082323
sS'y'
F-0.39325811318361059
sS'x'
F0.53473957577182385
sg16
(F0.53473957577182385
F-0.39325811318361059
F-0.03385181734065057
tp145
sS'z'
F-0.03385181734065057
sbsg21
I9
sg22
S''
sg23
(lp146
sg25
I3
sg26
S'LIG'
p147
sg28
S' C04'
p148
sg30
S'    4'
p149
sg32
I140669989715912
sg33
(lp150
g35
a(ielbow.chemistry.AtomClass
AtomClass
p151
(dp152
g9
g10
sg11
(ielbow.chemistry.xyzClass
xyzClass
p153
(dp154
g14
I1
sg15
F57.295779513082323
sS'y'
F-1.169640891513273
sS'x'
F-2.0033145210854646
sg16
(F-2.0033145210854646
F-1.169640891513273
F-1.0244694948277182
tp155
sS'z'
F-1.0244694948277182
sbsg16
(ielbow.chemistry.xyzClass
xyzClass
p156
(dp157
g14
I1
sg15
F57.295779513082323
sS'y'
F-0.31643444272651622
sS'x'
F-0.95968858952364999
sg16
(F-0.95968858952364999
F-0.31643444272651622
F-0.33864101870873775
tp158
sS'z'
F-0.33864101870873775
sbsg21
I10
sg23
(lp159
sg25
I4
sg44
I01
sg45
F1
sg46
I0
sg47
I4
sg64
S'LIG:1:A:'
p160
sg50
S'LIG:1:A:???'
p161
sg52
g53
sg54
I4
sg55
I6
sg56
S'    5'
p162
sg58
S'CT'
p163
sg60
S' C05'
p164
sg62
I1
sg63
I5
sg66
S' '
sS'x'
F-0.95968858952364999
sS'z'
F-0.33864101870873775
sg7
F20
sg8
I140669989715696
sg22
S''
sg48
(lp165
I6
asg26
S'LIG'
p166
sg30
S'    5'
p167
sg32
I140669989715696
sg33
(lp168
g138
a(ielbow.chemistry.AtomClass
AtomClass
p169
(dp170
g9
g10
sg11
(ielbow.chemistry.xyzClass
xyzClass
p171
(dp172
g14
I1
sg15
F57.295779513082323
sS'y'
F-2.4824946712322102
sS'x'
F-2.6726844097356808
sg16
(F-2.6726844097356808
F-2.4824946712322102
F-0.62387895005205285
tp173
sS'z'
F-0.62387895005205285
sbsg16
(ielbow.chemistry.xyzClass
xyzClass
p174
(dp175
g14
I1
sg15
F57.295779513082323
sS'y'
F-1.6292882224454535
sS'x'
F-1.6290584781738662
sg16
(F-1.6290584781738662
F-1.6292882224454535
F0.061949526066927607
tp176
sS'z'
F0.061949526066927607
sbsg21
I12
sg23
(lp177
sg25
I5
sg44
I01
sg45
F1
sg46
I0
sg47
I5
sg64
S'LIG:1:A:'
p178
sg50
S'LIG:1:A:???'
p179
sg52
g53
sg54
I5
sg55
I6
sg56
S'    6'
p180
sg58
S'CH3'
p181
sg60
S' C06'
p182
sg62
I1
sg63
I6
sg66
S' '
sS'x'
F-1.6290584781738662
sS'z'
F0.061949526066927607
sg7
F20
sg8
I140669989715408
sg22
S''
sg48
(lp183
I7
asg26
S'LIG'
p184
sg30
S'    6'
p185
sg32
I140669989715408
sg33
(lp186
g151
a(ielbow.chemistry.AtomClass
AtomClass
p187
(dp188
g89
(lp189
sg91
S'A'
sg28
S'H061'
p190
sg9
Nsg54
I15
sg7
F20
sg11
(ielbow.chemistry.xyzClass
xyzClass
p191
(dp192
g14
I1
sg15
F57.295779513082323
sS'y'
F-2.5795367803670652
sS'x'
F-2.6606514601744204
sg16
(F-2.6606514601744204
F-2.5795367803670652
F0.45500771065912471
tp193
sS'z'
F0.45500771065912471
sbsg16
(ielbow.chemistry.xyzClass
xyzClass
p194
(dp195
g14
I1
sg15
F57.295779513082323
sS'y'
F-1.7263303315803085
sS'x'
F-1.6170255286126058
sg16
(F-1.6170255286126058
F-1.7263303315803085
F1.1408361867781052
tp196
sS'z'
F1.1408361867781052
sbsg55
I1
sg22
S''
sg23
(lp197
sg8
I140669989304800
sg25
I15
sg64
S'LIG:1:A:'
p198
sg26
S'LIG'
p199
sg52
g53
sg30
S'   16'
p200
sg103
S'A'
sg104
g194
sg32
I140669989304800
sg33
(lp201
g169
asg106
S''
sg107
I16
sg108
Nsg58
S'HCH3'
p202
sg110
I01
sg60
g190
sg62
I1
sg63
I16
sg44
I01
sg45
F1
sg111
S'H'
sg46
I0
sg66
S' '
sg112
F1.0079
sg47
I15
sS'y'
F-1.7263303315803085
sS'x'
F-1.6170255286126058
sg56
S'   16'
p203
sS'z'
F1.1408361867781052
sg114
S'H'
sg50
S'LIG:1:A:???'
p204
sba(ielbow.chemistry.AtomClass
AtomClass
p205
(dp206
g89
(lp207
sg91
S'A'
sg28
S'H062'
p208
sg9
Nsg54
I16
sg7
F20
sg11
(ielbow.chemistry.xyzClass
xyzClass
p209
(dp210
g14
I1
sg15
F57.295779513082323
sS'y'
F-3.3119811483083836
sS'x'
F-2.1349727659324271
sg16
(F-2.1349727659324271
F-3.3119811483083836
F-1.0670231274335942
tp211
sS'z'
F-1.0670231274335942
sbsg16
(ielbow.chemistry.xyzClass
xyzClass
p212
(dp213
g14
I1
sg15
F57.295779513082323
sS'y'
F-2.4587746995216269
sS'x'
F-1.0913468343706125
sg16
(F-1.0913468343706125
F-2.4587746995216269
F-0.38119465131461372
tp214
sS'z'
F-0.38119465131461372
sbsg55
I1
sg22
S''
sg23
(lp215
sg8
I140669989306024
sg25
I16
sg64
S'LIG:1:A:'
p216
sg26
S'LIG'
p217
sg52
g53
sg30
S'   17'
p218
sg103
S'A'
sg104
g212
sg32
I140669989306024
sg33
(lp219
g169
asg106
S''
sg107
I17
sg108
Nsg58
g202
sg110
I01
sg60
g208
sg62
I1
sg63
I17
sg44
I01
sg45
F1
sg111
S'H'
sg46
I0
sg66
S' '
sg112
F1.0079
sg47
I16
sS'y'
F-2.4587746995216269
sS'x'
F-1.0913468343706125
sg56
S'   17'
p220
sS'z'
F-0.38119465131461372
sg114
S'H'
sg50
S'LIG:1:A:???'
p221
sba(ielbow.chemistry.AtomClass
AtomClass
p222
(dp223
g89
(lp224
sg91
S'A'
sg28
S'H063'
p225
sg9
Nsg54
I17
sg7
F20
sg11
(ielbow.chemistry.xyzClass
xyzClass
p226
(dp227
g14
I1
sg15
F57.295779513082323
sS'y'
F-2.4874120587075472
sS'x'
F-3.69736042590598
sg16
(F-3.69736042590598
F-2.4874120587075472
F-0.97540885015556034
tp228
sS'z'
F-0.97540885015556034
sbsg16
(ielbow.chemistry.xyzClass
xyzClass
p229
(dp230
g14
I1
sg15
F57.295779513082323
sS'y'
F-1.6342056099207904
sS'x'
F-2.6537344943441656
sg16
(F-2.6537344943441656
F-1.6342056099207904
F-0.28958037403657988
tp231
sS'z'
F-0.28958037403657988
sbsg55
I1
sg22
S''
sg23
(lp232
sg8
I140669989306240
sg25
I17
sg64
S'LIG:1:A:'
p233
sg26
S'LIG'
p234
sg52
g53
sg30
S'   18'
p235
sg103
S'A'
sg104
g229
sg32
I140669989306240
sg33
(lp236
g169
asg106
S''
sg107
I18
sg108
Nsg58
g202
sg110
I01
sg60
g225
sg62
I1
sg63
I18
sg44
I01
sg45
F1
sg111
S'H'
sg46
I0
sg66
S' '
sg112
F1.0079
sg47
I17
sS'y'
F-1.6342056099207904
sS'x'
F-2.6537344943441656
sg56
S'   18'
p237
sS'z'
F-0.28958037403657988
sg114
S'H'
sg50
S'LIG:1:A:???'
p238
sbasg107
I6
sg108
Nsg117
S'140669989760264_4'
p239
sg89
(lp240
sg91
S'A'
sg28
g182
sg114
S'C'
sg103
S'A'
sg104
g174
sg110
I01
sg106
S''
sg111
S'C'
sg112
F12.010999999999999
sS'y'
F-1.6292882224454535
sba(ielbow.chemistry.AtomClass
AtomClass
p241
(dp242
g9
g10
sg11
(ielbow.chemistry.xyzClass
xyzClass
p243
(dp244
g14
I1
sg15
F57.295779513082323
sS'y'
F-0.92999253253795455
sS'x'
F-2.2063764791035223
sg16
(F-2.2063764791035223
F-0.92999253253795455
F-2.5189421034545041
tp245
sS'z'
F-2.5189421034545041
sbsg16
(ielbow.chemistry.xyzClass
xyzClass
p246
(dp247
g14
I1
sg15
F57.295779513082323
sS'y'
F-0.076786083751197776
sS'x'
F-1.1627505475417077
sg16
(F-1.1627505475417077
F-0.076786083751197776
F-1.8331136273355235
tp248
sS'z'
F-1.8331136273355235
sbsg21
I15
sg23
(lp249
sg25
I6
sg44
I01
sg45
F1
sg46
I0
sg47
I6
sg64
S'LIG:1:A:'
p250
sg50
S'LIG:1:A:???'
p251
sg52
g53
sg54
I6
sg55
I6
sg56
S'    7'
p252
sg58
g181
sg60
S' C07'
p253
sg62
I1
sg63
I7
sg66
S' '
sS'x'
F-1.1627505475417077
sS'z'
F-1.8331136273355235
sg7
F20
sg8
I140669989715336
sg22
S''
sg48
(lp254
I8
asg26
S'LIG'
p255
sg30
S'    7'
p256
sg32
I140669989715336
sg33
(lp257
g151
a(ielbow.chemistry.AtomClass
AtomClass
p258
(dp259
g89
(lp260
sg91
S'A'
sg28
S'H071'
p261
sg9
Nsg54
I18
sg7
F20
sg11
(ielbow.chemistry.xyzClass
xyzClass
p262
(dp263
g14
I1
sg15
F57.295779513082323
sS'y'
F0.0078314845734398508
sS'x'
F-1.7429932469913947
sg16
(F-1.7429932469913947
F0.0078314845734398508
F-2.8005810258487016
tp264
sS'z'
F-2.8005810258487016
sbsg16
(ielbow.chemistry.xyzClass
xyzClass
p265
(dp266
g14
I1
sg15
F57.295779513082323
sS'y'
F0.86103793336019663
sS'x'
F-0.69936731542958008
sg16
(F-0.69936731542958008
F0.86103793336019663
F-2.114752549729721
tp267
sS'z'
F-2.114752549729721
sbsg55
I1
sg22
S''
sg23
(lp268
sg8
I140669989304152
sg25
I18
sg64
S'LIG:1:A:'
p269
sg26
S'LIG'
p270
sg52
g53
sg30
S'   19'
p271
sg103
S'A'
sg104
g265
sg32
I140669989304152
sg33
(lp272
g241
asg106
S''
sg107
I19
sg108
Nsg58
g202
sg110
I01
sg60
g261
sg62
I1
sg63
I19
sg44
I01
sg45
F1
sg111
S'H'
sg46
I0
sg66
S' '
sg112
F1.0079
sg47
I18
sS'y'
F0.86103793336019663
sS'x'
F-0.69936731542958008
sg56
S'   19'
p273
sS'z'
F-2.114752549729721
sg114
S'H'
sg50
S'LIG:1:A:???'
p274
sba(ielbow.chemistry.AtomClass
AtomClass
p275
(dp276
g89
(lp277
sg91
S'A'
sg28
S'H072'
p278
sg9
Nsg54
I19
sg7
F20
sg11
(ielbow.chemistry.xyzClass
xyzClass
p279
(dp280
g14
I1
sg15
F57.295779513082323
sS'y'
F-0.88871960451100496
sS'x'
F-3.2666488949596229
sg16
(F-3.2666488949596229
F-0.88871960451100496
F-2.7372935153293776
tp281
sS'z'
F-2.7372935153293776
sbsg16
(ielbow.chemistry.xyzClass
xyzClass
p282
(dp283
g14
I1
sg15
F57.295779513082323
sS'y'
F-0.03551315572424818
sS'x'
F-2.223022963397808
sg16
(F-2.223022963397808
F-0.03551315572424818
F-2.051465039210397
tp284
sS'z'
F-2.051465039210397
sbsg55
I1
sg22
S''
sg23
(lp285
sg8
I140669989305952
sg25
I19
sg64
S'LIG:1:A:'
p286
sg26
S'LIG'
p287
sg52
g53
sg30
S'   20'
p288
sg103
S'A'
sg104
g282
sg32
I140669989305952
sg33
(lp289
g241
asg106
S''
sg107
I20
sg108
Nsg58
g202
sg110
I01
sg60
g278
sg62
I1
sg63
I20
sg44
I01
sg45
F1
sg111
S'H'
sg46
I0
sg66
S' '
sg112
F1.0079
sg47
I19
sS'y'
F-0.03551315572424818
sS'x'
F-2.223022963397808
sg56
S'   20'
p290
sS'z'
F-2.051465039210397
sg114
S'H'
sg50
S'LIG:1:A:???'
p291
sba(ielbow.chemistry.AtomClass
AtomClass
p292
(dp293
g89
(lp294
sg91
S'A'
sg28
S'H073'
p295
sg9
Nsg54
I20
sg7
F20
sg11
(ielbow.chemistry.xyzClass
xyzClass
p296
(dp297
g14
I1
sg15
F57.295779513082323
sS'y'
F-1.7390571716045358
sS'x'
F-1.7535931351788512
sg16
(F-1.7535931351788512
F-1.7390571716045358
F-3.0792634779865273
tp298
sS'z'
F-3.0792634779865273
sbsg16
(ielbow.chemistry.xyzClass
xyzClass
p299
(dp300
g14
I1
sg15
F57.295779513082323
sS'y'
F-0.88585072281777899
sS'x'
F-0.70996720361703658
sg16
(F-0.70996720361703658
F-0.88585072281777899
F-2.3934350018675468
tp301
sS'z'
F-2.3934350018675468
sbsg55
I1
sg22
S''
sg23
(lp302
sg8
I140669989303216
sg25
I20
sg64
S'LIG:1:A:'
p303
sg26
S'LIG'
p304
sg52
g53
sg30
S'   21'
p305
sg103
S'A'
sg104
g299
sg32
I140669989303216
sg33
(lp306
g241
asg106
S''
sg107
I21
sg108
Nsg58
g202
sg110
I01
sg60
g295
sg62
I1
sg63
I21
sg44
I01
sg45
F1
sg111
S'H'
sg46
I0
sg66
S' '
sg112
F1.0079
sg47
I20
sS'y'
F-0.88585072281777899
sS'x'
F-0.70996720361703658
sg56
S'   21'
p307
sS'z'
F-2.3934350018675468
sg114
S'H'
sg50
S'LIG:1:A:???'
p308
sbasg107
I7
sg108
Nsg117
g239
sg89
(lp309
sg91
S'A'
sg28
g253
sg114
S'C'
sg103
S'A'
sg104
g246
sg110
I01
sg106
S''
sg111
S'C'
sg112
F12.010999999999999
sS'y'
F-0.076786083751197776
sba(ielbow.chemistry.AtomClass
AtomClass
p310
(dp311
g9
g76
sg11
(ielbow.chemistry.xyzClass
xyzClass
p312
(dp313
g14
I1
sg15
F57.295779513082323
sS'y'
F-0.11492370969333909
sS'x'
F-2.5737611372121822
sg16
(F-2.5737611372121822
F-0.11492370969333909
F-0.30077493069233385
tp314
sS'z'
F-0.30077493069233385
sbsg16
(ielbow.chemistry.xyzClass
xyzClass
p315
(dp316
g14
I1
sg15
F57.295779513082323
sS'y'
F0.73828273909341768
sS'x'
F-1.5301352056503676
sg16
(F-1.5301352056503676
F0.73828273909341768
F0.3850535454266466
tp317
sS'z'
F0.3850535454266466
sbsg21
I17
sg23
(lp318
sg25
I7
sg44
I01
sg45
F1
sg46
I0
sg47
I7
sg64
S'LIG:1:A:'
p319
sg50
S'LIG:1:A:???'
p320
sg52
g53
sg54
I7
sg55
I8
sg56
S'    8'
p321
sg58
g129
sg60
S' O08'
p322
sg62
I1
sg63
I8
sg66
S' '
sS'x'
F-1.5301352056503676
sS'z'
F0.3850535454266466
sg7
F20
sg8
I140669989724528
sg22
S''
sg48
(lp323
I9
asg26
S'LIG'
p324
sg30
S'    8'
p325
sg32
I140669989724528
sg33
(lp326
g151
a(ielbow.chemistry.AtomClass
AtomClass
p327
(dp328
g89
(lp329
sg91
S'A'
sg28
S'H081'
p330
sg9
Nsg54
I21
sg7
F20
sg11
(ielbow.chemistry.xyzClass
xyzClass
p331
(dp332
g14
I1
sg15
F57.295779513082323
sS'y'
F-0.084969817809222026
sS'x'
F-3.5013725162809166
sg16
(F-3.5013725162809166
F-0.084969817809222026
F-0.46711267587422611
tp333
sS'z'
F-0.46711267587422611
sbsg16
(ielbow.chemistry.xyzClass
xyzClass
p334
(dp335
g14
I1
sg15
F57.295779513082323
sS'y'
F0.76823663097753481
sS'x'
F-2.4577465847191018
sg16
(F-2.4577465847191018
F0.76823663097753481
F0.21871580024475434
tp336
sS'z'
F0.21871580024475434
sbsg55
I1
sg22
S''
sg23
(lp337
sg8
I140669989303360
sg25
I21
sg64
S'LIG:1:A:'
p338
sg26
S'LIG'
p339
sg52
g53
sg30
S'   22'
p340
sg103
S'A'
sg104
g334
sg32
I140669989303360
sg33
(lp341
g310
asg106
S''
sg107
I22
sg108
Nsg58
g109
sg110
I01
sg60
g330
sg62
I1
sg63
I22
sg44
I01
sg45
F1
sg111
S'H'
sg46
I0
sg66
S' '
sg112
F1.0079
sg47
I21
sS'y'
F0.76823663097753481
sS'x'
F-2.4577465847191018
sg56
S'   22'
p342
sS'z'
F0.21871580024475434
sg114
S'H'
sg50
S'LIG:1:A:???'
p343
sbasg107
I8
sg108
Nsg117
g239
sg89
(lp344
sg91
S'A'
sg28
g322
sg114
S'O'
sg103
S'A'
sg104
g315
sg110
I01
sg106
S''
sg111
S'O'
sg112
F15.9994
sS'y'
F0.73828273909341768
sbasg107
I5
sg108
Nsg117
S'140669989760264_4'
p345
sg89
(lp346
sg91
S'A'
sg28
g164
sg114
S'C'
sg103
S'A'
sg104
g156
sg110
I01
sg106
S''
sg111
S'C'
sg112
F12.010999999999999
sS'y'
F-0.31643444272651622
sba(ielbow.chemistry.AtomClass
AtomClass
p347
(dp348
g89
(lp349
sg91
S'A'
sg28
S'H041'
p350
sg9
Nsg54
I13
sg7
F20
sg11
(ielbow.chemistry.xyzClass
xyzClass
p351
(dp352
g14
I1
sg15
F57.295779513082323
sS'y'
F-1.3602389356669893
sS'x'
F0.033619622785151515
sg16
(F0.033619622785151515
F-1.3602389356669893
F-1.650433238435455
tp353
sS'z'
F-1.650433238435455
sbsg16
(ielbow.chemistry.xyzClass
xyzClass
p354
(dp355
g14
I1
sg15
F57.295779513082323
sS'y'
F-0.5070324868802325
sS'x'
F1.0772455543469661
sg16
(F1.0772455543469661
F-0.5070324868802325
F-0.96460476231647452
tp356
sS'z'
F-0.96460476231647452
sbsg55
I1
sg22
S''
sg23
(lp357
sg8
I140669989305808
sg25
I13
sg64
S'LIG:1:A:'
p358
sg26
S'LIG'
p359
sg52
g53
sg30
S'   14'
p360
sg103
S'A'
sg104
g354
sg32
I140669989305808
sg33
(lp361
g138
asg106
S''
sg107
I14
sg108
Nsg58
S'HCH2'
p362
sg110
I01
sg60
g350
sg62
I1
sg63
I14
sg44
I01
sg45
F1
sg111
S'H'
sg46
I0
sg66
S' '
sg112
F1.0079
sg47
I13
sS'y'
F-0.5070324868802325
sS'x'
F1.0772455543469661
sg56
S'   14'
p363
sS'z'
F-0.96460476231647452
sg114
S'H'
sg50
S'LIG:1:A:???'
p364
sba(ielbow.chemistry.AtomClass
AtomClass
p365
(dp366
g89
(lp367
sg91
S'A'
sg28
S'H042'
p368
sg9
Nsg54
I14
sg7
F20
sg11
(ielbow.chemistry.xyzClass
xyzClass
p369
(dp370
g14
I1
sg15
F57.295779513082323
sS'y'
F-2.1124161432358273
sS'x'
F-0.32204289882932141
sg16
(F-0.32204289882932141
F-2.1124161432358273
F-0.096161431695340527
tp371
sS'z'
F-0.096161431695340527
sbsg16
(ielbow.chemistry.xyzClass
xyzClass
p372
(dp373
g14
I1
sg15
F57.295779513082323
sS'y'
F-1.2592096944490705
sS'x'
F0.72158303273249325
sg16
(F0.72158303273249325
F-1.2592096944490705
F0.58966704442363993
tp374
sS'z'
F0.58966704442363993
sbsg55
I1
sg22
S''
sg23
(lp375
sg8
I140669989303000
sg25
I14
sg64
S'LIG:1:A:'
p376
sg26
S'LIG'
p377
sg52
g53
sg30
S'   15'
p378
sg103
S'A'
sg104
g372
sg32
I140669989303000
sg33
(lp379
g138
asg106
S''
sg107
I15
sg108
Nsg58
g362
sg110
I01
sg60
g368
sg62
I1
sg63
I15
sg44
I01
sg45
F1
sg111
S'H'
sg46
I0
sg66
S' '
sg112
F1.0079
sg47
I14
sS'y'
F-1.2592096944490705
sS'x'
F0.72158303273249325
sg56
S'   15'
p380
sS'z'
F0.58966704442363993
sg114
S'H'
sg50
S'LIG:1:A:???'
p381
sbasg107
I4
sg108
Nsg116
I-1
sg44
I01
sg45
F1
sg46
I0
sg47
I3
sg117
S'140669989760264_4'
p382
sg48
(lp383
I5
asg50
S'LIG:1:A:???'
p384
sg89
(lp385
sg122
(ielbow.chemistry.xyzClass
xyzClass
p386
(dp387
g14
I1
sg15
F57.295779513082323
sS'y'
F1.0166601373801245
sS'x'
F-0.35594163919044275
sg16
(F-0.35594163919044275
F1.0166601373801245
F-0.54278438595281497
tp388
sS'z'
F-0.54278438595281497
sbsg91
S'A'
sS'cip_equal'
p389
g5
sg54
I3
sg52
g53
sg114
S'C'
sg55
I6
sg103
S'A'
sg56
S'    4'
p390
sg64
S'LIG:1:A:'
p391
sg58
S'CH2'
p392
sg104
g143
sg60
g148
sg110
I01
sg106
S''
sg62
I1
sg63
I4
sg111
S'C'
sg66
S' '
sg112
F12.010999999999999
sS'y'
F-0.39325811318361059
sS'x'
F0.53473957577182385
sS'z'
F-0.03385181734065057
sg67
g1
(g68
g3
(lp393
I6
a(lp394
I6
aa(lp395
I8
aI6
aI6
aa(lp396
a(lp397
a(lp398
a(lp399
atRp400
sba(ielbow.chemistry.AtomClass
AtomClass
p401
(dp402
g7
F20
sg8
I140669989724672
sg9
Nsg11
(ielbow.chemistry.xyzClass
xyzClass
p403
(dp404
g14
I1
sg15
F57.295779513082323
sS'y'
F0.88455837563963413
sS'x'
F-0.36104848479975182
sg16
(F-0.36104848479975182
F0.88455837563963413
F-0.51064553380067412
tp405
sS'z'
F-0.51064553380067412
sbsg16
(ielbow.chemistry.xyzClass
xyzClass
p406
(dp407
g14
I1
sg15
F57.295779513082323
sS'y'
F1.737764824426391
sS'x'
F0.68257744676206278
sg16
(F0.68257744676206278
F1.737764824426391
F0.17518294231830633
tp408
sS'z'
F0.17518294231830633
sbsg55
I1
sg22
S''
sg23
(lp409
sg25
I8
sg26
S'LIG'
p410
sg52
g53
sg30
S'    9'
p411
sg32
I140669989724672
sg33
(lp412
g35
asg107
I9
sg108
Nsg116
I-1
sg44
I01
sg45
F1
sg46
I0
sg47
I8
sg117
S'140669989760264_2'
p413
sg48
(lp414
I3
asg50
S'LIG:1:A:???'
p415
sg89
(lp416
sg122
(ielbow.chemistry.xyzClass
xyzClass
p417
(dp418
g14
I1
sg15
F57.295779513082323
sS'y'
F-1.0133038220669941
sS'x'
F-0.47230073696408675
sg16
(F-0.47230073696408675
F-1.0133038220669941
F-0.70467526687406579
tp419
sS'z'
F-0.70467526687406579
sbsg91
S'A'
sg28
S'H021'
p420
sS'original_hydrogen'
p421
I01
sg54
I8
sg114
S'H'
sg103
S'A'
sg56
S'    9'
p422
sg64
S'LIG:1:A:'
p423
sg58
S'HCH1'
p424
sg104
g406
sg60
g420
sg110
I01
sg106
S''
sg62
I1
sg63
I9
sS'added_for_chiral'
p425
I01
sg111
S'H'
sg66
S' '
sg112
F1.0079
sS'y'
F1.737764824426391
sS'x'
F0.68257744676206278
sS'z'
F0.17518294231830633
sg67
g1
(g68
g3
(lp426
I1
a(lp427
a(lp428
a(lp429
a(lp430
a(lp431
a(lp432
atRp433
sbasg107
I2
sg108
Nsg89
(lp434
sg122
(ielbow.chemistry.xyzClass
xyzClass
p435
(dp436
g14
I1
sg15
F57.295779513082323
sS'y'
F0.12460042871174462
sS'x'
F0.00045767763011905717
sg16
(F0.00045767763011905717
F0.12460042871174462
F-0.035908417161934547
tp437
sS'z'
F-0.035908417161934547
sbsg91
S'A'
sg28
g61
sg114
S'C'
sg103
S'A'
sg104
g40
sg110
I01
sg106
S'@@'
p438
sg111
S'C'
sg112
F12.010999999999999
sS'y'
F0.85320644878675678
sba(ielbow.chemistry.AtomClass
AtomClass
p439
(dp440
g89
(lp441
sg91
S'A'
sg28
S'H011'
p442
sg9
Nsg54
I9
sg7
F20
sg11
(ielbow.chemistry.xyzClass
xyzClass
p443
(dp444
g14
I1
sg15
F57.295779513082323
sS'y'
F-0.022253026966169355
sS'x'
F1.8877806236698678
sg16
(F1.8877806236698678
F-0.022253026966169355
F-1.0210918843656673
tp445
sS'z'
F-1.0210918843656673
sbsg16
(ielbow.chemistry.xyzClass
xyzClass
p446
(dp447
g14
I1
sg15
F57.295779513082323
sS'y'
F0.8309534218205874
sS'x'
F2.9314065552316824
sg16
(F2.9314065552316824
F0.8309534218205874
F-0.33526340824668688
tp448
sS'z'
F-0.33526340824668688
sbsg55
I1
sg22
S''
sg23
(lp449
sg8
I140669989290208
sg25
I9
sg64
S'LIG:1:A:'
p450
sg26
S'LIG'
p451
sg52
g53
sg30
S'   10'
p452
sg103
S'A'
sg104
g446
sg32
I140669989290208
sg33
(lp453
g5
asg106
S''
sg107
I10
sg108
Nsg58
g202
sg110
I01
sg60
g442
sg62
I1
sg63
I10
sg44
I01
sg45
F1
sg111
S'H'
sg46
I0
sg66
S' '
sg112
F1.0079
sg47
I9
sS'y'
F0.8309534218205874
sS'x'
F2.9314065552316824
sg56
S'   10'
p454
sS'z'
F-0.33526340824668688
sg114
S'H'
sg50
S'LIG:1:A:???'
p455
sba(ielbow.chemistry.AtomClass
AtomClass
p456
(dp457
g89
(lp458
sg91
S'A'
sg28
S'H012'
p459
sg9
Nsg54
I10
sg7
F20
sg11
(ielbow.chemistry.xyzClass
xyzClass
p460
(dp461
g14
I1
sg15
F57.295779513082323
sS'y'
F-0.8731448329656144
sS'x'
F1.8877860388739558
sg16
(F1.8877860388739558
F-0.8731448329656144
F0.52984716917459074
tp462
sS'z'
F0.52984716917459074
sbsg16
(ielbow.chemistry.xyzClass
xyzClass
p463
(dp464
g14
I1
sg15
F57.295779513082323
sS'y'
F-0.019938384178857627
sS'x'
F2.9314119704357706
sg16
(F2.9314119704357706
F-0.019938384178857627
F1.2156756452935711
tp465
sS'z'
F1.2156756452935711
sbsg55
I1
sg22
S''
sg23
(lp466
sg8
I140669989290856
sg25
I10
sg64
S'LIG:1:A:'
p467
sg26
S'LIG'
p468
sg52
g53
sg30
S'   11'
p469
sg103
S'A'
sg104
g463
sg32
I140669989290856
sg33
(lp470
g5
asg106
S''
sg107
I11
sg108
Nsg58
g202
sg110
I01
sg60
g459
sg62
I1
sg63
I11
sg44
I01
sg45
F1
sg111
S'H'
sg46
I0
sg66
S' '
sg112
F1.0079
sg47
I10
sS'y'
F-0.019938384178857627
sS'x'
F2.9314119704357706
sg56
S'   11'
p471
sS'z'
F1.2156756452935711
sg114
S'H'
sg50
S'LIG:1:A:???'
p472
sba(ielbow.chemistry.AtomClass
AtomClass
p473
(dp474
g89
(lp475
sg91
S'A'
sg28
S'H013'
p476
sg9
Nsg54
I11
sg7
F20
sg11
(ielbow.chemistry.xyzClass
xyzClass
p477
(dp478
g14
I1
sg15
F57.295779513082323
sS'y'
F0.89544138550632901
sS'x'
F1.8877476254260517
sg16
(F1.8877476254260517
F0.89544138550632901
F0.49125593397931799
tp479
sS'z'
F0.49125593397931799
sbsg16
(ielbow.chemistry.xyzClass
xyzClass
p480
(dp481
g14
I1
sg15
F57.295779513082323
sS'y'
F1.7486478342930858
sS'x'
F2.9313735569878663
sg16
(F2.9313735569878663
F1.7486478342930858
F1.1770844100982985
tp482
sS'z'
F1.1770844100982985
sbsg55
I1
sg22
S''
sg23
(lp483
sg8
I140669989290496
sg25
I11
sg64
S'LIG:1:A:'
p484
sg26
S'LIG'
p485
sg52
g53
sg30
S'   12'
p486
sg103
S'A'
sg104
g480
sg32
I140669989290496
sg33
(lp487
g5
asg106
S''
sg107
I12
sg108
Nsg58
g202
sg110
I01
sg60
g476
sg62
I1
sg63
I12
sg44
I01
sg45
F1
sg111
S'H'
sg46
I0
sg66
S' '
sg112
F1.0079
sg47
I11
sS'y'
F1.7486478342930858
sS'x'
F2.9313735569878663
sg56
S'   12'
p488
sS'z'
F1.1770844100982985
sg114
S'H'
sg50
S'LIG:1:A:???'
p489
sbasg107
I1
sg108
Nsg116
I-1
sg44
I01
sg45
F1
sg46
I0
sg47
I0
sg117
S'140669989760264_0'
p490
sg48
(lp491
I1
asg50
S'LIG:1:A:???'
p492
sg89
(lp493
sg122
(ielbow.chemistry.xyzClass
xyzClass
p494
(dp495
g14
I1
sg15
F57.295779513082323
sS'y'
F0.11609419180966989
sS'x'
F1.5298773111134478
sg16
(F1.5298773111134478
F0.11609419180966989
F-0.033825653733200553
tp496
sS'z'
F-0.033825653733200553
sbsg91
S'A'
sg389
g138
sg54
I0
sg52
g53
sg114
S'C'
sg55
I6
sg103
S'A'
sg56
S'    1'
p497
sg64
S'LIG:1:A:'
p498
sg58
g181
sg104
g18
sg60
g29
sg110
I01
sg106
S''
sg62
I1
sg63
I1
sg111
S'C'
sg66
S' '
sg112
F12.010999999999999
sS'y'
F0.85320644878675678
sS'x'
F2.5702493097631556
sS'z'
F0.68582847611898046
sg67
g1
(g68
g3
(lp499
I6
a(lp500
a(lp501
a(lp502
a(lp503
a(lp504
a(lp505
atRp506
sbag35
ag74
ag138
ag151
ag169
ag241
ag310
ag401
ag439
ag456
ag473
ag87
ag347
ag365
ag187
ag205
ag222
ag258
ag275
ag292
ag327
atRp507
(dp508
S'CIF_ligand_type'
p509
S'ligand'
p510
sS'CIF_id'
p511
S'LIG'
p512
sS'energy'
p513
F31.28589518129359
sS'chiral_restraint'
p514
(dp515
I1
g1
(celbow.cctbx_api.RestraintClass
RestraintClass
p516
c__builtin__
dict
p517
(dp518
I1
(F1.2273212739878716
F0.45426042244218667
F1.3041199740433771
tp519
sI2
(F0.032796629309954833
F-0.29430663786251954
F1.1955928872991513
tp520
sI3
(F0.52025592048576841
F-0.79597961632246528
F2.366046734350713
tp521
sI4
(F0.528064809144698
F-0.39170146178530552
F-0.21162732553213215
tp522
s(I3
I2
I1
tp523
(lp524
F109.47122063449069
aF1
as(I9
I2
tp525
(lp526
F1.0833090000000001
aF100
asI9
(F-0.15496998606791126
F-1.4438721531055778
F1.0049145935097283
tp527
s(I9
I2
I3
tp528
(lp529
F109.47122063449069
aF1
as(I2
I1
tp530
(lp531
F1.527126
aF100
as(I2
I3
tp532
(lp533
F1.398717
aF100
as(I4
I2
I1
tp534
(lp535
F109.47122063449069
aF1
as(I9
I2
I1
tp536
(lp537
F109.47122063449069
aF1
as(I4
I2
I3
tp538
(lp539
F109.47122063449069
aF1
as(I2
I4
tp540
(lp541
F1.527126
aF100
as(I9
I2
I4
tp542
(lp543
F109.47122063449069
aF1
astRp544
(dp545
S'link'
p546
(dp547
I1
I0
sI2
I1
sI3
I2
sI4
I3
sI9
I4
ssS'hydrogens'
p548
(lp549
sS'chiral_weights'
p550
(lp551
F50
asS'restraint_type'
p552
(dp553
sS'type'
p554
NsS'chirals'
p555
(lp556
(lp557
(lp558
(lp559
g35
ag5
ag74
ag138
aa(lp560
F2.5110833783732081
aI01
aF1
aaaasS'overwrite'
p561
I00
sbssS'OutputHeaderData'
p562
(dp563
S'smiles'
p564
S'C[C@H](O)CC(C)(C)O'
p565
sS'qm_method'
p566
S'uhf'
p567
sS'random_seed'
p568
S'3628800'
p569
sS'qm_basis'
p570
S'am1'
p571
ssS'OriginalFormat'
p572
g1
(celbow.formats.FormatClass
FormatClass
p573
g517
(dp574
S'atom_names'
p575
I00
sg564
I01
sS'bond_orders'
p576
I01
sS'bond_connections'
p577
I01
sS'xyz_coordinates'
p578
I00
stRp579
(dp580
S'format'
p581
S'SMILES'
p582
sbsS'WriteCIF2String_defaults'
p583
(lp584
I00
aI01
ag512
aS''
ag565
aI01
aI00
aS'retain'
p585
aI00
aI01
aI01
a(I4
I3
I2
tp586
aI00
aI00
aNaI01
a(lp587
a(lp588
a(lp589
a(lp590
aI00
aI00
asS'chiral_class'
p591
(dp592
I1
g1
(celbow.chemistry.ChiralClass
ChiralClass
p593
g3
(lp594
g401
ag35
ag5
ag74
ag138
atRp595
(dp596
S'rs_priority'
p597
(lp598
g401
ag5
ag138
ag74
asS'id_tag'
p599
I140669989760264
sS'equil'
p600
F2.5110833783732081
sS'parent'
p601
g507
sS'bonds'
p602
g1
(celbow.chemistry.InternalCoordinateListClass
InternalCoordinateListClass
p603
g3
(lp604
g1
(celbow.chemistry.BondClass
BondClass
p605
g3
(lp606
g35
ag5
atRp607
(dp608
S'symbols'
p609
(lp610
sS'restrain'
p611
I00
sg600
F1.527126
sS'max_atoms'
p612
I2
sg114
S'-'
sS'input_order'
p613
I1
sS'order'
p614
I1
sbag1
(g605
g3
(lp615
g74
ag35
atRp616
(dp617
g609
g610
sg611
I00
sg600
F1.398717
sg612
I2
sg114
S'-'
sg613
I1
sg614
I1
sbag1
(g605
g3
(lp618
g138
ag35
atRp619
(dp620
g609
g610
sg611
I00
sg600
F1.527126
sg612
I2
sg114
S'-'
sg613
I1
sg614
I1
sbag1
(g605
g3
(lp621
g151
ag138
atRp622
(dp623
g609
g610
sg611
I00
sg600
F1.527126
sg612
I2
sg114
S'-'
sg613
I1
sg614
I1
sbag1
(g605
g3
(lp624
g169
ag151
atRp625
(dp626
g609
g610
sg611
I00
sg600
F1.527126
sg612
I2
sg114
S'-'
sg613
I1
sg614
I1
sbag1
(g605
g3
(lp627
g241
ag151
atRp628
(dp629
g609
g610
sg611
I00
sg600
F1.527126
sg612
I2
sg114
S'-'
sg613
I1
sg614
I1
sbag1
(g605
g3
(lp630
g310
ag151
atRp631
(dp632
g609
g610
sg611
I00
sg600
F1.398717
sg612
I2
sg114
S'-'
sg613
I1
sg614
I1
sbag1
(g605
g3
(lp633
g401
ag35
atRp634
(dp635
g609
g610
sg611
I00
sg600
F1.0833090000000001
sg612
I2
sg114
S'-'
sg613
I1
sg614
I1
sbag1
(g605
g3
(lp636
g439
ag5
atRp637
(dp638
g609
g610
sg611
I00
sg600
F1.0833090000000001
sg612
I2
sg114
S'-'
sg613
I1
sg614
I1
sbag1
(g605
g3
(lp639
g456
ag5
atRp640
(dp641
g609
g610
sg611
I00
sg600
F1.0833090000000001
sg612
I2
sg114
S'-'
sg613
I1
sg614
I1
sbag1
(g605
g3
(lp642
g473
ag5
atRp643
(dp644
g609
g610
sg611
I00
sg600
F1.0833090000000001
sg612
I2
sg114
S'-'
sg613
I1
sg614
I1
sbag1
(g605
g3
(lp645
g87
ag74
atRp646
(dp647
g609
g610
sg611
I00
sg600
F0.94288300000000003
sg612
I2
sg114
S'-'
sg613
I1
sg614
I1
sbag1
(g605
g3
(lp648
g347
ag138
atRp649
(dp650
g609
g610
sg611
I00
sg600
F1.0833090000000001
sg612
I2
sg114
S'-'
sg613
I1
sg614
I1
sbag1
(g605
g3
(lp651
g365
ag138
atRp652
(dp653
g609
g610
sg611
I00
sg600
F1.0833090000000001
sg612
I2
sg114
S'-'
sg613
I1
sg614
I1
sbag1
(g605
g3
(lp654
g187
ag169
atRp655
(dp656
g609
g610
sg611
I00
sg600
F1.0833090000000001
sg612
I2
sg114
S'-'
sg613
I1
sg614
I1
sbag1
(g605
g3
(lp657
g205
ag169
atRp658
(dp659
g609
g610
sg611
I00
sg600
F1.0833090000000001
sg612
I2
sg114
S'-'
sg613
I1
sg614
I1
sbag1
(g605
g3
(lp660
g222
ag169
atRp661
(dp662
g609
g610
sg611
I00
sg600
F1.0833090000000001
sg612
I2
sg114
S'-'
sg613
I1
sg614
I1
sbag1
(g605
g3
(lp663
g258
ag241
atRp664
(dp665
g609
g610
sg611
I00
sg600
F1.0833090000000001
sg612
I2
sg114
S'-'
sg613
I1
sg614
I1
sbag1
(g605
g3
(lp666
g275
ag241
atRp667
(dp668
g609
g610
sg611
I00
sg600
F1.0833090000000001
sg612
I2
sg114
S'-'
sg613
I1
sg614
I1
sbag1
(g605
g3
(lp669
g292
ag241
atRp670
(dp671
g609
g610
sg611
I00
sg600
F1.0833090000000001
sg612
I2
sg114
S'-'
sg613
I1
sg614
I1
sbag1
(g605
g3
(lp672
g327
ag310
atRp673
(dp674
g609
g610
sg611
I00
sg600
F0.94288300000000003
sg612
I2
sg114
S'-'
sg613
I1
sg614
I1
sbatRp675
sS'skip'
p676
(lp677
I2
asS'get_bond_by_atoms_lookup'
p678
(dp679
S' C02: C01'
p680
g607
sS'C2:H9'
p681
g634
sS'C5:C6'
p682
g625
sS'C5:C7'
p683
g628
sS'C5:C4'
p684
g622
sS' C02: C04'
p685
g619
sS' C02: O03'
p686
g616
sS'C5:O8'
p687
g631
sS'C6:C5'
p688
g625
sS'O8:C5'
p689
g631
sS'C2:C4'
p690
g619
sS'C7:C5'
p691
g628
sS'C2:O3'
p692
g616
sS'C4:C5'
p693
g622
ssS'axis_atom'
p694
g401
sS'angles'
p695
g1
(g603
g3
(lp696
g1
(celbow.chemistry.AngleClass
AngleClass
p697
g3
(lp698
g74
ag35
ag5
atRp699
(dp700
g609
(lp701
S'-'
aS'-'
asg611
I01
sg600
F109.47122063449069
sbag1
(g697
g3
(lp702
g138
ag35
ag5
atRp703
(dp704
g609
(lp705
S'-'
aS'-'
asg611
I01
sg600
F109.47122063449069
sbag1
(g697
g3
(lp706
g401
ag35
ag5
atRp707
(dp708
g609
(lp709
S'-'
aS'-'
asg611
I01
sg600
F109.47122063449069
sbag1
(g697
g3
(lp710
g151
ag138
ag35
atRp711
(dp712
g609
(lp713
S'-'
aS'-'
asg611
I01
sg600
F112.873
sbag1
(g697
g3
(lp714
g138
ag35
ag74
atRp715
(dp716
g609
(lp717
S'-'
aS'-'
asg611
I01
sg600
F109.47122063449069
sbag1
(g697
g3
(lp718
g401
ag35
ag74
atRp719
(dp720
g609
(lp721
S'-'
aS'-'
asg611
I01
sg600
F109.47122063449069
sbag1
(g697
g3
(lp722
g401
ag35
ag138
atRp723
(dp724
g609
(lp725
S'-'
aS'-'
asg611
I01
sg600
F109.47122063449069
sbag1
(g697
g3
(lp726
g169
ag151
ag138
atRp727
(dp728
g609
(lp729
S'-'
aS'-'
asg611
I01
sg600
F109.47122063449069
sbag1
(g697
g3
(lp730
g241
ag151
ag138
atRp731
(dp732
g609
(lp733
S'-'
aS'-'
asg611
I01
sg600
F109.47122063449069
sbag1
(g697
g3
(lp734
g310
ag151
ag138
atRp735
(dp736
g609
(lp737
S'-'
aS'-'
asg611
I01
sg600
F109.47122063449069
sbag1
(g697
g3
(lp738
g241
ag151
ag169
atRp739
(dp740
g609
(lp741
S'-'
aS'-'
asg611
I01
sg600
F109.47122063449069
sbag1
(g697
g3
(lp742
g310
ag151
ag169
atRp743
(dp744
g609
(lp745
S'-'
aS'-'
asg611
I01
sg600
F109.47122063449069
sbag1
(g697
g3
(lp746
g310
ag151
ag241
atRp747
(dp748
g609
(lp749
S'-'
aS'-'
asg611
I01
sg600
F109.47122063449069
sbatRp750
sS'dihedrals'
p751
g1
(g603
g3
(lp752
g1
(celbow.chemistry.DihedralClass
DihedralClass
p753
g3
(lp754
g151
ag138
ag35
ag5
atRp755
(dp756
g609
(lp757
S'-'
aS'-'
aS'-'
asg611
I00
sbag1
(g753
g3
(lp758
g169
ag151
ag138
ag35
atRp759
(dp760
g609
(lp761
S'-'
aS'-'
aS'-'
asg611
I00
sbag1
(g753
g3
(lp762
g241
ag151
ag138
ag35
atRp763
(dp764
g609
(lp765
S'-'
aS'-'
aS'-'
asg611
I00
sbag1
(g753
g3
(lp766
g310
ag151
ag138
ag35
atRp767
(dp768
g609
(lp769
S'-'
aS'-'
aS'-'
asg611
I00
sbag1
(g753
g3
(lp770
g151
ag138
ag35
ag74
atRp771
(dp772
g609
(lp773
S'-'
aS'-'
aS'-'
asg611
I00
sbag1
(g753
g3
(lp774
g401
ag35
ag138
ag151
atRp775
(dp776
g609
(lp777
S'-'
aS'-'
aS'-'
asg611
I00
sbatRp778
sS'use_cctbx'
p779
I01
sS'RestraintWeights'
p780
(dp781
S'LoopClass'
p782
(dp783
S'angle'
p784
F0.25
sS'bond'
p785
I50
ssS'GetCCTBXRestraints'
p786
(dp787
g784
F1
sg785
F100
ssS'ZMatrixClass'
p788
(dp789
g784
I10
sg785
F100
ssS'AdjustRestraintClass'
p790
(dp791
S'ring_planar'
p792
F0.10000000000000001
sS'aromatic_bond'
p793
F100
sg784
F1.5
sg106
F50
sS'loose_angle'
p794
F0.25
sS'non_ring_planar'
p795
F0.20000000000000001
ssS'RingClass'
p796
(dp797
S'flatness'
p798
F10
sg784
F2
sS'non_aromatic'
p799
F10
sS'chair_boat'
p800
F1
sg785
F200
ssS'ChiralClass'
p801
(dp802
g785
F100
sssS'input_volume'
p803
NsS'CIF_three_letter_code'
p804
S'LIG'
p805
sS'UseRestraintWeights'
p806
I01
sS'chiral_atom'
p807
g35
sS'zmatrix_class'
p808
g1
(celbow.chemistry.ZMatrixClass
ZMatrixClass
p809
g3
(lp810
g1
(celbow.chemistry.ZMatrixClass
ZMatrixLine
p811
g3
(lp812
g35
atRp813
(dp814
S'added_atom'
p815
I01
sS'variable_set'
p816
I01
sS'angle_index'
p817
I4
sS'bond_index'
p818
I2
sS'dihedral_index'
p819
I6
sS'variable'
p820
(lp821
I00
aI00
aI00
asS'ring'
p822
I00
sg600
Nsbag1
(g811
g3
(lp823
g5
ag35
aF1.526623378201341
atRp824
(dp825
g815
I01
sg816
I01
sg817
I4
sg818
I2
sg819
I6
sg820
(lp826
I00
aI00
aI00
asg822
I00
sg600
F1.526623378201341
sbag1
(g811
g3
(lp827
g74
ag35
aF1.4000143192001289
ag5
aF109.47169409122118
atRp828
(dp829
g815
I01
sg816
I01
sg817
I4
sg818
I2
sg819
I6
sg820
(lp830
I00
aI00
aI00
asg822
I00
sg600
F1.4000143192001289
sbag1
(g811
g3
(lp831
g138
ag35
aF1.5266233825509608
ag5
aF109.47169414526108
ag74
aF-120.00115983046676
atRp832
(dp833
g815
I01
sg816
I01
sg817
I4
sg818
I2
sg819
I6
sg820
(lp834
I00
aI00
aI00
asg822
I00
sg600
F1.5266233825509608
sbag1
(g811
g3
(lp835
g401
ag35
aF1.0833090000000001
ag5
aF109.46816247552565
ag74
aF119.99735317079656
atRp836
(dp837
g815
I01
sg816
I01
sg817
I4
sg818
I2
sg819
I6
sg820
(lp838
I00
aI00
aI00
asg822
I00
sg600
F1.0833090000000001
sbatRp839
(dp840
g779
I01
sg780
g781
sg601
g595
sg602
g675
sg806
I01
sS'atoms'
p841
(lp842
g35
ag5
ag74
ag138
ag401
asS'restraint_class'
p843
g544
sg695
g750
sS'use_parent_energise'
p844
I01
sg751
g778
sbsg843
g544
sS'original_order'
p845
(lp846
g401
ag35
ag5
ag74
ag138
asbssS'invisible_plane'
p847
g1
(celbow.chemistry.PeptideClass
PeptideClass
p848
g3
(ltRp849
(dp850
g843
g1
(g516
g517
(dtRp851
(dp852
g554
Nsg546
(dp853
sg561
I00
sg548
(lp854
sg552
(dp855
sbsS'dihedral_const_var_type'
p856
(lp857
sbsS'rotation_step'
p858
I10
sg780
g781
sS'CIF_name'
p859
S'Unknown'
p860
sS'EnergyTerms'
p861
Nsg804
g805
sS'RotationSubUnits'
p862
(dp863
(I4
I2
tp864
(lp865
(ielbow.utilities.sets
Set
p866
(dp867
S'dict'
p868
(dp869
g222
I1
sg187
I1
sg169
I1
sg292
I1
sg310
I1
sg241
I1
sg365
I1
sg258
I1
sg205
I1
sg151
I1
sg327
I1
sg347
I1
sg275
I1
ssba(ielbow.utilities.sets
Set
p870
(dp871
g868
(dp872
g473
I1
sg87
I1
sg74
I1
sg439
I1
sg5
I1
sg401
I1
sg456
I1
ssbas(I5
I4
tp873
(lp874
(ielbow.utilities.sets
Set
p875
(dp876
g868
(dp877
g222
I1
sg187
I1
sg169
I1
sg292
I1
sg241
I1
sg310
I1
sg258
I1
sg205
I1
sg327
I1
sg275
I1
ssba(ielbow.utilities.sets
Set
p878
(dp879
g868
(dp880
g473
I1
sg87
I1
sg74
I1
sg439
I1
sg365
I1
sg5
I1
sg401
I1
sg456
I1
sg35
I1
sg347
I1
ssbassg44
I01
sS'ring_restraint'
p881
g1
(celbow.chemistry.RingTopologyMixins
empty_dict
p882
g517
(dtRp883
sS'loop_class'
p884
(lp885
sg46
I0
sS'residue_name'
p886
g512
sS'temp_pdb'
p887
S'/tmp/tmpHJ1eYy'
p888
sS'ring_dihedrals'
p889
(lp890
sS'maximum_bond_length'
p891
F3
sS'peptide_class'
p892
g1
(g848
g3
(ltRp893
(dp894
g843
g1
(g516
g517
(dtRp895
(dp896
g554
Nsg546
(dp897
sg561
I00
sg548
(lp898
sg552
(dp899
sbsg856
(lp900
sbsS'RestraintValues'
p901
(dp902
g796
(dp903
g784
(dp904
I3
F60
sI4
F90
sI5
F106
sI6
F113
ssS'dihedral'
p905
(dp906
I5
(lp907
F25
aI10
asI6
(lp908
F55
aI1
assssS'molecule_number'
p909
I0
sS'chiral_zmatrix'
p910
(dp911
I1
g839
ssS'trace'
p912
(dp913
I0
(dp914
S'O'
I1
ssI1
(dp915
S'H'
I1
sssS'filename_preamble'
p916
S'elbow.001'
p917
sS'start_time'
p918
F1580490788.6743729
sS'UseCIFWeights'
p919
I01
sS'rejected'
p920
(lp921
sS'ring_class'
p922
(lp923
sg695
g1
(g603
g3
(lp924
g699
ag703
ag707
ag711
ag715
ag719
ag723
ag727
ag731
ag735
ag739
ag743
ag747
ag1
(g697
g3
(lp925
g439
ag5
ag35
atRp926
(dp927
g609
(lp928
S'-'
aS'-'
asg611
I01
sg600
F109.47122063449069
sbag1
(g697
g3
(lp929
g456
ag5
ag35
atRp930
(dp931
g609
(lp932
S'-'
aS'-'
asg611
I01
sg600
F109.47122063449069
sbag1
(g697
g3
(lp933
g473
ag5
ag35
atRp934
(dp935
g609
(lp936
S'-'
aS'-'
asg611
I01
sg600
F109.47122063449069
sbag1
(g697
g3
(lp937
g87
ag74
ag35
atRp938
(dp939
g609
(lp940
S'-'
aS'-'
asg611
I01
sg600
F109.47122063449069
sbag1
(g697
g3
(lp941
g347
ag138
ag35
atRp942
(dp943
g609
(lp944
S'-'
aS'-'
asg611
I01
sg600
F109.47122063449069
sbag1
(g697
g3
(lp945
g365
ag138
ag35
atRp946
(dp947
g609
(lp948
S'-'
aS'-'
asg611
I01
sg600
F109.47122063449069
sbag1
(g697
g3
(lp949
g347
ag138
ag151
atRp950
(dp951
g609
(lp952
S'-'
aS'-'
asg611
I01
sg600
F109.47122063449069
sbag1
(g697
g3
(lp953
g365
ag138
ag151
atRp954
(dp955
g609
(lp956
S'-'
aS'-'
asg611
I01
sg600
F109.47122063449069
sbag1
(g697
g3
(lp957
g187
ag169
ag151
atRp958
(dp959
g609
(lp960
S'-'
aS'-'
asg611
I01
sg600
F109.47122063449069
sbag1
(g697
g3
(lp961
g205
ag169
ag151
atRp962
(dp963
g609
(lp964
S'-'
aS'-'
asg611
I01
sg600
F109.47122063449069
sbag1
(g697
g3
(lp965
g222
ag169
ag151
atRp966
(dp967
g609
(lp968
S'-'
aS'-'
asg611
I01
sg600
F109.47122063449069
sbag1
(g697
g3
(lp969
g258
ag241
ag151
atRp970
(dp971
g609
(lp972
S'-'
aS'-'
asg611
I01
sg600
F109.47122063449069
sbag1
(g697
g3
(lp973
g275
ag241
ag151
atRp974
(dp975
g609
(lp976
S'-'
aS'-'
asg611
I01
sg600
F109.47122063449069
sbag1
(g697
g3
(lp977
g292
ag241
ag151
atRp978
(dp979
g609
(lp980
S'-'
aS'-'
asg611
I01
sg600
F109.47122063449069
sbag1
(g697
g3
(lp981
g327
ag310
ag151
atRp982
(dp983
g609
(lp984
S'-'
aS'-'
asg611
I01
sg600
F109.47122063449069
sbag1
(g697
g3
(lp985
g456
ag5
ag439
atRp986
(dp987
g609
(lp988
S'-'
aS'-'
asg611
I01
sg600
F109.47122063449069
sbag1
(g697
g3
(lp989
g473
ag5
ag439
atRp990
(dp991
g609
(lp992
S'-'
aS'-'
asg611
I01
sg600
F109.47122063449069
sbag1
(g697
g3
(lp993
g473
ag5
ag456
atRp994
(dp995
g609
(lp996
S'-'
aS'-'
asg611
I01
sg600
F109.47122063449069
sbag1
(g697
g3
(lp997
g365
ag138
ag347
atRp998
(dp999
g609
(lp1000
S'-'
aS'-'
asg611
I01
sg600
F109.47122063449069
sbag1
(g697
g3
(lp1001
g205
ag169
ag187
atRp1002
(dp1003
g609
(lp1004
S'-'
aS'-'
asg611
I01
sg600
F109.47122063449069
sbag1
(g697
g3
(lp1005
g222
ag169
ag187
atRp1006
(dp1007
g609
(lp1008
S'-'
aS'-'
asg611
I01
sg600
F109.47122063449069
sbag1
(g697
g3
(lp1009
g222
ag169
ag205
atRp1010
(dp1011
g609
(lp1012
S'-'
aS'-'
asg611
I01
sg600
F109.47122063449069
sbag1
(g697
g3
(lp1013
g275
ag241
ag258
atRp1014
(dp1015
g609
(lp1016
S'-'
aS'-'
asg611
I01
sg600
F109.47122063449069
sbag1
(g697
g3
(lp1017
g292
ag241
ag258
atRp1018
(dp1019
g609
(lp1020
S'-'
aS'-'
asg611
I01
sg600
F109.47122063449069
sbag1
(g697
g3
(lp1021
g292
ag241
ag275
atRp1022
(dp1023
g609
(lp1024
S'-'
aS'-'
asg611
I01
sg600
F109.47122063449069
sbatRp1025
sg602
g675
sS'used_auto_bond'
p1026
I00
sg751
g1
(g603
g3
(lp1027
g755
ag759
ag763
ag767
ag771
ag775
ag1
(g753
g3
(lp1028
g87
ag74
ag35
ag5
atRp1029
(dp1030
g609
(lp1031
S'-'
aS'-'
aS'-'
asg611
I00
sbag1
(g753
g3
(lp1032
g347
ag138
ag35
ag5
atRp1033
(dp1034
g609
(lp1035
S'-'
aS'-'
aS'-'
asg611
I00
sbag1
(g753
g3
(lp1036
g365
ag138
ag35
ag5
atRp1037
(dp1038
g609
(lp1039
S'-'
aS'-'
aS'-'
asg611
I00
sbag1
(g753
g3
(lp1040
g439
ag5
ag35
ag74
atRp1041
(dp1042
g609
(lp1043
S'-'
aS'-'
aS'-'
asg611
I00
sbag1
(g753
g3
(lp1044
g456
ag5
ag35
ag74
atRp1045
(dp1046
g609
(lp1047
S'-'
aS'-'
aS'-'
asg611
I00
sbag1
(g753
g3
(lp1048
g473
ag5
ag35
ag74
atRp1049
(dp1050
g609
(lp1051
S'-'
aS'-'
aS'-'
asg611
I00
sbag1
(g753
g3
(lp1052
g347
ag138
ag35
ag74
atRp1053
(dp1054
g609
(lp1055
S'-'
aS'-'
aS'-'
asg611
I00
sbag1
(g753
g3
(lp1056
g365
ag138
ag35
ag74
atRp1057
(dp1058
g609
(lp1059
S'-'
aS'-'
aS'-'
asg611
I00
sbag1
(g753
g3
(lp1060
g439
ag5
ag35
ag138
atRp1061
(dp1062
g609
(lp1063
S'-'
aS'-'
aS'-'
asg611
I00
sbag1
(g753
g3
(lp1064
g456
ag5
ag35
ag138
atRp1065
(dp1066
g609
(lp1067
S'-'
aS'-'
aS'-'
asg611
I00
sbag1
(g753
g3
(lp1068
g473
ag5
ag35
ag138
atRp1069
(dp1070
g609
(lp1071
S'-'
aS'-'
aS'-'
asg611
I00
sbag1
(g753
g3
(lp1072
g87
ag74
ag35
ag138
atRp1073
(dp1074
g609
(lp1075
S'-'
aS'-'
aS'-'
asg611
I00
sbag1
(g753
g3
(lp1076
g187
ag169
ag151
ag138
atRp1077
(dp1078
g609
(lp1079
S'-'
aS'-'
aS'-'
asg611
I00
sbag1
(g753
g3
(lp1080
g205
ag169
ag151
ag138
atRp1081
(dp1082
g609
(lp1083
S'-'
aS'-'
aS'-'
asg611
I00
sbag1
(g753
g3
(lp1084
g222
ag169
ag151
ag138
atRp1085
(dp1086
g609
(lp1087
S'-'
aS'-'
aS'-'
asg611
I00
sbag1
(g753
g3
(lp1088
g258
ag241
ag151
ag138
atRp1089
(dp1090
g609
(lp1091
S'-'
aS'-'
aS'-'
asg611
I00
sbag1
(g753
g3
(lp1092
g275
ag241
ag151
ag138
atRp1093
(dp1094
g609
(lp1095
S'-'
aS'-'
aS'-'
asg611
I00
sbag1
(g753
g3
(lp1096
g292
ag241
ag151
ag138
atRp1097
(dp1098
g609
(lp1099
S'-'
aS'-'
aS'-'
asg611
I00
sbag1
(g753
g3
(lp1100
g327
ag310
ag151
ag138
atRp1101
(dp1102
g609
(lp1103
S'-'
aS'-'
aS'-'
asg611
I00
sbag1
(g753
g3
(lp1104
g347
ag138
ag151
ag169
atRp1105
(dp1106
g609
(lp1107
S'-'
aS'-'
aS'-'
asg611
I00
sbag1
(g753
g3
(lp1108
g365
ag138
ag151
ag169
atRp1109
(dp1110
g609
(lp1111
S'-'
aS'-'
aS'-'
asg611
I00
sbag1
(g753
g3
(lp1112
g258
ag241
ag151
ag169
atRp1113
(dp1114
g609
(lp1115
S'-'
aS'-'
aS'-'
asg611
I00
sbag1
(g753
g3
(lp1116
g275
ag241
ag151
ag169
atRp1117
(dp1118
g609
(lp1119
S'-'
aS'-'
aS'-'
asg611
I00
sbag1
(g753
g3
(lp1120
g292
ag241
ag151
ag169
atRp1121
(dp1122
g609
(lp1123
S'-'
aS'-'
aS'-'
asg611
I00
sbag1
(g753
g3
(lp1124
g327
ag310
ag151
ag169
atRp1125
(dp1126
g609
(lp1127
S'-'
aS'-'
aS'-'
asg611
I00
sbag1
(g753
g3
(lp1128
g347
ag138
ag151
ag241
atRp1129
(dp1130
g609
(lp1131
S'-'
aS'-'
aS'-'
asg611
I00
sbag1
(g753
g3
(lp1132
g365
ag138
ag151
ag241
atRp1133
(dp1134
g609
(lp1135
S'-'
aS'-'
aS'-'
asg611
I00
sbag1
(g753
g3
(lp1136
g187
ag169
ag151
ag241
atRp1137
(dp1138
g609
(lp1139
S'-'
aS'-'
aS'-'
asg611
I00
sbag1
(g753
g3
(lp1140
g205
ag169
ag151
ag241
atRp1141
(dp1142
g609
(lp1143
S'-'
aS'-'
aS'-'
asg611
I00
sbag1
(g753
g3
(lp1144
g222
ag169
ag151
ag241
atRp1145
(dp1146
g609
(lp1147
S'-'
aS'-'
aS'-'
asg611
I00
sbag1
(g753
g3
(lp1148
g327
ag310
ag151
ag241
atRp1149
(dp1150
g609
(lp1151
S'-'
aS'-'
aS'-'
asg611
I00
sbag1
(g753
g3
(lp1152
g347
ag138
ag151
ag310
atRp1153
(dp1154
g609
(lp1155
S'-'
aS'-'
aS'-'
asg611
I00
sbag1
(g753
g3
(lp1156
g365
ag138
ag151
ag310
atRp1157
(dp1158
g609
(lp1159
S'-'
aS'-'
aS'-'
asg611
I00
sbag1
(g753
g3
(lp1160
g187
ag169
ag151
ag310
atRp1161
(dp1162
g609
(lp1163
S'-'
aS'-'
aS'-'
asg611
I00
sbag1
(g753
g3
(lp1164
g205
ag169
ag151
ag310
atRp1165
(dp1166
g609
(lp1167
S'-'
aS'-'
aS'-'
asg611
I00
sbag1
(g753
g3
(lp1168
g222
ag169
ag151
ag310
atRp1169
(dp1170
g609
(lp1171
S'-'
aS'-'
aS'-'
asg611
I00
sbag1
(g753
g3
(lp1172
g258
ag241
ag151
ag310
atRp1173
(dp1174
g609
(lp1175
S'-'
aS'-'
aS'-'
asg611
I00
sbag1
(g753
g3
(lp1176
g275
ag241
ag151
ag310
atRp1177
(dp1178
g609
(lp1179
S'-'
aS'-'
aS'-'
asg611
I00
sbag1
(g753
g3
(lp1180
g292
ag241
ag151
ag310
atRp1181
(dp1182
g609
(lp1183
S'-'
aS'-'
aS'-'
asg611
I00
sbag1
(g753
g3
(lp1184
g439
ag5
ag35
ag401
atRp1185
(dp1186
g609
(lp1187
S'-'
aS'-'
aS'-'
asg611
I00
sbag1
(g753
g3
(lp1188
g456
ag5
ag35
ag401
atRp1189
(dp1190
g609
(lp1191
S'-'
aS'-'
aS'-'
asg611
I00
sbag1
(g753
g3
(lp1192
g473
ag5
ag35
ag401
atRp1193
(dp1194
g609
(lp1195
S'-'
aS'-'
aS'-'
asg611
I00
sbag1
(g753
g3
(lp1196
g87
ag74
ag35
ag401
atRp1197
(dp1198
g609
(lp1199
S'-'
aS'-'
aS'-'
asg611
I00
sbag1
(g753
g3
(lp1200
g347
ag138
ag35
ag401
atRp1201
(dp1202
g609
(lp1203
S'-'
aS'-'
aS'-'
asg611
I00
sbag1
(g753
g3
(lp1204
g365
ag138
ag35
ag401
atRp1205
(dp1206
g609
(lp1207
S'-'
aS'-'
aS'-'
asg611
I00
sbatRp1208
sS'auto_bond_cutoff'
p1209
F3.8024999999999998
sg779
I01
sS'CIFWeights'
p1210
(dp1211
g784
F3
sg905
F30
sS'outer_ring'
p1212
F0.050000000000000003
sS'amine'
p1213
F0.10000000000000001
sS'peptide'
p1214
F0.10000000000000001
sS'inner_ring'
p1215
F0.02
sg785
F0.02
ssS'last'
p1216
g327
sg60
g565
sS'amine_class'
p1217
g1
(g848
g3
(ltRp1218
(dp1219
g843
g1
(g516
g517
(dtRp1220
(dp1221
g554
Nsg546
(dp1222
sg561
I00
sg548
(lp1223
sg552
(dp1224
sbsg856
(lp1225
sbsS'G_md5'
p1226
S'a4fd02a1232f693f29532b26d1471b4f'
p1227
sS'files_written'
p1228
g1
(celbow.utilities.Utilities
PushFilename
p1229
g3
(lp1230
S'/home/adrmercurio/XtaLab/phenix-1.17.1-3660/eLBOW_3/elbow.001.pdb'
p1231
aS'/home/adrmercurio/XtaLab/phenix-1.17.1-3660/eLBOW_3/elbow.001.cif'
p1232
atRp1233
sg806
I01
sS'azide_class'
p1234
g1
(g848
g3
(ltRp1235
(dp1236
g843
g1
(g516
g517
(dtRp1237
(dp1238
g554
Nsg546
(dp1239
sg561
I00
sg548
(lp1240
sg552
(dp1241
sbsg856
(lp1242
sbsS'SubUnitEnergies'
p1243
(dp1244
(I5
I4
I320
tp1245
F31.490229135420151
s(I5
I4
I210
tp1246
F32.410835166519675
s(I4
I2
I130
tp1247
F33.202981928711324
s(I5
I4
I60
tp1248
F31.549461828896497
s(I5
I4
I270
tp1249
F32.198029358957818
s(I5
I4
I280
tp1250
F32.056030851090298
s(I4
I2
I180
tp1251
F33.744560929943454
s(I4
I2
I90
tp1252
F32.158714261691863
s(I5
I4
I70
tp1253
F31.660617834751143
s(I5
I4
I80
tp1254
F31.787113463916643
s(I4
I2
I140
tp1255
F33.56326316987829
s(I5
I4
I290
tp1256
F31.909081785276236
s(I5
I4
I140
tp1257
F32.453765615514598
s(I4
I2
I160
tp1258
F33.873114460791058
s(I5
I4
I30
tp1259
F31.334214218892591
s(I4
I2
I310
tp1260
F31.554528553121248
s(I5
I4
I250
tp1261
F32.404246600335718
s(I4
I2
I120
tp1262
F32.858160335982838
s(I4
I2
I270
tp1263
F31.89714772432751
s(I5
I4
I160
tp1264
F32.457375228639506
s(I5
I4
I50
tp1265
F31.457470527679906
s(I4
I2
I290
tp1266
F31.732074436217651
s(I5
I4
I110
tp1267
F32.220457099798615
s(I4
I2
I70
tp1268
F31.850972502034157
s(I5
I4
I120
tp1269
F32.343473257148695
s(I4
I2
I340
tp1270
F31.316755520178898
s(I5
I4
I330
tp1271
F31.390799797634639
s(I4
I2
I250
tp1272
F32.138214377803806
s(I5
I4
I340
tp1273
F31.323605941630586
s(I4
I2
I30
tp1274
F31.412845070838802
s(I4
I2
I300
tp1275
F31.646623279381505
s(I5
I4
I130
tp1276
F32.42189170535341
s(I4
I2
I50
tp1277
F31.605627734199093
s(I4
I2
I320
tp1278
F31.46214085828716
s(I5
I4
I200
tp1279
F32.418795831613167
s(I4
I2
I100
tp1280
F32.346648822613417
s(I5
I4
I90
tp1281
F31.926031531028844
s(I4
I2
I10
tp1282
F31.293581080444177
s(I4
I2
I280
tp1283
F31.812409499476651
s(I5
I4
I310
tp1284
F31.617655337069753
s(I5
I4
I0
tp1285
F31.272178670394531
s(I4
I2
I60
tp1286
F31.721635541052617
s(I4
I2
I80
tp1287
F31.9957433253856
s(I4
I2
I230
tp1288
F32.58409386974769
s(I5
I4
I170
tp1289
F32.456885433091365
s(I5
I4
I180
tp1290
F32.450413415263164
s(I4
I2
I40
tp1291
F31.502111092815682
s(I4
I2
I190
tp1292
F33.695341152871961
s(I4
I2
I210
tp1293
F33.274526523992918
s(I5
I4
I350
tp1294
F31.28589518129359
s(I5
I4
I40
tp1295
F31.386285076751442
s(I4
I2
I260
tp1296
F32.000456310809803
s(I4
I2
I170
tp1297
F33.807333908502123
s(I5
I4
I260
tp1298
F32.32120940226357
s(I5
I4
I150
tp1299
F32.458429448929508
s(I4
I2
I220
tp1300
F32.913075879045763
s(I5
I4
I220
tp1301
F32.416780330586498
s(I4
I2
I240
tp1302
F32.327312438267398
s(I4
I2
I20
tp1303
F31.341786619521727
s(I5
I4
I10
tp1304
F31.277425301734667
s(I5
I4
I20
tp1305
F31.298413498449918
s(I4
I2
I200
tp1306
F33.561190644970608
s(I5
I4
I230
tp1307
F32.431870172852918
s(I4
I2
I350
tp1308
F31.279907190489705
s(I5
I4
I240
tp1309
F32.436602881497926
s(I5
I4
I300
tp1310
F31.76126486888808
s(I4
I2
I0
tp1311
F31.272178670394528
s(I5
I4
I190
tp1312
F32.435238933480392
s(I4
I2
I150
tp1313
F33.817878830587333
s(I4
I2
I330
tp1314
F31.379682707249877
s(I5
I4
I100
tp1315
F32.07407831182104
s(I4
I2
I110
tp1316
F32.57394657843934
ssS'ALT_dihedrals'
p1317
g1
(g603
g3
(lp1318
g1
(g753
g3
(lp1319
g151
ag138
ag35
ag5
atRp1320
(dp1321
g609
(lp1322
S'-'
aS'-'
aS'-'
asg611
I00
sbag1
(g753
g3
(lp1323
g169
ag151
ag138
ag35
atRp1324
(dp1325
g609
(lp1326
S'-'
aS'-'
aS'-'
asg611
I00
sbag1
(g753
g3
(lp1327
g241
ag151
ag138
ag35
atRp1328
(dp1329
g609
(lp1330
S'-'
aS'-'
aS'-'
asg611
I00
sbag1
(g753
g3
(lp1331
g310
ag151
ag138
ag35
atRp1332
(dp1333
g609
(lp1334
S'-'
aS'-'
aS'-'
asg611
I00
sbag1
(g753
g3
(lp1335
g151
ag138
ag35
ag74
atRp1336
(dp1337
g609
(lp1338
S'-'
aS'-'
aS'-'
asg611
I00
sbag1
(g753
g3
(lp1339
g5
ag35
ag138
ag151
atRp1340
(dp1341
g609
(lp1342
S'-'
aS'-'
aS'-'
asg611
I00
sbag1
(g753
g3
(lp1343
g74
ag35
ag138
ag151
atRp1344
(dp1345
g609
(lp1346
S'-'
aS'-'
aS'-'
asg611
I00
sbag1
(g753
g3
(lp1347
g401
ag35
ag138
ag151
atRp1348
(dp1349
g609
(lp1350
S'-'
aS'-'
aS'-'
asg611
I00
sbag1
(g753
g3
(lp1351
g35
ag138
ag151
ag169
atRp1352
(dp1353
g609
(lp1354
S'-'
aS'-'
aS'-'
asg611
I00
sbag1
(g753
g3
(lp1355
g35
ag138
ag151
ag241
atRp1356
(dp1357
g609
(lp1358
S'-'
aS'-'
aS'-'
asg611
I00
sbag1
(g753
g3
(lp1359
g35
ag138
ag151
ag310
atRp1360
(dp1361
g609
(lp1362
S'-'
aS'-'
aS'-'
asg611
I00
sbag1
(g753
g3
(lp1363
g151
ag138
ag35
ag401
atRp1364
(dp1365
g609
(lp1366
S'-'
aS'-'
aS'-'
asg611
I00
sbag1
(g753
g3
(lp1367
g74
ag35
ag5
ag439
atRp1368
(dp1369
g609
(lp1370
S'-'
aS'-'
aS'-'
asg611
I00
sbag1
(g753
g3
(lp1371
g138
ag35
ag5
ag439
atRp1372
(dp1373
g609
(lp1374
S'-'
aS'-'
aS'-'
asg611
I00
sbag1
(g753
g3
(lp1375
g401
ag35
ag5
ag439
atRp1376
(dp1377
g609
(lp1378
S'-'
aS'-'
aS'-'
asg611
I00
sbag1
(g753
g3
(lp1379
g74
ag35
ag5
ag456
atRp1380
(dp1381
g609
(lp1382
S'-'
aS'-'
aS'-'
asg611
I00
sbag1
(g753
g3
(lp1383
g138
ag35
ag5
ag456
atRp1384
(dp1385
g609
(lp1386
S'-'
aS'-'
aS'-'
asg611
I00
sbag1
(g753
g3
(lp1387
g401
ag35
ag5
ag456
atRp1388
(dp1389
g609
(lp1390
S'-'
aS'-'
aS'-'
asg611
I00
sbag1
(g753
g3
(lp1391
g74
ag35
ag5
ag473
atRp1392
(dp1393
g609
(lp1394
S'-'
aS'-'
aS'-'
asg611
I00
sbag1
(g753
g3
(lp1395
g138
ag35
ag5
ag473
atRp1396
(dp1397
g609
(lp1398
S'-'
aS'-'
aS'-'
asg611
I00
sbag1
(g753
g3
(lp1399
g401
ag35
ag5
ag473
atRp1400
(dp1401
g609
(lp1402
S'-'
aS'-'
aS'-'
asg611
I00
sbag1
(g753
g3
(lp1403
g5
ag35
ag74
ag87
atRp1404
(dp1405
g609
(lp1406
S'-'
aS'-'
aS'-'
asg611
I00
sbag1
(g753
g3
(lp1407
g138
ag35
ag74
ag87
atRp1408
(dp1409
g609
(lp1410
S'-'
aS'-'
aS'-'
asg611
I00
sbag1
(g753
g3
(lp1411
g401
ag35
ag74
ag87
atRp1412
(dp1413
g609
(lp1414
S'-'
aS'-'
aS'-'
asg611
I00
sbag1
(g753
g3
(lp1415
g5
ag35
ag138
ag347
atRp1416
(dp1417
g609
(lp1418
S'-'
aS'-'
aS'-'
asg611
I00
sbag1
(g753
g3
(lp1419
g74
ag35
ag138
ag347
atRp1420
(dp1421
g609
(lp1422
S'-'
aS'-'
aS'-'
asg611
I00
sbag1
(g753
g3
(lp1423
g401
ag35
ag138
ag347
atRp1424
(dp1425
g609
(lp1426
S'-'
aS'-'
aS'-'
asg611
I00
sbag1
(g753
g3
(lp1427
g169
ag151
ag138
ag347
atRp1428
(dp1429
g609
(lp1430
S'-'
aS'-'
aS'-'
asg611
I00
sbag1
(g753
g3
(lp1431
g241
ag151
ag138
ag347
atRp1432
(dp1433
g609
(lp1434
S'-'
aS'-'
aS'-'
asg611
I00
sbag1
(g753
g3
(lp1435
g310
ag151
ag138
ag347
atRp1436
(dp1437
g609
(lp1438
S'-'
aS'-'
aS'-'
asg611
I00
sbag1
(g753
g3
(lp1439
g5
ag35
ag138
ag365
atRp1440
(dp1441
g609
(lp1442
S'-'
aS'-'
aS'-'
asg611
I00
sbag1
(g753
g3
(lp1443
g74
ag35
ag138
ag365
atRp1444
(dp1445
g609
(lp1446
S'-'
aS'-'
aS'-'
asg611
I00
sbag1
(g753
g3
(lp1447
g401
ag35
ag138
ag365
atRp1448
(dp1449
g609
(lp1450
S'-'
aS'-'
aS'-'
asg611
I00
sbag1
(g753
g3
(lp1451
g169
ag151
ag138
ag365
atRp1452
(dp1453
g609
(lp1454
S'-'
aS'-'
aS'-'
asg611
I00
sbag1
(g753
g3
(lp1455
g241
ag151
ag138
ag365
atRp1456
(dp1457
g609
(lp1458
S'-'
aS'-'
aS'-'
asg611
I00
sbag1
(g753
g3
(lp1459
g310
ag151
ag138
ag365
atRp1460
(dp1461
g609
(lp1462
S'-'
aS'-'
aS'-'
asg611
I00
sbag1
(g753
g3
(lp1463
g138
ag151
ag169
ag187
atRp1464
(dp1465
g609
(lp1466
S'-'
aS'-'
aS'-'
asg611
I00
sbag1
(g753
g3
(lp1467
g241
ag151
ag169
ag187
atRp1468
(dp1469
g609
(lp1470
S'-'
aS'-'
aS'-'
asg611
I00
sbag1
(g753
g3
(lp1471
g310
ag151
ag169
ag187
atRp1472
(dp1473
g609
(lp1474
S'-'
aS'-'
aS'-'
asg611
I00
sbag1
(g753
g3
(lp1475
g138
ag151
ag169
ag205
atRp1476
(dp1477
g609
(lp1478
S'-'
aS'-'
aS'-'
asg611
I00
sbag1
(g753
g3
(lp1479
g241
ag151
ag169
ag205
atRp1480
(dp1481
g609
(lp1482
S'-'
aS'-'
aS'-'
asg611
I00
sbag1
(g753
g3
(lp1483
g310
ag151
ag169
ag205
atRp1484
(dp1485
g609
(lp1486
S'-'
aS'-'
aS'-'
asg611
I00
sbag1
(g753
g3
(lp1487
g138
ag151
ag169
ag222
atRp1488
(dp1489
g609
(lp1490
S'-'
aS'-'
aS'-'
asg611
I00
sbag1
(g753
g3
(lp1491
g241
ag151
ag169
ag222
atRp1492
(dp1493
g609
(lp1494
S'-'
aS'-'
aS'-'
asg611
I00
sbag1
(g753
g3
(lp1495
g310
ag151
ag169
ag222
atRp1496
(dp1497
g609
(lp1498
S'-'
aS'-'
aS'-'
asg611
I00
sbag1
(g753
g3
(lp1499
g138
ag151
ag241
ag258
atRp1500
(dp1501
g609
(lp1502
S'-'
aS'-'
aS'-'
asg611
I00
sbag1
(g753
g3
(lp1503
g169
ag151
ag241
ag258
atRp1504
(dp1505
g609
(lp1506
S'-'
aS'-'
aS'-'
asg611
I00
sbag1
(g753
g3
(lp1507
g310
ag151
ag241
ag258
atRp1508
(dp1509
g609
(lp1510
S'-'
aS'-'
aS'-'
asg611
I00
sbag1
(g753
g3
(lp1511
g138
ag151
ag241
ag275
atRp1512
(dp1513
g609
(lp1514
S'-'
aS'-'
aS'-'
asg611
I00
sbag1
(g753
g3
(lp1515
g169
ag151
ag241
ag275
atRp1516
(dp1517
g609
(lp1518
S'-'
aS'-'
aS'-'
asg611
I00
sbag1
(g753
g3
(lp1519
g310
ag151
ag241
ag275
atRp1520
(dp1521
g609
(lp1522
S'-'
aS'-'
aS'-'
asg611
I00
sbag1
(g753
g3
(lp1523
g138
ag151
ag241
ag292
atRp1524
(dp1525
g609
(lp1526
S'-'
aS'-'
aS'-'
asg611
I00
sbag1
(g753
g3
(lp1527
g169
ag151
ag241
ag292
atRp1528
(dp1529
g609
(lp1530
S'-'
aS'-'
aS'-'
asg611
I00
sbag1
(g753
g3
(lp1531
g310
ag151
ag241
ag292
atRp1532
(dp1533
g609
(lp1534
S'-'
aS'-'
aS'-'
asg611
I00
sbag1
(g753
g3
(lp1535
g138
ag151
ag310
ag327
atRp1536
(dp1537
g609
(lp1538
S'-'
aS'-'
aS'-'
asg611
I00
sbag1
(g753
g3
(lp1539
g169
ag151
ag310
ag327
atRp1540
(dp1541
g609
(lp1542
S'-'
aS'-'
aS'-'
asg611
I00
sbag1
(g753
g3
(lp1543
g241
ag151
ag310
ag327
atRp1544
(dp1545
g609
(lp1546
S'-'
aS'-'
aS'-'
asg611
I00
sbatRp1547
sS'ALT_angles'
p1548
g1
(g603
g3
(lp1549
g1
(g697
g3
(lp1550
g74
ag35
ag5
atRp1551
(dp1552
g609
(lp1553
S'-'
aS'-'
asg611
I00
sbag1
(g697
g3
(lp1554
g138
ag35
ag5
atRp1555
(dp1556
g609
(lp1557
S'-'
aS'-'
asg611
I00
sbag1
(g697
g3
(lp1558
g401
ag35
ag5
atRp1559
(dp1560
g609
(lp1561
S'-'
aS'-'
asg611
I00
sbag1
(g697
g3
(lp1562
g151
ag138
ag35
atRp1563
(dp1564
g609
(lp1565
S'-'
aS'-'
asg611
I00
sbag1
(g697
g3
(lp1566
g5
ag35
ag74
atRp1567
(dp1568
g609
(lp1569
S'-'
aS'-'
asg611
I00
sbag1
(g697
g3
(lp1570
g138
ag35
ag74
atRp1571
(dp1572
g609
(lp1573
S'-'
aS'-'
asg611
I00
sbag1
(g697
g3
(lp1574
g401
ag35
ag74
atRp1575
(dp1576
g609
(lp1577
S'-'
aS'-'
asg611
I00
sbag1
(g697
g3
(lp1578
g5
ag35
ag138
atRp1579
(dp1580
g609
(lp1581
S'-'
aS'-'
asg611
I00
sbag1
(g697
g3
(lp1582
g74
ag35
ag138
atRp1583
(dp1584
g609
(lp1585
S'-'
aS'-'
asg611
I00
sbag1
(g697
g3
(lp1586
g401
ag35
ag138
atRp1587
(dp1588
g609
(lp1589
S'-'
aS'-'
asg611
I00
sbag1
(g697
g3
(lp1590
g169
ag151
ag138
atRp1591
(dp1592
g609
(lp1593
S'-'
aS'-'
asg611
I00
sbag1
(g697
g3
(lp1594
g241
ag151
ag138
atRp1595
(dp1596
g609
(lp1597
S'-'
aS'-'
asg611
I00
sbag1
(g697
g3
(lp1598
g310
ag151
ag138
atRp1599
(dp1600
g609
(lp1601
S'-'
aS'-'
asg611
I00
sbag1
(g697
g3
(lp1602
g35
ag138
ag151
atRp1603
(dp1604
g609
(lp1605
S'-'
aS'-'
asg611
I00
sbag1
(g697
g3
(lp1606
g138
ag151
ag169
atRp1607
(dp1608
g609
(lp1609
S'-'
aS'-'
asg611
I00
sbag1
(g697
g3
(lp1610
g241
ag151
ag169
atRp1611
(dp1612
g609
(lp1613
S'-'
aS'-'
asg611
I00
sbag1
(g697
g3
(lp1614
g310
ag151
ag169
atRp1615
(dp1616
g609
(lp1617
S'-'
aS'-'
asg611
I00
sbag1
(g697
g3
(lp1618
g138
ag151
ag241
atRp1619
(dp1620
g609
(lp1621
S'-'
aS'-'
asg611
I00
sbag1
(g697
g3
(lp1622
g169
ag151
ag241
atRp1623
(dp1624
g609
(lp1625
S'-'
aS'-'
asg611
I00
sbag1
(g697
g3
(lp1626
g310
ag151
ag241
atRp1627
(dp1628
g609
(lp1629
S'-'
aS'-'
asg611
I00
sbag1
(g697
g3
(lp1630
g138
ag151
ag310
atRp1631
(dp1632
g609
(lp1633
S'-'
aS'-'
asg611
I00
sbag1
(g697
g3
(lp1634
g169
ag151
ag310
atRp1635
(dp1636
g609
(lp1637
S'-'
aS'-'
asg611
I00
sbag1
(g697
g3
(lp1638
g241
ag151
ag310
atRp1639
(dp1640
g609
(lp1641
S'-'
aS'-'
asg611
I00
sbag1
(g697
g3
(lp1642
g5
ag35
ag401
atRp1643
(dp1644
g609
(lp1645
S'-'
aS'-'
asg611
I00
sbag1
(g697
g3
(lp1646
g74
ag35
ag401
atRp1647
(dp1648
g609
(lp1649
S'-'
aS'-'
asg611
I00
sbag1
(g697
g3
(lp1650
g138
ag35
ag401
atRp1651
(dp1652
g609
(lp1653
S'-'
aS'-'
asg611
I00
sbag1
(g697
g3
(lp1654
g35
ag5
ag439
atRp1655
(dp1656
g609
(lp1657
S'-'
aS'-'
asg611
I00
sbag1
(g697
g3
(lp1658
g35
ag5
ag456
atRp1659
(dp1660
g609
(lp1661
S'-'
aS'-'
asg611
I00
sbag1
(g697
g3
(lp1662
g439
ag5
ag456
atRp1663
(dp1664
g609
(lp1665
S'-'
aS'-'
asg611
I00
sbag1
(g697
g3
(lp1666
g35
ag5
ag473
atRp1667
(dp1668
g609
(lp1669
S'-'
aS'-'
asg611
I00
sbag1
(g697
g3
(lp1670
g439
ag5
ag473
atRp1671
(dp1672
g609
(lp1673
S'-'
aS'-'
asg611
I00
sbag1
(g697
g3
(lp1674
g456
ag5
ag473
atRp1675
(dp1676
g609
(lp1677
S'-'
aS'-'
asg611
I00
sbag1
(g697
g3
(lp1678
g35
ag74
ag87
atRp1679
(dp1680
g609
(lp1681
S'-'
aS'-'
asg611
I00
sbag1
(g697
g3
(lp1682
g35
ag138
ag347
atRp1683
(dp1684
g609
(lp1685
S'-'
aS'-'
asg611
I00
sbag1
(g697
g3
(lp1686
g151
ag138
ag347
atRp1687
(dp1688
g609
(lp1689
S'-'
aS'-'
asg611
I00
sbag1
(g697
g3
(lp1690
g35
ag138
ag365
atRp1691
(dp1692
g609
(lp1693
S'-'
aS'-'
asg611
I00
sbag1
(g697
g3
(lp1694
g151
ag138
ag365
atRp1695
(dp1696
g609
(lp1697
S'-'
aS'-'
asg611
I00
sbag1
(g697
g3
(lp1698
g347
ag138
ag365
atRp1699
(dp1700
g609
(lp1701
S'-'
aS'-'
asg611
I00
sbag1
(g697
g3
(lp1702
g151
ag169
ag187
atRp1703
(dp1704
g609
(lp1705
S'-'
aS'-'
asg611
I00
sbag1
(g697
g3
(lp1706
g151
ag169
ag205
atRp1707
(dp1708
g609
(lp1709
S'-'
aS'-'
asg611
I00
sbag1
(g697
g3
(lp1710
g187
ag169
ag205
atRp1711
(dp1712
g609
(lp1713
S'-'
aS'-'
asg611
I00
sbag1
(g697
g3
(lp1714
g151
ag169
ag222
atRp1715
(dp1716
g609
(lp1717
S'-'
aS'-'
asg611
I00
sbag1
(g697
g3
(lp1718
g187
ag169
ag222
atRp1719
(dp1720
g609
(lp1721
S'-'
aS'-'
asg611
I00
sbag1
(g697
g3
(lp1722
g205
ag169
ag222
atRp1723
(dp1724
g609
(lp1725
S'-'
aS'-'
asg611
I00
sbag1
(g697
g3
(lp1726
g151
ag241
ag258
atRp1727
(dp1728
g609
(lp1729
S'-'
aS'-'
asg611
I00
sbag1
(g697
g3
(lp1730
g151
ag241
ag275
atRp1731
(dp1732
g609
(lp1733
S'-'
aS'-'
asg611
I00
sbag1
(g697
g3
(lp1734
g258
ag241
ag275
atRp1735
(dp1736
g609
(lp1737
S'-'
aS'-'
asg611
I00
sbag1
(g697
g3
(lp1738
g151
ag241
ag292
atRp1739
(dp1740
g609
(lp1741
S'-'
aS'-'
asg611
I00
sbag1
(g697
g3
(lp1742
g258
ag241
ag292
atRp1743
(dp1744
g609
(lp1745
S'-'
aS'-'
asg611
I00
sbag1
(g697
g3
(lp1746
g275
ag241
ag292
atRp1747
(dp1748
g609
(lp1749
S'-'
aS'-'
asg611
I00
sbag1
(g697
g3
(lp1750
g151
ag310
ag327
atRp1751
(dp1752
g609
(lp1753
S'-'
aS'-'
asg611
I00
sbatRp1754
sS'temp_cif'
p1755
S'/tmp/tmpunWdW5'
p1756
sg808
g1
(g809
g3
(lp1757
g813
ag824
ag828
ag832
ag836
ag1
(g811
g3
(lp1758
g151
ag138
aF1.5271260179963839
ag35
aF112.28521038148496
ag5
aF-167.6443726591877
atRp1759
(dp1760
g818
I2
sg819
I6
sg816
I01
sg820
(lp1761
I00
aI00
aI00
asg822
I00
sg817
I4
sg600
F1.5271260179963839
sbag1
(g811
g3
(lp1762
g169
ag151
aF1.5271260194619063
ag138
aF109.47122073587056
ag35
aF-133.26988124794408
atRp1763
(dp1764
g818
I2
sg819
I6
sg816
I01
sg820
(lp1765
I00
aI00
aI00
asg822
I00
sg817
I4
sg600
F1.5271260194619063
sbag1
(g811
g3
(lp1766
g241
ag151
aF1.5271260172917753
ag138
aF109.47122056966813
ag35
aF106.73011879038779
atRp1767
(dp1768
g818
I2
sg819
I6
sg816
I01
sg820
(lp1769
I00
aI00
aI00
asg822
I00
sg817
I4
sg600
F1.5271260172917753
sbag1
(g811
g3
(lp1770
g310
ag151
aF1.4005611367004689
ag138
aF109.47122053082821
ag35
aF-13.269881255019445
atRp1771
(dp1772
g818
I2
sg819
I6
sg816
I01
sg820
(lp1773
I00
aI00
aI00
asg822
I00
sg817
I4
sg600
F1.4005611367004689
sbag1
(g811
g3
(lp1774
g439
ag5
aF1.0833090000000001
ag35
aF109.47426371950117
ag74
aF178.7515298585692
atRp1775
(dp1776
g818
I2
sg819
I6
sg816
I01
sg820
(lp1777
I00
aI00
aI01
asg822
I00
sg817
I4
sg600
F1.0833090000000001
sbag1
(g811
g3
(lp1778
g456
ag5
aF1.0833090000000001
ag35
aF109.47456750702523
ag74
aF58.749526258875463
atRp1779
(dp1780
g818
I2
sg819
I6
sg816
I01
sg820
(lp1781
I00
aI00
aI01
asg822
I00
sg817
I4
sg600
F1.0833090000000001
sbag1
(g811
g3
(lp1782
g473
ag5
aF1.0833090000000001
ag35
aF109.47241256339231
ag74
aF-61.250001595122249
atRp1783
(dp1784
g818
I2
sg819
I6
sg816
I01
sg820
(lp1785
I00
aI00
aI01
asg822
I00
sg817
I4
sg600
F1.0833090000000001
sbag1
(g811
g3
(lp1786
g87
ag74
aF0.94288300000000003
ag35
aF109.47809008327417
ag5
aF71.887440128104274
atRp1787
(dp1788
g818
I2
sg819
I6
sg816
I01
sg820
(lp1789
I00
aI00
aI01
asg822
I00
sg817
I4
sg600
F0.94288300000000003
sbag1
(g811
g3
(lp1790
g347
ag138
aF1.0833090000000001
ag35
aF108.8959788950967
ag5
aF-46.964981389481785
atRp1791
(dp1792
g818
I2
sg819
I6
sg816
I01
sg820
(lp1793
I00
aI00
aI01
asg822
I00
sg817
I4
sg600
F1.0833090000000001
sbag1
(g811
g3
(lp1794
g365
ag138
aF1.0833090000000001
ag35
aF108.89507252553364
ag5
aF71.676935428989225
atRp1795
(dp1796
g818
I2
sg819
I6
sg816
I01
sg820
(lp1797
I00
aI00
aI01
asg822
I00
sg817
I4
sg600
F1.0833090000000001
sbag1
(g811
g3
(lp1798
g187
ag169
aF1.0833090000000001
ag151
aF109.47451256814665
ag138
aF68.534508329003131
atRp1799
(dp1800
g818
I2
sg819
I6
sg816
I01
sg820
(lp1801
I00
aI00
aI01
asg822
I00
sg817
I4
sg600
F1.0833090000000001
sbag1
(g811
g3
(lp1802
g205
ag169
aF1.0833090000000001
ag151
aF109.4747956213408
ag138
aF-51.466579170479939
atRp1803
(dp1804
g818
I2
sg819
I6
sg816
I01
sg820
(lp1805
I00
aI00
aI01
asg822
I00
sg817
I4
sg600
F1.0833090000000001
sbag1
(g811
g3
(lp1806
g222
ag169
aF1.0833090000000001
ag151
aF109.47392945797476
ag138
aF-171.46641667301108
atRp1807
(dp1808
g818
I2
sg819
I6
sg816
I01
sg820
(lp1809
I00
aI00
aI01
asg822
I00
sg817
I4
sg600
F1.0833090000000001
sbag1
(g811
g3
(lp1810
g258
ag241
aF1.0833090000000001
ag151
aF109.47505387014907
ag138
aF-60.752670560002016
atRp1811
(dp1812
g818
I2
sg819
I6
sg816
I01
sg820
(lp1813
I00
aI00
aI01
asg822
I00
sg817
I4
sg600
F1.0833090000000001
sbag1
(g811
g3
(lp1814
g275
ag241
aF1.0833090000000001
ag151
aF109.4735128759167
ag138
aF179.24844074689008
atRp1815
(dp1816
g818
I2
sg819
I6
sg816
I01
sg820
(lp1817
I00
aI00
aI01
asg822
I00
sg817
I4
sg600
F1.0833090000000001
sbag1
(g811
g3
(lp1818
g292
ag241
aF1.0833090000000001
ag151
aF109.47493358125617
ag138
aF59.249008368705901
atRp1819
(dp1820
g818
I2
sg819
I6
sg816
I01
sg820
(lp1821
I00
aI00
aI01
asg822
I00
sg817
I4
sg600
F1.0833090000000001
sbag1
(g811
g3
(lp1822
g327
ag310
aF0.94288300000000003
ag151
aF109.47948156448973
ag138
aF-178.16900942797267
atRp1823
(dp1824
g818
I2
sg819
I6
sg816
I01
sg820
(lp1825
I00
aI00
aI01
asg822
I00
sg817
I4
sg600
F0.94288300000000003
sbatRp1826
(dp1827
g779
I01
sg780
g781
sg601
g507
sg602
g675
sg806
I01
sg841
(lp1828
g35
ag5
ag74
ag138
ag401
ag151
ag169
ag241
ag310
ag439
ag456
ag473
ag87
ag347
ag365
ag187
ag205
ag222
ag258
ag275
ag292
ag327
asg820
(dp1829
I9
(lp1830
I6
asI10
(lp1831
I6
asI11
(lp1832
I6
asI12
(lp1833
I6
asI13
(lp1834
I6
asI14
(lp1835
I6
asI15
(lp1836
I6
asI16
(lp1837
I6
asI17
(lp1838
I6
asI18
(lp1839
I6
asI19
(lp1840
I6
asI20
(lp1841
I6
asI21
(lp1842
I6
assg843
(dp1843
sg695
g1025
sg844
I01
sg751
g1208
sbsS'small_planar_class'
p1844
g1
(g848
g3
(ltRp1845
(dp1846
g843
g1
(g516
g517
(dtRp1847
(dp1848
g554
Nsg546
(dp1849
sg561
I00
sg548
(lp1850
sg552
(dp1851
sbsg856
(lp1852
sbsS'all_rings'
p1853
(lp1854
sS'bonds_md5'
p1855
S'1910b86bba1cd0810e553bca4a4d5b7a'
p1856
sg843
g1
(g516
g517
(dp1857
I1
(F1.5087521146107983
F0.044345198979104085
F-0.018859517310832047
tp1858
sI2
(F-0.014407870307945684
F-0.024315594175919514
F0.057614626662989027
tp1859
sI3
(F-0.40927306181197154
F-0.15176126787347644
F1.3947306181759414
tp1860
sI4
(F-0.50995872309071266
F-1.2302977136011368
F-0.7364983577946822
tp1861
sI5
(F-2.0204640000332219
F-1.1964331549211076
F-0.95862641733631782
tp1862
sI6
(F-2.6133760837667892
F-2.5660910569444333
F-0.63519733437476988
tp1863
sI7
(F-2.3129392169747827
F-0.84640900251983975
F-2.4160402957182279
tp1864
sI8
(F-2.5937735575237486
F-0.23024649479543255
F-0.12234238262028943
tp1865
sI9
(F73.300366261759024
F-54.640622491539943
F-0.47440466106922241
tp1866
sI10
(F-57.821420505861468
F101.05764932084122
F54.644974605780668
tp1867
sI11
(F-60.489978576241789
F-88.284729067300788
F-72.745273484868207
tp1868
sI12
(F16.948919960451484
F-59.650833253096664
F-31.558324441894833
tp1869
sI13
(F-38.087705897558337
F30.593001801600114
F12.261430177399983
tp1870
sI14
(F0.41060664182978612
F-66.784375766523084
F27.401489118751975
tp1871
sI15
(F36.75172521227767
F-70.306756402872679
F10.875039673253914
tp1872
sI16
(F-47.897639773576991
F-1.4808440329132813
F93.612467055715001
tp1873
sI17
(F-59.882847638205277
F-43.061321700184841
F-79.505151316358578
tp1874
sI18
(F-56.642612502616885
F86.612674834950042
F-51.795160350719939
tp1875
sI19
(F87.800409452489859
F78.164597087202424
F24.322479800380155
tp1876
sI20
(F1.8550909564137501
F39.673894948839319
F-47.330820149339495
tp1877
sI21
(F-5.233111590981343
F28.418642394928792
F-82.983696050664847
tp1878
sI22
(F58.551326828503271
F16.469979824262637
F95.64664645051738
tp1879
s(I20
I7
I19
tp1880
(lp1881
F109.47122063449069
aF1
as(I8
I5
tp1882
(lp1883
F1.398717
aF100
as(I10
I1
I2
tp1884
(lp1885
F109.47122063449069
aF1
as(I14
I4
tp1886
(lp1887
F1.0833090000000001
aF100
as(I15
I4
tp1888
(lp1889
F1.0833090000000001
aF100
asg523
g524
s(I16
I6
I5
tp1890
(lp1891
F109.47122063449069
aF1
as(I6
I5
I4
tp1892
(lp1893
F109.47122063449069
aF1
as(I8
I5
I4
tp1894
(lp1895
F109.47122063449069
aF1
as(I7
I5
tp1896
(lp1897
F1.527126
aF100
asg532
g533
s(I21
I7
I5
tp1898
(lp1899
F109.47122063449069
aF1
as(I7
I5
I6
tp1900
(lp1901
F109.47122063449069
aF1
as(I6
I5
tp1902
(lp1903
F1.527126
aF100
as(I8
I5
I6
tp1904
(lp1905
F109.47122063449069
aF1
as(I8
I5
I7
tp1906
(lp1907
F109.47122063449069
aF1
as(I7
I5
I4
tp1908
(lp1909
F109.47122063449069
aF1
as(I20
I7
tp1910
(lp1911
F1.0833090000000001
aF100
as(I17
I6
I5
tp1912
(lp1913
F109.47122063449069
aF1
as(I14
I4
I2
tp1914
(lp1915
F109.47122063449069
aF1
as(I21
I7
tp1916
(lp1917
F1.0833090000000001
aF100
as(I12
I1
I10
tp1918
(lp1919
F109.47122063449069
aF1
asg540
g541
s(I12
I1
I11
tp1920
(lp1921
F109.47122063449069
aF1
as(I17
I6
I16
tp1922
(lp1923
F109.47122063449069
aF1
as(I12
I1
tp1924
(lp1925
F1.0833090000000001
aF100
as(I18
I6
I17
tp1926
(lp1927
F109.47122063449069
aF1
as(I5
I4
tp1928
(lp1929
F1.527126
aF100
asg530
g531
s(I15
I4
I2
tp1930
(lp1931
F109.47122063449069
aF1
as(I18
I6
I16
tp1932
(lp1933
F109.47122063449069
aF1
as(I11
I1
I2
tp1934
(lp1935
F109.47122063449069
aF1
asg536
g537
s(I22
I8
I5
tp1936
(lp1937
F109.47122063449069
aF1
as(I17
I6
tp1938
(lp1939
F1.0833090000000001
aF100
as(I15
I4
I5
tp1940
(lp1941
F109.47122063449069
aF1
asg528
g529
s(I19
I7
tp1942
(lp1943
F1.0833090000000001
aF100
asg542
g543
s(I13
I3
I2
tp1944
(lp1945
F109.47122063449069
aF1
as(I5
I4
I2
tp1946
(lp1947
F112.873
aF1
as(I11
I1
tp1948
(lp1949
F1.0833090000000001
aF100
as(I12
I1
I2
tp1950
(lp1951
F109.47122063449069
aF1
as(I19
I7
I5
tp1952
(lp1953
F109.47122063449069
aF1
as(I16
I6
tp1954
(lp1955
F1.0833090000000001
aF100
as(I11
I1
I10
tp1956
(lp1957
F109.47122063449069
aF1
as(I18
I6
tp1958
(lp1959
F1.0833090000000001
aF100
as(I10
I1
tp1960
(lp1961
F1.0833090000000001
aF100
as(I18
I6
I5
tp1962
(lp1963
F109.47122063449069
aF1
as(I14
I4
I5
tp1964
(lp1965
F109.47122063449069
aF1
as(I15
I4
I14
tp1966
(lp1967
F109.47122063449069
aF1
asg525
g526
s(I13
I3
tp1968
(lp1969
F0.94288300000000003
aF100
asg534
g535
s(I21
I7
I20
tp1970
(lp1971
F109.47122063449069
aF1
as(I20
I7
I5
tp1972
(lp1973
F109.47122063449069
aF1
as(I22
I8
tp1974
(lp1975
F0.94288300000000003
aF100
as(I21
I7
I19
tp1976
(lp1977
F109.47122063449069
aF1
asg538
g539
stRp1978
(dp1979
g546
(dp1980
I1
I0
sI2
I1
sI3
I2
sI4
I3
sI5
I4
sI6
I5
sI7
I6
sI8
I7
sI9
I8
sI10
I9
sI11
I10
sI12
I11
sI13
I12
sI14
I13
sI15
I14
sI16
I15
sI17
I16
sI18
I17
sI19
I18
sI20
I19
sI21
I20
sI22
I21
ssg548
(lp1981
sg550
(lp1982
F50
asg552
(dp1983
sg554
Nsg555
(lp1984
g557
asg561
I00
sbsS'planes'
p1985
(lp1986
sS'cctbx_energy_parameters'
p1987
(lp1988
F2
aF0.66666666666666663
aF1
aI1
a(I1
I1
I1
I1
tp1989
asS'UseRestraintValues'
p1990
I01
sb.