ccopy_reg
_reconstructor
p1
(celbow.chemistry.MoleculeClass
MoleculeClass
p2
c__builtin__
list
p3
(lp4
(ielbow.chemistry.AtomClass
AtomClass
p5
(dp6
S'tempFactor'
p7
F20
sS'tmp_id'
p8
I139986370339760
sS'pi_electrons'
p9
(I2
tp10
sS'starting_xyz'
p11
(ielbow.chemistry.xyzClass
xyzClass
p12
(dp13
S'dotProduct'
p14
I1
sS'angleScale'
p15
F57.295779513082323
sS'y'
F0
sS'x'
F1.4774216237694011
sS'xyz'
p16
(F1.4774216237694011
F0
F0
tp17
sS'z'
F0
sbsg16
(ielbow.chemistry.xyzClass
xyzClass
p18
(dp19
g14
I1
sg15
F57.295779513082323
sS'y'
F-0.48328654699964646
sS'x'
F3.0676856996503137
sg16
(F3.0676856996503137
F-0.48328654699964646
F-1.23443957918611
tp20
sS'z'
F-1.23443957918611
sbsS'pos'
p21
I0
sS'sign'
p22
S''
sS'ring_id'
p23
(lp24
sS'rotation_index'
p25
I0
sS'resName'
p26
S'UDP'
p27
sS'record_name'
p28
S'HETATM'
p29
sS'serial'
p30
S'    1'
p31
sS'id'
p32
I139986370339760
sS'bonded'
p33
(lp34
(ielbow.chemistry.AtomClass
AtomClass
p35
(dp36
g7
F20
sg8
I139986370340408
sg9
(I1
tp37
sg11
(ielbow.chemistry.xyzClass
xyzClass
p38
(dp39
g14
I1
sg15
F57.295779513082323
sS'y'
F0
sS'x'
F0
sg16
(F0
F0
F0
tp40
sS'z'
F0
sbsS'smiles_index'
p41
(lp42
I22
asg21
I2
sS'chiral_index'
p43
I1
sg22
S''
sg23
(lp44
sS'aromatic'
p45
I00
sg26
S'UDP'
p46
sS'exclude'
p47
I00
sg30
S'    2'
p48
sS'ring_atom'
p49
I1
sg32
I139986370340408
sg33
(lp50
g5
a(ielbow.chemistry.AtomClass
AtomClass
p51
(dp52
g7
F20
sg8
I139986370340336
sg9
g37
sg11
(ielbow.chemistry.xyzClass
xyzClass
p53
(dp54
g14
I1
sg15
F57.295779513082323
sS'y'
F0
sS'x'
F-0.53260615190547866
sg16
(F-0.53260615190547866
F0
F1.4573521035540664
tp55
sS'z'
F1.4573521035540664
sbsg41
(lp56
I5
asg21
I9
sg43
I2
sg22
S''
sg23
(lp57
sg45
I00
sg26
S'UDP'
p58
sg47
I00
sg30
S'    3'
p59
sg49
I1
sg32
I139986370340336
sg33
(lp60
g35
a(ielbow.chemistry.AtomClass
AtomClass
p61
(dp62
g7
F20
sg8
I139986370276672
sg9
g37
sg11
(ielbow.chemistry.xyzClass
xyzClass
p63
(dp64
g14
I1
sg15
F57.295779513082323
sS'y'
F1.2099994650064219
sS'x'
F-1.1077205719401944
sg16
(F-1.1077205719401944
F1.2099994650064219
F1.7540173385533318
tp65
sS'z'
F1.7540173385533318
sbsg16
(ielbow.chemistry.xyzClass
xyzClass
p66
(dp67
g14
I1
sg15
F57.295779513082323
sS'y'
F0.62106618972853034
sS'x'
F0.47220803016606827
sg16
(F0.47220803016606827
F0.62106618972853034
F0.56919290298648884
tp68
sS'z'
F0.56919290298648884
sbsg21
I15
sg22
S''
sg23
(lp69
sg25
I3
sg26
S'UDP'
p70
sg28
g29
sg30
S'    4'
p71
sg32
I139986370276672
sg33
(lp72
(ielbow.chemistry.AtomClass
AtomClass
p73
(dp74
g9
g10
sg11
(ielbow.chemistry.xyzClass
xyzClass
p75
(dp76
g14
I1
sg15
F57.295779513082323
sS'y'
F2.2312244650101469
sS'x'
F-0.25580839888188378
sg16
(F-0.25580839888188378
F2.2312244650101469
F1.2910522506536251
tp77
sS'z'
F1.2910522506536251
sbsg16
(ielbow.chemistry.xyzClass
xyzClass
p78
(dp79
g14
I1
sg15
F57.295779513082323
sS'y'
F1.3029439015321616
sS'x'
F1.3760847661734414
sg16
(F1.3760847661734414
F1.3029439015321616
F1.4094046703878194
tp80
sS'z'
F1.4094046703878194
sbsg21
I16
sg23
(lp81
sg25
I4
sS'hydrogenised'
p82
I01
sS'occupancy'
p83
F1
sS'charge'
p84
I0
sS'input_index'
p85
I4
sS'unique_residue_key'
p86
S'UDP:1:A:'
p87
sS'unique_residue_key_altloc'
p88
S'UDP:1:A:???'
p89
sg28
g29
sS'cif_index'
p90
I4
sS'number'
p91
I8
sS'original_serial'
p92
S'    5'
p93
sS'cif_energy_type'
p94
S'O2'
p95
sS'name'
p96
S' O05'
p97
sS'resSeq'
p98
I1
sS'original_index'
p99
I5
sS'iCode'
p100
S' '
sS'x'
F1.3760847661734414
sS'z'
F1.4094046703878194
sg7
F20
sg8
I139986370340048
sg22
S''
sg41
(lp101
I8
asg26
S'UDP'
p102
sg30
S'    5'
p103
sg32
I139986370340048
sg33
(lp104
g61
a(ielbow.chemistry.AtomClass
AtomClass
p105
(dp106
g9
(I1
I2
tp107
sg11
(ielbow.chemistry.xyzClass
xyzClass
p108
(dp109
g14
I1
sg15
F57.295779513082323
sS'y'
F3.6460019702485642
sS'x'
F-0.17289584664457058
sg16
(F-0.17289584664457058
F3.6460019702485642
F2.1560197008234323
tp110
sS'z'
F2.1560197008234323
sbsg41
(lp111
I9
asg21
I18
sg23
(lp112
sg25
I5
sg82
I01
sg83
F1
sg84
I0
sg85
I5
sg86
S'UDP:1:A:'
p113
sg88
S'UDP:1:A:???'
p114
sg28
g29
sg90
I5
sg91
I15
sg92
S'    6'
p115
sg94
S'P'
sg96
S' P06'
p116
sg98
I1
sg99
I6
sg100
S' '
sS'x'
F0.782256407733676
sS'z'
F2.7489422650652222
sg16
(ielbow.chemistry.xyzClass
xyzClass
p117
(dp118
g14
I1
sg15
F57.295779513082323
sS'y'
F2.069911646505703
sS'x'
F0.782256407733676
sg16
(F0.782256407733676
F2.069911646505703
F2.7489422650652222
tp119
sS'z'
F2.7489422650652222
sbsg7
F20
sg8
I139986370340912
sg22
S''
sg26
S'UDP'
p120
sg30
S'    6'
p121
sg32
I139986370340912
sg33
(lp122
g73
a(ielbow.chemistry.AtomClass
AtomClass
p123
(dp124
g9
g10
sg11
(ielbow.chemistry.xyzClass
xyzClass
p125
(dp126
g14
I0
sg15
F57.295779513082323
sS'y'
F3.7250075448724069
sS'x'
F1.159298939622496
sg16
(F1.159298939622496
F3.7250075448724069
F2.866183579046182
tp127
sS'z'
F2.866183579046182
sbsg16
(ielbow.chemistry.xyzClass
xyzClass
p128
(dp129
g14
I1
sg15
F57.295779513082323
sS'y'
F1.2078104216871426
sS'x'
F-0.27308966177067084
sg16
(F-0.27308966177067084
F1.2078104216871426
F3.3951989637138431
tp130
sS'z'
F3.3951989637138431
sbsg21
I22
sg23
(lp131
sg25
I6
sg82
I01
sg83
F1
sg84
I-1
sg85
I6
sg86
S'UDP:1:A:'
p132
sg88
S'UDP:1:A:???'
p133
sg28
g29
sg90
I6
sg91
I8
sg92
S'    7'
p134
sg94
S'OP'
p135
sg96
S' O07'
p136
sg98
I1
sg99
I7
sg100
S' '
sS'x'
F-0.27308966177067084
sS'z'
F3.3951989637138431
sg7
F20
sg8
I139986370340264
sg22
S''
sg41
(lp137
I10
asg26
S'UDP'
p138
sg30
S'    7'
p139
sg32
I139986370340264
sg33
(lp140
g105
asS'index'
p141
I7
sS'pre_pdb_write_index'
p142
NsS'ph_removed_hydrogen'
p143
I01
sS'cip_done'
p144
S'139986369650456_3'
p145
sS'ring_id_backup'
p146
(lp147
sS'chainID'
p148
S'A'
sS'cif_name'
p149
g136
sS'symbol'
p150
S'O'
sS'segID'
p151
S'A'
sS'old_xyz'
p152
g128
sS'randomised'
p153
I01
sS'chiral'
p154
S''
sS'element'
p155
S'O'
sS'mass'
p156
F15.9994
sS'y'
F1.2078104216871426
sba(ielbow.chemistry.AtomClass
AtomClass
p157
(dp158
g9
g10
sg11
(ielbow.chemistry.xyzClass
xyzClass
p159
(dp160
g14
I0
sg15
F57.295779513082323
sS'y'
F3.6805165485802571
sS'x'
F-1.2877041396130986
sg16
(F-1.2877041396130986
F3.6805165485802571
F3.172772710866496
tp161
sS'z'
F3.172772710866496
sbsg16
(ielbow.chemistry.xyzClass
xyzClass
p162
(dp163
g14
I1
sg15
F57.295779513082323
sS'y'
F3.391262047452031
sS'x'
F0.17444399992735682
sg16
(F0.17444399992735682
F3.391262047452031
F2.3438634247291126
tp164
sS'z'
F2.3438634247291126
sbsg21
I26
sg23
(lp165
sg25
I7
sg82
I01
sg83
F1
sg84
I0
sg85
I7
sg86
S'UDP:1:A:'
p166
sg88
S'UDP:1:A:???'
p167
sg28
g29
sg90
I7
sg91
I8
sg92
S'    8'
p168
sg94
S'O'
sg96
S' O08'
p169
sg98
I1
sg99
I8
sg100
S' '
sS'x'
F0.17444399992735682
sS'z'
F2.3438634247291126
sg7
F20
sg8
I139986370340984
sg22
S''
sg41
(lp170
I11
asg26
S'UDP'
p171
sg30
S'    8'
p172
sg32
I139986370340984
sg33
(lp173
g105
asg141
I8
sg142
Nsg144
g145
sg146
(lp174
sg148
S'A'
sg149
g169
sg150
S'O'
sg151
S'A'
sg152
g162
sg153
I01
sg154
S''
sg155
S'O'
sg156
F15.9994
sS'y'
F3.391262047452031
sba(ielbow.chemistry.AtomClass
AtomClass
p175
(dp176
g9
g10
sg11
(ielbow.chemistry.xyzClass
xyzClass
p177
(dp178
g14
I1
sg15
F57.295779513082323
sS'y'
F4.9305961185685589
sS'x'
F-0.32556399874897135
sg16
(F-0.32556399874897135
F4.9305961185685589
F1.1269056339327392
tp179
sS'z'
F1.1269056339327392
sbsg16
(ielbow.chemistry.xyzClass
xyzClass
p180
(dp181
g14
I1
sg15
F57.295779513082323
sS'y'
F2.3349892497540425
sS'x'
F2.0113917111654684
sg16
(F2.0113917111654684
F2.3349892497540425
F3.8235222337139718
tp182
sS'z'
F3.8235222337139718
sbsg21
I28
sg23
(lp183
sg25
I8
sg82
I01
sg83
F1
sg84
I0
sg85
I8
sg86
S'UDP:1:A:'
p184
sg88
S'UDP:1:A:???'
p185
sg28
g29
sg90
I8
sg91
I8
sg92
S'    9'
p186
sg94
g95
sg96
S' O09'
p187
sg98
I1
sg99
I9
sg100
S' '
sS'x'
F2.0113917111654684
sS'z'
F3.8235222337139718
sg7
F20
sg8
I139986370340120
sg22
S''
sg41
(lp188
I12
asg26
S'UDP'
p189
sg30
S'    9'
p190
sg32
I139986370340120
sg33
(lp191
g105
a(ielbow.chemistry.AtomClass
AtomClass
p192
(dp193
g9
g107
sg11
(ielbow.chemistry.xyzClass
xyzClass
p194
(dp195
g14
I1
sg15
F57.295779513082323
sS'y'
F6.0049480414322733
sS'x'
F-1.5791378697542435
sg16
(F-1.5791378697542435
F6.0049480414322733
F1.1829719310690354
tp196
sS'z'
F1.1829719310690354
sbsg16
(ielbow.chemistry.xyzClass
xyzClass
p197
(dp198
g14
I1
sg15
F57.295779513082323
sS'y'
F2.403693023024438
sS'x'
F1.7972791751021013
sg16
(F1.7972791751021013
F2.403693023024438
F5.4617417388111651
tp199
sS'z'
F5.4617417388111651
sbsg21
I29
sg23
(lp200
sg25
I9
sg82
I01
sg83
F1
sg84
I0
sg85
I9
sg86
S'UDP:1:A:'
p201
sg88
S'UDP:1:A:???'
p202
sg28
g29
sg90
I9
sg91
I15
sg92
S'   10'
p203
sg94
S'P'
sg96
S' P10'
p204
sg98
I1
sg99
I10
sg100
S' '
sS'x'
F1.7972791751021013
sS'z'
F5.4617417388111651
sg7
F20
sg8
I139986370340840
sg22
S''
sg41
(lp205
I13
asg26
S'UDP'
p206
sg30
S'   10'
p207
sg32
I139986370340840
sg33
(lp208
g175
a(ielbow.chemistry.AtomClass
AtomClass
p209
(dp210
g9
g10
sg11
(ielbow.chemistry.xyzClass
xyzClass
p211
(dp212
g14
I0
sg15
F57.295779513082323
sS'y'
F5.2591013739790666
sS'x'
F-2.8864630206775468
sg16
(F-2.8864630206775468
F5.2591013739790666
F1.0732095784812465
tp213
sS'z'
F1.0732095784812465
sbsg16
(ielbow.chemistry.xyzClass
xyzClass
p214
(dp215
g14
I1
sg15
F57.295779513082323
sS'y'
F3.5536272337379926
sS'x'
F0.87803541121293049
sg16
(F0.87803541121293049
F3.5536272337379926
F5.8021868462707289
tp216
sS'z'
F5.8021868462707289
sbsg21
I31
sg23
(lp217
sg25
I10
sg82
I01
sg83
F1
sg84
I-1
sg85
I10
sg86
S'UDP:1:A:'
p218
sg88
S'UDP:1:A:???'
p219
sg28
g29
sg90
I10
sg91
I8
sg92
S'   11'
p220
sg94
S'OP'
p221
sg96
S' O11'
p222
sg98
I1
sg99
I11
sg100
S' '
sS'x'
F0.87803541121293049
sS'z'
F5.8021868462707289
sg7
F20
sg8
I139986370340552
sg22
S''
sg41
(lp223
I14
asg26
S'UDP'
p224
sg30
S'   11'
p225
sg32
I139986370340552
sg33
(lp226
g192
asg141
I11
sg142
Nsg143
I01
sg146
(lp227
sg148
S'A'
sg149
g222
sg150
S'O'
sg151
S'A'
sg152
g214
sg153
I01
sg154
S''
sg155
S'O'
sg156
F15.9994
sS'y'
F3.5536272337379926
sba(ielbow.chemistry.AtomClass
AtomClass
p228
(dp229
g9
g10
sg11
(ielbow.chemistry.xyzClass
xyzClass
p230
(dp231
g14
I0
sg15
F57.295779513082323
sS'y'
F6.9805250676756314
sS'x'
F-1.4578178924610543
sg16
(F-1.4578178924610543
F6.9805250676756314
F0.034961333561870811
tp232
sS'z'
F0.034961333561870811
sbsg16
(ielbow.chemistry.xyzClass
xyzClass
p233
(dp234
g14
I1
sg15
F57.295779513082323
sS'y'
F2.6109887856388956
sS'x'
F3.1354386781101113
sg16
(F3.1354386781101113
F2.6109887856388956
F6.136684106626646
tp235
sS'z'
F6.136684106626646
sbsg21
I34
sg23
(lp236
sg25
I11
sg82
I01
sg83
F1
sg84
I-1
sg85
I11
sg86
S'UDP:1:A:'
p237
sg88
S'UDP:1:A:???'
p238
sg28
g29
sg90
I11
sg91
I8
sg92
S'   12'
p239
sg94
S'OP'
p240
sg96
S' O12'
p241
sg98
I1
sg99
I12
sg100
S' '
sS'x'
F3.1354386781101113
sS'z'
F6.136684106626646
sg7
F20
sg8
I139986370340696
sg22
S''
sg41
(lp242
I15
asg26
S'UDP'
p243
sg30
S'   12'
p244
sg32
I139986370340696
sg33
(lp245
g192
asg141
I12
sg142
Nsg143
I01
sg146
(lp246
sg148
S'A'
sg149
g241
sg150
S'O'
sg151
S'A'
sg152
g233
sg153
I01
sg154
S''
sg155
S'O'
sg156
F15.9994
sS'y'
F2.6109887856388956
sba(ielbow.chemistry.AtomClass
AtomClass
p247
(dp248
g9
g10
sg11
(ielbow.chemistry.xyzClass
xyzClass
p249
(dp250
g14
I0
sg15
F57.295779513082323
sS'y'
F6.7593356984041915
sS'x'
F-1.5380965572357961
sg16
(F-1.5380965572357961
F6.7593356984041915
F2.4910746447824748
tp251
sS'z'
F2.4910746447824748
sbsg16
(ielbow.chemistry.xyzClass
xyzClass
p252
(dp253
g14
I1
sg15
F57.295779513082323
sS'y'
F1.10864426143865
sS'x'
F1.1840051079634912
sg16
(F1.1840051079634912
F1.10864426143865
F5.9448756390738104
tp254
sS'z'
F5.9448756390738104
sbsg21
I37
sg23
(lp255
sg25
I12
sg82
I01
sg83
F1
sg84
I0
sg85
I12
sg86
S'UDP:1:A:'
p256
sg88
S'UDP:1:A:???'
p257
sg28
g29
sg90
I12
sg91
I8
sg92
S'   13'
p258
sg94
S'O'
sg96
S' O13'
p259
sg98
I1
sg99
I13
sg100
S' '
sS'x'
F1.1840051079634912
sS'z'
F5.9448756390738104
sg7
F20
sg8
I139986370339832
sg22
S''
sg41
(lp260
I16
asg26
S'UDP'
p261
sg30
S'   13'
p262
sg32
I139986370339832
sg33
(lp263
g192
asg141
I13
sg142
Nsg146
(lp264
sg148
S'A'
sg149
g259
sg150
S'O'
sg151
S'A'
sg152
g252
sg153
I01
sg154
S''
sg155
S'O'
sg156
F15.9994
sS'y'
F1.10864426143865
sbasg141
I10
sg142
Nsg146
(lp265
sg148
S'A'
sg149
g204
sg150
S'P'
sg151
S'A'
sg152
g197
sg153
I01
sg154
S''
sg155
S'P'
sg156
F30.973759999999999
sS'y'
F2.403693023024438
sbasg141
I9
sg142
Nsg144
g145
sg146
(lp266
sg148
S'A'
sg149
g187
sg150
S'O'
sg151
S'A'
sg152
g180
sg153
I01
sg154
S''
sg155
S'O'
sg156
F15.9994
sS'y'
F2.3349892497540425
sbasg141
I6
sg142
Nsg144
S'139986369650456_3'
p267
sg146
(lp268
sg148
S'A'
sg149
g116
sg150
S'P'
sg151
S'A'
sg152
g117
sg153
I01
sg154
S'@'
sg155
S'P'
sg156
F30.973759999999999
sS'y'
F2.069911646505703
sbasg141
I5
sg142
Nsg144
S'139986369650456_3'
p269
sg146
(lp270
sg148
S'A'
sg149
g97
sg150
S'O'
sg151
S'A'
sg152
g78
sg153
I01
sg154
S''
sg155
S'O'
sg156
F15.9994
sS'y'
F1.3029439015321616
sbag51
a(ielbow.chemistry.AtomClass
AtomClass
p271
(dp272
g146
(lp273
sg148
S'A'
sg149
S'H041'
p274
sg9
Nsg90
I31
sg7
F20
sg11
(ielbow.chemistry.xyzClass
xyzClass
p275
(dp276
g14
I0
sg15
F57.295779513082323
sS'y'
F1.2870139205593438
sS'x'
F-2.0703277968341305
sg16
(F-2.0703277968341305
F1.2870139205593438
F1.2630850685823285
tp277
sS'z'
F1.2630850685823285
sbsg16
(ielbow.chemistry.xyzClass
xyzClass
p278
(dp279
g14
I1
sg15
F57.295779513082323
sS'y'
F1.2194606607972505
sS'x'
F0.27015998838004163
sg16
(F0.27015998838004163
F1.2194606607972505
F-0.31271963263403502
tp280
sS'z'
F-0.31271963263403502
sbsg91
I1
sg22
S''
sg23
(lp281
sg8
I139986369865056
sg25
I31
sg86
S'UDP:1:A:'
p282
sg26
S'UDP'
p283
sg28
g29
sg30
S'   32'
p284
sg151
S'A'
sg152
g278
sg32
I139986369865056
sg33
(lp285
g61
asg154
S''
sg141
I32
sg142
Nsg94
S'HCH2'
p286
sg153
I01
sg96
g274
sg98
I1
sg99
I32
sg82
I01
sg83
F1
sg155
S'H'
sg84
I0
sg100
S' '
sg156
F1.0079
sg85
I31
sS'y'
F1.2194606607972505
sS'x'
F0.27015998838004163
sg92
S'   32'
p287
sS'z'
F-0.31271963263403502
sg150
S'H'
sg88
S'UDP:1:A:???'
p288
sba(ielbow.chemistry.AtomClass
AtomClass
p289
(dp290
g146
(lp291
sg148
S'A'
sg149
S'H042'
p292
sg9
Nsg90
I32
sg7
F20
sg11
(ielbow.chemistry.xyzClass
xyzClass
p293
(dp294
g14
I0
sg15
F57.295779513082323
sS'y'
F1.2999626897416114
sS'x'
F-1.2365015853522889
sg16
(F-1.2365015853522889
F1.2999626897416114
F2.8258757518994226
tp295
sS'z'
F2.8258757518994226
sbsg16
(ielbow.chemistry.xyzClass
xyzClass
p296
(dp297
g14
I1
sg15
F57.295779513082323
sS'y'
F0.43374657066809857
sS'x'
F-0.45096463023823974
sg16
(F-0.45096463023823974
F0.43374657066809857
F1.1024059623690889
tp298
sS'z'
F1.1024059623690889
sbsg91
I1
sg22
S''
sg23
(lp299
sg8
I139986369864912
sg25
I32
sg86
S'UDP:1:A:'
p300
sg26
S'UDP'
p301
sg28
g29
sg30
S'   33'
p302
sg151
S'A'
sg152
g296
sg32
I139986369864912
sg33
(lp303
g61
asg154
S''
sg141
I33
sg142
Nsg94
g286
sg153
I01
sg96
g292
sg98
I1
sg99
I33
sg82
I01
sg83
F1
sg155
S'H'
sg84
I0
sg100
S' '
sg156
F1.0079
sg85
I32
sS'y'
F0.43374657066809857
sS'x'
F-0.45096463023823974
sg92
S'   33'
p304
sS'z'
F1.1024059623690889
sg150
S'H'
sg88
S'UDP:1:A:???'
p305
sbasg141
I4
sg142
NsS'cip_priority'
p306
I2
sg82
I01
sg83
F1
sg84
I0
sg85
I3
sg144
S'139986369650456_3'
p307
sg41
(lp308
I7
asg88
S'UDP:1:A:???'
p309
sg146
(lp310
sS'junk'
p311
(ielbow.chemistry.xyzClass
xyzClass
p312
(dp313
g14
I1
sg15
F57.295779513082323
sS'y'
F0.11942112092678224
sS'x'
F-0.46467311398318151
sg16
(F-0.46467311398318151
F0.11942112092678224
F1.3585872940975285
tp314
sS'z'
F1.3585872940975285
sbsg148
S'A'
sg149
S' C04'
p315
sg90
I3
sg150
S'C'
sg91
I6
sg151
S'A'
sg92
S'    4'
p316
sg86
S'UDP:1:A:'
p317
sg94
S'CH2'
p318
sg152
g66
sg96
g315
sg153
I01
sg154
S''
sg98
I1
sg99
I4
sg155
S'C'
sg100
S' '
sg156
F12.010999999999999
sS'y'
F0.62106618972853034
sS'x'
F0.47220803016606827
sS'z'
F0.56919290298648884
sS'cip_levels'
p319
g1
(celbow.chemistry.CIPMixins
PriorityClass
p320
g3
(lp321
I6
a(lp322
I8
aa(lp323
I15
aa(lp324
I8
aI8
aI8
aI8
aa(lp325
I15
aa(lp326
I8
aI8
aI8
aI8
aa(lp327
atRp328
sba(ielbow.chemistry.AtomClass
AtomClass
p329
(dp330
g7
F20
sg8
I139986370341560
sg9
g10
sg11
(ielbow.chemistry.xyzClass
xyzClass
p331
(dp332
g14
I1
sg15
F57.295779513082323
sS'y'
F-1.1606334670230389
sS'x'
F-1.625268621732666
sg16
(F-1.625268621732666
F-1.1606334670230389
F1.5161781995169699
tp333
sS'z'
F1.5161781995169699
sbsg16
(ielbow.chemistry.xyzClass
xyzClass
p334
(dp335
g14
I1
sg15
F57.295779513082323
sS'y'
F-1.7237975323200943
sS'x'
F-0.060034926646026276
sg16
(F-0.060034926646026276
F-1.7237975323200943
F0.16762725623862074
tp336
sS'z'
F0.16762725623862074
sbsg21
I39
sg22
S''
sg23
(lp337
sg45
I00
sg26
S'UDP'
p338
sg47
I00
sg30
S'   14'
p339
sg49
I1
sg32
I139986370341560
sg33
(lp340
g51
a(ielbow.chemistry.AtomClass
AtomClass
p341
(dp342
g7
F20
sg8
I139986370341776
sg9
g37
sg11
(ielbow.chemistry.xyzClass
xyzClass
p343
(dp344
g14
I1
sg15
F57.295779513082323
sS'y'
F-1.4862203464684862
sS'x'
F-1.8500120129252031
sg16
(F-1.8500120129252031
F-1.4862203464684862
F0.28135891951326619
tp345
sS'z'
F0.28135891951326619
sbsg41
(lp346
I18
asg21
I41
sg43
I4
sg22
S''
sg23
(lp347
sg45
I00
sg26
S'UDP'
p348
sg47
I00
sg30
S'   15'
p349
sg49
I1
sg32
I139986370341776
sg33
(lp350
g329
a(ielbow.chemistry.AtomClass
AtomClass
p351
(dp352
g7
F20
sg8
I139986370341272
sg9
g37
sg11
(ielbow.chemistry.xyzClass
xyzClass
p353
(dp354
g14
I1
sg15
F57.295779513082323
sS'y'
F-1.1215238225515567
sS'x'
F-0.45527950443252385
sg16
(F-0.45527950443252385
F-1.1215238225515567
F-0.54276987991900316
tp355
sS'z'
F-0.54276987991900316
sbsg41
(lp356
I20
asg21
I47
sg43
I5
sg22
S''
sg23
(lp357
sg45
I00
sg26
S'UDP'
p358
sg47
I00
sg30
S'   16'
p359
sg49
I1
sg32
I139986370341272
sg33
(lp360
(ielbow.chemistry.AtomClass
AtomClass
p361
(dp362
g7
F20
sg8
I139986370341416
sg9
g10
sg11
(ielbow.chemistry.xyzClass
xyzClass
p363
(dp364
g14
I1
sg15
F57.295779513082323
sS'y'
F-2.1685808365305421
sS'x'
F0.49930952781230165
sg16
(F0.49930952781230165
F-2.1685808365305421
F-0.3781283832416511
tp365
sS'z'
F-0.3781283832416511
sbsg16
(ielbow.chemistry.xyzClass
xyzClass
p366
(dp367
g14
I1
sg15
F57.295779513082323
sS'y'
F-2.612266128833646
sS'x'
F2.0793015502883221
sg16
(F2.0793015502883221
F-2.612266128833646
F-1.7677942296674056
tp368
sS'z'
F-1.7677942296674056
sbsg21
I53
sg22
S''
sg23
(lp369
sg25
I16
sg26
S'UDP'
p370
sg28
g29
sg30
S'   17'
p371
sg32
I139986370341416
sg33
(lp372
g351
a(ielbow.chemistry.AtomClass
AtomClass
p373
(dp374
g146
(lp375
sg148
S'A'
sg149
S'H171'
p376
sg9
Nsg90
I33
sg7
F20
sg11
(ielbow.chemistry.xyzClass
xyzClass
p377
(dp378
g14
I1
sg15
F57.295779513082323
sS'y'
F-2.5189562571665087
sS'x'
F0.73039270870565154
sg16
(F0.73039270870565154
F-2.5189562571665087
F-1.2224422939474862
tp379
sS'z'
F-1.2224422939474862
sbsg16
(ielbow.chemistry.xyzClass
xyzClass
p380
(dp381
g14
I1
sg15
F57.295779513082323
sS'y'
F-2.9022021091320802
sS'x'
F2.3251097485836443
sg16
(F2.3251097485836443
F-2.9022021091320802
F-2.6328491169666224
tp382
sS'z'
F-2.6328491169666224
sbsg91
I1
sg22
S''
sg23
(lp383
sg8
I139986370029832
sg25
I33
sg86
S'UDP:1:A:'
p384
sg26
S'UDP'
p385
sg28
g29
sg30
S'   34'
p386
sg151
S'A'
sg152
g380
sg32
I139986370029832
sg33
(lp387
g361
asg154
S''
sg141
I34
sg142
Nsg94
S'HOH1'
p388
sg153
I01
sg96
g376
sg98
I1
sg99
I34
sg82
I01
sg83
F1
sg155
S'H'
sg84
I0
sg100
S' '
sg156
F1.0079
sg85
I36
sS'y'
F-2.9022021091320802
sS'x'
F2.3251097485836443
sg92
S'   34'
p389
sS'z'
F-2.6328491169666224
sg150
S'H'
sg88
S'UDP:1:A:???'
p390
sbasg141
I17
sg142
Nsg306
I3
sg82
I01
sg83
F1
sg84
I0
sg85
I16
sg144
S'139986369650456_4'
p391
sg41
(lp392
I23
asg88
S'UDP:1:A:???'
p393
sg146
(lp394
sg311
(ielbow.chemistry.xyzClass
xyzClass
p395
(dp396
g14
I1
sg15
F57.295779513082323
sS'y'
F1.0016676354126681
sS'x'
F-0.7354682168965303
sg16
(F-0.7354682168965303
F1.0016676354126681
F-1.0403671634764513
tp397
sS'z'
F-1.0403671634764513
sbsg148
S'A'
sg149
S' O17'
p398
sg90
I16
sg150
S'O'
sg91
I8
sg151
S'A'
sg92
S'   17'
p399
sg86
S'UDP:1:A:'
p400
sg94
S'OH1'
p401
sg152
g366
sg96
g398
sg153
I01
sg154
S''
sg98
I1
sg99
I17
sg155
S'O'
sg100
S' '
sg156
F15.9994
sS'y'
F-2.612266128833646
sS'x'
F2.0793015502883221
sS'z'
F-1.7677942296674056
sg319
g1
(g320
g3
(lp402
I8
a(lp403
a(lp404
a(lp405
a(lp406
a(lp407
a(lp408
atRp409
sbag341
ag35
a(ielbow.chemistry.AtomClass
AtomClass
p410
(dp411
g7
F20
sg8
I139986369868504
sg9
Nsg11
(ielbow.chemistry.xyzClass
xyzClass
p412
(dp413
g14
I1
sg15
F57.295779513082323
sS'y'
F-0.96631389283831415
sS'x'
F-0.67227303683168194
sg16
(F-0.67227303683168194
F-0.96631389283831415
F-1.592713723225085
tp414
sS'z'
F-1.592713723225085
sbsg41
(lp415
I21
asg91
I1
sg22
S''
sg23
(lp416
sg25
I28
sg26
S'UDP'
p417
sg28
g29
sg30
S'   29'
p418
sg32
I139986369868504
sg33
(lp419
g351
asg141
I29
sg142
Nsg306
I0
sg82
I01
sg83
F1
sg84
I0
sg85
I28
sg144
S'139986369650456_2'
p420
sg16
(ielbow.chemistry.xyzClass
xyzClass
p421
(dp422
g14
I1
sg15
F57.295779513082323
sS'y'
F-1.3278038728853163
sS'x'
F0.9315755807200311
sg16
(F0.9315755807200311
F-1.3278038728853163
F-2.9123562782406243
tp423
sS'z'
F-2.9123562782406243
sbsg88
S'UDP:1:A:???'
p424
sg146
(lp425
sg311
(ielbow.chemistry.xyzClass
xyzClass
p426
(dp427
g14
I1
sg15
F57.295779513082323
sS'y'
F-0.00061946403717005882
sS'x'
F0.0067464771132993984
sg16
(F0.0067464771132993984
F-0.00061946403717005882
F0.0075485033644956401
tp428
sS'z'
F0.0075485033644956401
sbsg148
S'A'
sg149
S'H161'
p429
sS'original_hydrogen'
p430
I01
sg90
I28
sg150
S'H'
sg151
S'A'
sg92
S'   29'
p431
sg86
S'UDP:1:A:'
p432
sg94
S'HCH1'
p433
sg152
g421
sg96
g429
sg153
I01
sg154
S''
sg98
I1
sg99
I29
sS'added_for_chiral'
p434
I01
sg155
S'H'
sg100
S' '
sg156
F1.0079
sS'y'
F-1.3278038728853163
sS'x'
F0.9315755807200311
sS'z'
F-2.9123562782406243
sg319
g1
(g320
g3
(lp435
I1
a(lp436
a(lp437
a(lp438
a(lp439
a(lp440
a(lp441
atRp442
sbasg141
I16
sg142
Nsg306
I1
sg82
I01
sS'overlap'
p443
I01
sg84
I0
sg98
I1
sg85
I15
sg16
(ielbow.chemistry.xyzClass
xyzClass
p444
(dp445
g14
I1
sg15
F57.295779513082323
sS'y'
F-1.5542154310120111
sS'x'
F1.1356927825017262
sg16
(F1.1356927825017262
F-1.5542154310120111
F-1.8726746960140241
tp446
sS'z'
F-1.8726746960140241
sbsg83
F1
sg146
(lp447
sg311
(ielbow.chemistry.xyzClass
xyzClass
p448
(dp449
g14
I1
sg15
F57.295779513082323
sS'y'
F-0.00061963567919787557
sS'x'
F0.006746411228753889
sg16
(F0.006746411228753889
F-0.00061963567919787557
F0.0075484096650619411
tp450
sS'z'
F0.0075484096650619411
sbsg148
S'A'
sg149
S' C16'
p451
sS'bond_symbol'
p452
S'-'
sg90
I15
sg28
g29
sg150
S'C'
sS'bond_order'
p453
I1
sg91
I6
sg151
S'A'
sg92
S'   16'
p454
sg86
S'UDP:1:A:'
p455
sg94
S'CH1'
p456
sg152
g444
sg96
g451
sg153
I01
sg154
S'@'
sS'alternating_ring_index'
p457
I0
sS'ring_bonded'
p458
(lp459
g341
ag35
asS'ring_index'
p460
I1
sg155
S'C'
sg100
S' '
sg156
F12.010999999999999
sg88
S'UDP:1:A:???'
p461
sS'ring_indices_list'
p462
(lp463
I0
asS'y'
F-1.5542154310120111
sS'x'
F1.1356927825017262
sS'z'
F-1.8726746960140241
sg319
g1
(g320
g3
(ltRp464
sg99
I16
sg25
I15
sba(ielbow.chemistry.AtomClass
AtomClass
p465
(dp466
g7
F20
sg8
I139986370340480
sg9
(I1
I2
tp467
sg11
(ielbow.chemistry.xyzClass
xyzClass
p468
(dp469
g14
I1
sg15
F57.295779513082323
sS'y'
F-0.72459292554068921
sS'x'
F-2.9428026078328093
sg16
(F-2.9428026078328093
F-0.72459292554068921
F-0.23793792489426455
tp470
sS'z'
F-0.23793792489426455
sbsg41
(lp471
I33
asg21
I55
sg22
S''
sg23
(lp472
sg45
I01
sg26
S'UDP'
p473
sg47
I00
sg30
S'   18'
p474
sg49
I2
sg32
I139986370340480
sg33
(lp475
g341
a(ielbow.chemistry.AtomClass
AtomClass
p476
(dp477
g7
F20
sg8
I139986370342352
sg9
g37
sg11
(ielbow.chemistry.xyzClass
xyzClass
p478
(dp479
g14
I1
sg15
F57.295779513082323
sS'y'
F-0.34750970684621429
sS'x'
F-2.9143381207852599
sg16
(F-2.9143381207852599
F-0.34750970684621429
F-1.5060173872201708
tp480
sS'z'
F-1.5060173872201708
sbsg16
(ielbow.chemistry.xyzClass
xyzClass
p481
(dp482
g14
I1
sg15
F57.295779513082323
sS'y'
F-0.90365109888182094
sS'x'
F-1.4327171663291711
sg16
(F-1.4327171663291711
F-0.90365109888182094
F-2.8664196299800482
tp483
sS'z'
F-2.8664196299800482
sbsg21
I57
sg22
S''
sg23
(lp484
sg45
I01
sg26
S'UDP'
p485
sg47
I00
sg30
S'   19'
p486
sg49
I2
sg32
I139986370342352
sg33
(lp487
g465
a(ielbow.chemistry.AtomClass
AtomClass
p488
(dp489
g7
F20
sg8
I139986370342424
sg9
g37
sg11
(ielbow.chemistry.xyzClass
xyzClass
p490
(dp491
g14
I1
sg15
F57.295779513082323
sS'y'
F0.25683289577139301
sS'x'
F-4.0429447668639602
sg16
(F-4.0429447668639602
F0.25683289577139301
F-2.0426953680730211
tp492
sS'z'
F-2.0426953680730211
sbsg16
(ielbow.chemistry.xyzClass
xyzClass
p493
(dp494
g14
I1
sg15
F57.295779513082323
sS'y'
F-0.30715959929450548
sS'x'
F-2.5873707704018991
sg16
(F-2.5873707704018991
F-0.30715959929450548
F-3.3577361563012991
tp495
sS'z'
F-3.3577361563012991
sbsg21
I58
sg22
S''
sg23
(lp496
sg45
I01
sg26
S'UDP'
p497
sg47
I00
sg30
S'   20'
p498
sg49
I2
sg32
I139986370342424
sg33
(lp499
g476
a(ielbow.chemistry.AtomClass
AtomClass
p500
(dp501
g7
F20
sg8
I139986370342496
sg9
g37
sg11
(ielbow.chemistry.xyzClass
xyzClass
p502
(dp503
g14
I1
sg15
F57.295779513082323
sS'y'
F0.43551556233581989
sS'x'
F-5.145560611708345
sg16
(F-5.145560611708345
F0.43551556233581989
F-1.2220703628196952
tp504
sS'z'
F-1.2220703628196952
sbsg16
(ielbow.chemistry.xyzClass
xyzClass
p505
(dp506
g14
I1
sg15
F57.295779513082323
sS'y'
F-0.011983670658033907
sS'x'
F-3.6054924716480916
sg16
(F-3.6054924716480916
F-0.011983670658033907
F-2.4648867342450105
tp507
sS'z'
F-2.4648867342450105
sbsg21
I59
sg22
S''
sg23
(lp508
sg45
I01
sg26
S'UDP'
p509
sg47
I00
sg30
S'   21'
p510
sg49
I2
sg32
I139986370342496
sg33
(lp511
g488
a(ielbow.chemistry.AtomClass
AtomClass
p512
(dp513
g9
g10
sg11
(ielbow.chemistry.xyzClass
xyzClass
p514
(dp515
g14
I0
sg15
F57.295779513082323
sS'y'
F0.92400752777506701
sS'x'
F-6.1366397785256455
sg16
(F-6.1366397785256455
F0.92400752777506701
F-1.6563587997017568
tp516
sS'z'
F-1.6563587997017568
sbsg16
(ielbow.chemistry.xyzClass
xyzClass
p517
(dp518
g14
I1
sg15
F57.295779513082323
sS'y'
F0.4467837496267702
sS'x'
F-4.6246199753488639
sg16
(F-4.6246199753488639
F0.4467837496267702
F-2.8588608620518361
tp519
sS'z'
F-2.8588608620518361
sbsg21
I62
sg23
(lp520
sg25
I21
sg82
I01
sg83
F1
sg84
I0
sg85
I21
sg86
S'UDP:1:A:'
p521
sg88
S'UDP:1:A:???'
p522
sg28
g29
sg90
I21
sg91
I8
sg92
S'   22'
p523
sg94
S'O'
sg96
S' O22'
p524
sg98
I1
sg99
I22
sg100
S' '
sS'x'
F-4.6246199753488639
sS'z'
F-2.8588608620518361
sg7
F20
sg8
I139986370342712
sg22
S''
sg41
(lp525
I29
asg26
S'UDP'
p526
sg30
S'   22'
p527
sg32
I139986370342712
sg33
(lp528
g500
asg141
I22
sg142
Nsg144
S'139986369650456_0'
p529
sg146
(lp530
sg148
S'A'
sg149
g524
sg150
S'O'
sg151
S'A'
sg152
g517
sg153
I01
sg154
S''
sg155
S'O'
sg156
F15.9994
sS'y'
F0.4467837496267702
sba(ielbow.chemistry.AtomClass
AtomClass
p531
(dp532
g7
F20
sg8
I139986369864480
sg9
g467
sg11
(ielbow.chemistry.xyzClass
xyzClass
p533
(dp534
g14
I1
sg15
F57.295779513082323
sS'y'
F0.033542472976733462
sS'x'
F-5.1027509810425675
sg16
(F-5.1027509810425675
F0.033542472976733462
F0.036439904958287639
tp535
sS'z'
F0.036439904958287639
sbsg41
(lp536
I30
asg21
I65
sg22
S''
sg23
(lp537
sg45
I01
sg26
S'UDP'
p538
sg47
I00
sg30
S'   23'
p539
sg49
I2
sg32
I139986369864480
sg33
(lp540
g500
a(ielbow.chemistry.AtomClass
AtomClass
p541
(dp542
g7
F20
sg8
I139986369864552
sg9
g37
sg11
(ielbow.chemistry.xyzClass
xyzClass
p543
(dp544
g14
I1
sg15
F57.295779513082323
sS'y'
F-0.54009106516785155
sS'x'
F-4.0110238847764865
sg16
(F-4.0110238847764865
F-0.54009106516785155
F0.51985832255125786
tp545
sS'z'
F0.51985832255125786
sbsg41
(lp546
I25
aI32
asg21
I68
sg22
S''
sg23
(lp547
sg45
I01
sg26
S'UDP'
p548
sg47
I00
sg30
S'   24'
p549
sg49
I2
sg32
I139986369864552
sg33
(lp550
g531
a(ielbow.chemistry.AtomClass
AtomClass
p551
(dp552
g9
g10
sg11
(ielbow.chemistry.xyzClass
xyzClass
p553
(dp554
g14
I0
sg15
F57.295779513082323
sS'y'
F-0.95035390441443734
sS'x'
F-4.0132834004467108
sg16
(F-4.0132834004467108
F-0.95035390441443734
F1.6310589488398599
tp555
sS'z'
F1.6310589488398599
sbsg16
(ielbow.chemistry.xyzClass
xyzClass
p556
(dp557
g14
I1
sg15
F57.295779513082323
sS'y'
F-1.107921042430879
sS'x'
F-2.2345227767955422
sg16
(F-2.2345227767955422
F-1.107921042430879
F0.41054142846097164
tp558
sS'z'
F0.41054142846097164
sbsg21
I71
sg23
(lp559
sg25
I24
sg82
I01
sg83
F1
sg84
I0
sg85
I24
sg86
S'UDP:1:A:'
p560
sg88
S'UDP:1:A:???'
p561
sg28
g29
sg90
I24
sg91
I8
sg92
S'   25'
p562
sg94
S'O'
sg96
S' O25'
p563
sg98
I1
sg99
I25
sg100
S' '
sS'x'
F-2.2345227767955422
sS'z'
F0.41054142846097164
sg7
F20
sg8
I139986370342640
sg22
S''
sg41
(lp564
I34
asg26
S'UDP'
p565
sg30
S'   25'
p566
sg32
I139986370342640
sg33
(lp567
g541
asg141
I25
sg142
Nsg144
S'139986369650456_3'
p568
sg146
(lp569
sg148
S'A'
sg149
g563
sg150
S'O'
sg151
S'A'
sg152
g556
sg153
I01
sg154
S''
sg155
S'O'
sg156
F15.9994
sS'y'
F-1.107921042430879
sbag465
asg141
I24
sg142
NsS'double_bond'
p570
I01
sg82
I01
sg443
I01
sg84
I0
sg98
I1
sg85
I23
sg144
S'139986369650456_0'
p571
sg16
(ielbow.chemistry.xyzClass
xyzClass
p572
(dp573
g14
I1
sg15
F57.295779513082323
sS'y'
F-0.8677089774816571
sS'x'
F-2.3490494478591972
sg16
(F-2.3490494478591972
F-0.8677089774816571
F-0.74273140534111859
tp574
sS'z'
F-0.74273140534111859
sbsg83
F1
sg146
(lp575
sg148
S'A'
sg149
S' C24'
p576
sg452
S'-'
sg90
I23
sg28
g29
sg150
S'c'
sg453
I1
sg91
I6
sg151
S'A'
sg92
S'   24'
p577
sg86
S'UDP:1:A:'
p578
sg94
S'CR6'
p579
sg152
g572
sg96
g576
sg153
I01
sg154
S''
sg457
I1
sg458
(lp580
g531
ag465
asg460
I2
sg155
S'C'
sg100
S' '
sg156
F12.010999999999999
sS'zmatrix_index'
p581
I6
sg462
(lp582
I0
asS'y'
F-0.8677089774816571
sS'x'
F-2.3490494478591972
sS'z'
F-0.74273140534111859
sg99
I24
sg88
S'UDP:1:A:???'
p583
sg25
I23
sba(ielbow.chemistry.AtomClass
AtomClass
p584
(dp585
g9
Nsg11
(ielbow.chemistry.xyzClass
xyzClass
p586
(dp587
g14
I0
sg15
F57.295779513082323
sS'y'
F0.163376658336117
sS'x'
F-5.8999026731932442
sg16
(F-5.8999026731932442
F0.163376658336117
F0.62750077569274754
tp588
sS'z'
F0.62750077569274754
sbsg41
(lp589
I31
asg91
I1
sg23
(lp590
sg25
I29
sg82
I01
sg83
F1
sg84
I0
sg85
I29
sg86
S'UDP:1:A:'
p591
sg88
S'UDP:1:A:???'
p592
sg28
g29
sg90
I29
sg92
S'   30'
p593
sg94
S'HNR6'
p594
sg96
S'H231'
p595
sg98
I1
sg99
I30
sg434
I01
sg100
S' '
sS'x'
F-4.1969399782699828
sS'z'
F-0.53897695467742035
sg16
(ielbow.chemistry.xyzClass
xyzClass
p596
(dp597
g14
I1
sg15
F57.295779513082323
sS'y'
F-0.085452051315972
sS'x'
F-4.1969399782699828
sg16
(F-4.1969399782699828
F-0.085452051315972
F-0.53897695467742035
tp598
sS'z'
F-0.53897695467742035
sbsg7
F20
sg8
I139986369868936
sg22
S''
sg26
S'UDP'
p599
sg30
S'   30'
p600
sg32
I139986369868936
sg33
(lp601
g531
asg141
I30
sg142
Nsg144
S'139986369650456_0'
p602
sg146
(lp603
sg148
S'A'
sg149
g595
sg430
I01
sg150
S'H'
sg151
S'A'
sg152
g596
sg153
I01
sg154
S''
sg155
S'H'
sg156
F1.0079
sS'y'
F-0.085452051315972
sbasg141
I23
sg142
Nsg82
I01
sg443
I01
sg84
I0
sg98
I1
sg85
I22
sg144
g568
sg16
(ielbow.chemistry.xyzClass
xyzClass
p604
(dp605
g14
I1
sg15
F57.295779513082323
sS'y'
F-0.29913368603912405
sS'x'
F-3.4613995185954596
sg16
(F-3.4613995185954596
F-0.29913368603912405
F-1.1813352131507533
tp606
sS'z'
F-1.1813352131507533
sbsg83
F1
sg146
(lp607
sg148
S'A'
sg149
S' N23'
p608
sg90
I22
sg28
g29
sg150
S'n'
sg91
I7
sg151
S'A'
sg92
S'   23'
p609
sg86
S'UDP:1:A:'
p610
sg94
S'NR16'
p611
sg152
g604
sg96
g608
sg153
I01
sg154
S''
sg457
I0
sg458
(lp612
g500
ag541
asg460
I2
sg155
S'N'
sg100
S' '
sg156
F14.0067
sg581
I5
sg462
(lp613
I0
asS'y'
F-0.29913368603912405
sS'x'
F-3.4613995185954596
sS'z'
F-1.1813352131507533
sg99
I23
sg88
S'UDP:1:A:???'
p614
sg25
I22
sbasg141
I21
sg142
Nsg570
I01
sg82
I01
sg443
I01
sg84
I0
sg98
I1
sg85
I20
sg144
g602
sg41
(lp615
I28
asg83
F1
sg146
(lp616
sg148
S'A'
sg149
S' C21'
p617
sg90
I20
sg28
g29
sg150
S'c'
sg91
I6
sg151
S'A'
sg92
S'   21'
p618
sg86
S'UDP:1:A:'
p619
sg94
g579
sg152
g505
sg96
g617
sg153
I01
sg154
S''
sg457
I1
sg458
(lp620
g488
ag531
asg460
I2
sg155
S'C'
sg100
S' '
sg156
F12.010999999999999
sg581
I4
sg462
(lp621
I0
asS'y'
F-0.011983670658033907
sS'x'
F-3.6054924716480916
sS'z'
F-2.4648867342450105
sg99
I21
sg88
S'UDP:1:A:???'
p622
sg25
I20
sba(ielbow.chemistry.AtomClass
AtomClass
p623
(dp624
g146
(lp625
sg148
S'A'
sg149
S'H201'
p626
sg9
Nsg90
I35
sg7
F20
sg11
(ielbow.chemistry.xyzClass
xyzClass
p627
(dp628
g14
I0
sg15
F57.295779513082323
sS'y'
F0.58043095457908611
sS'x'
F-4.0613299318947531
sg16
(F-4.0613299318947531
F0.58043095457908611
F-3.0763803643478456
tp629
sS'z'
F-3.0763803643478456
sbsg16
(ielbow.chemistry.xyzClass
xyzClass
p630
(dp631
g14
I1
sg15
F57.295779513082323
sS'y'
F-0.078643513821316902
sS'x'
F-2.6893317231398224
sg16
(F-2.6893317231398224
F-0.078643513821316902
F-4.4117753640597019
tp632
sS'z'
F-4.4117753640597019
sbsg91
I1
sg22
S''
sg23
(lp633
sg8
I139986370031344
sg25
I35
sg86
S'UDP:1:A:'
p634
sg26
S'UDP'
p635
sg28
g29
sg30
S'   36'
p636
sg151
S'A'
sg152
g630
sg32
I139986370031344
sg33
(lp637
g488
asg154
S''
sg141
I36
sg142
Nsg94
S'HCR6'
p638
sg153
I01
sg96
g626
sg98
I1
sg99
I36
sg82
I01
sg83
F1
sg155
S'H'
sg84
I0
sg100
S' '
sg156
F1.0079
sg85
I38
sS'y'
F-0.078643513821316902
sS'x'
F-2.6893317231398224
sg92
S'   36'
p639
sS'z'
F-4.4117753640597019
sg150
S'H'
sg88
S'UDP:1:A:???'
p640
sbasg141
I20
sg142
Nsg82
I01
sg443
I01
sg84
I0
sg98
I1
sg85
I19
sg144
g568
sg41
(lp641
I27
asg83
F1
sg146
(lp642
sg148
S'A'
sg149
S' C20'
p643
sg90
I19
sg28
g29
sg150
S'c'
sg91
I6
sg151
S'A'
sg92
S'   20'
p644
sg86
S'UDP:1:A:'
p645
sg94
S'CR16'
p646
sg152
g493
sg96
g643
sg153
I01
sg154
S''
sg457
I0
sg458
(lp647
g476
ag500
asg460
I2
sg155
S'C'
sg100
S' '
sg156
F12.010999999999999
sg581
I3
sg462
(lp648
I0
asS'y'
F-0.30715959929450548
sS'x'
F-2.5873707704018991
sS'z'
F-3.3577361563012991
sg99
I20
sg88
S'UDP:1:A:???'
p649
sg25
I19
sba(ielbow.chemistry.AtomClass
AtomClass
p650
(dp651
g146
(lp652
sg148
S'A'
sg149
S'H191'
p653
sg9
Nsg90
I34
sg7
F20
sg11
(ielbow.chemistry.xyzClass
xyzClass
p654
(dp655
g14
I0
sg15
F57.295779513082323
sS'y'
F-0.5067834044105457
sS'x'
F-2.0304089690641414
sg16
(F-2.0304089690641414
F-0.5067834044105457
F-2.1117066916352063
tp656
sS'z'
F-2.1117066916352063
sbsg16
(ielbow.chemistry.xyzClass
xyzClass
p657
(dp658
g14
I1
sg15
F57.295779513082323
sS'y'
F-1.1508401482609232
sS'x'
F-0.61385200488974734
sg16
(F-0.61385200488974734
F-1.1508401482609232
F-3.528323972556048
tp659
sS'z'
F-3.528323972556048
sbsg91
I1
sg22
S''
sg23
(lp660
sg8
I139986370031272
sg25
I34
sg86
S'UDP:1:A:'
p661
sg26
S'UDP'
p662
sg28
g29
sg30
S'   35'
p663
sg151
S'A'
sg152
g657
sg32
I139986370031272
sg33
(lp664
g476
asg154
S''
sg141
I35
sg142
Nsg94
g638
sg153
I01
sg96
g653
sg98
I1
sg99
I35
sg82
I01
sg83
F1
sg155
S'H'
sg84
I0
sg100
S' '
sg156
F1.0079
sg85
I37
sS'y'
F-1.1508401482609232
sS'x'
F-0.61385200488974734
sg92
S'   35'
p665
sS'z'
F-3.528323972556048
sg150
S'H'
sg88
S'UDP:1:A:???'
p666
sbasg141
I19
sg142
Nsg82
I01
sg443
I01
sg84
I0
sg98
I1
sg85
I18
sg144
g571
sg41
(lp667
I26
asg83
F1
sg146
(lp668
sg148
S'A'
sg149
S' C19'
p669
sg90
I18
sg28
g29
sg150
S'c'
sg91
I6
sg151
S'A'
sg92
S'   19'
p670
sg86
S'UDP:1:A:'
p671
sg94
g646
sg152
g481
sg96
g669
sg153
I01
sg154
S''
sg457
I1
sg458
(lp672
g465
ag488
asg460
I2
sg155
S'C'
sg100
S' '
sg156
F12.010999999999999
sg581
I2
sg462
(lp673
I0
asS'y'
F-0.90365109888182094
sS'x'
F-1.4327171663291711
sS'z'
F-2.8664196299800482
sg99
I19
sg88
S'UDP:1:A:???'
p674
sg25
I18
sbag541
asg141
I18
sg142
Nsg306
I2
sg82
I01
sg443
I01
sg84
I0
sg98
I1
sg85
I17
sg144
g267
sg16
(ielbow.chemistry.xyzClass
xyzClass
p675
(dp676
g14
I1
sg15
F57.295779513082323
sS'y'
F-1.1624872509810089
sS'x'
F-1.3574675288038094
sg16
(F-1.3574675288038094
F-1.1624872509810089
F-1.5705941030314756
tp677
sS'z'
F-1.5705941030314756
sbsg83
F1
sg146
(lp678
sg311
(ielbow.chemistry.xyzClass
xyzClass
p679
(dp680
g14
I1
sg15
F57.295779513082323
sS'y'
F1.0250792896941603
sS'x'
F-0.35875649308685925
sg16
(F-0.35875649308685925
F1.0250792896941603
F-0.48273446357297672
tp681
sS'z'
F-0.48273446357297672
sbsg148
S'A'
sg149
S' N18'
p682
sg452
S'-'
sg90
I17
sg28
g29
sg150
S'n'
sg453
I1
sg91
I7
sg151
S'A'
sg92
S'   18'
p683
sg86
S'UDP:1:A:'
p684
sg94
S'NR6'
p685
sg152
g675
sg96
g682
sg153
I01
sg154
S''
sg457
I0
sg458
(lp686
g541
ag476
asg460
I2
sg155
S'N'
sg100
S' '
sg156
F14.0067
sg581
I1
sg462
(lp687
I0
asS'y'
F-1.1624872509810089
sS'x'
F-1.3574675288038094
sS'z'
F-1.5705941030314756
sg319
g1
(g320
g3
(lp688
I7
a(lp689
I6
aI6
aa(lp690
I6
aI8
aI8
aI7
aa(lp691
I6
aI1
aa(lp692
I8
aI8
aa(lp693
a(lp694
atRp695
sg99
I18
sg88
S'UDP:1:A:???'
p696
sg25
I17
sba(ielbow.chemistry.AtomClass
AtomClass
p697
(dp698
g7
F20
sg8
I139986369868144
sg9
Nsg11
(ielbow.chemistry.xyzClass
xyzClass
p699
(dp700
g14
I1
sg15
F57.295779513082323
sS'y'
F-2.5468245600497954
sS'x'
F-2.0582912596309573
sg16
(F-2.0582912596309573
F-2.5468245600497954
F0.20857947869199361
tp701
sS'z'
F0.20857947869199361
sbsg41
(lp702
I19
asg91
I1
sg22
S''
sg23
(lp703
sg25
I27
sg26
S'UDP'
p704
sg28
g29
sg30
S'   28'
p705
sg32
I139986369868144
sg33
(lp706
g341
asg141
I28
sg142
Nsg306
I0
sg82
I01
sg83
F1
sg84
I0
sg85
I27
sg144
g267
sg16
(ielbow.chemistry.xyzClass
xyzClass
p707
(dp708
g14
I1
sg15
F57.295779513082323
sS'y'
F-3.0162547103791399
sS'x'
F-0.48539505934281069
sg16
(F-0.48539505934281069
F-3.0162547103791399
F-1.2349333964792484
tp709
sS'z'
F-1.2349333964792484
sbsg88
S'UDP:1:A:???'
p710
sg146
(lp711
sg311
(ielbow.chemistry.xyzClass
xyzClass
p712
(dp713
g14
I1
sg15
F57.295779513082323
sS'y'
F-1.1089079523166563
sS'x'
F-0.51530031209310601
sg16
(F-0.51530031209310601
F-1.1089079523166563
F-0.70846776573027892
tp714
sS'z'
F-0.70846776573027892
sbsg148
S'A'
sg149
S'H151'
p715
sg430
I01
sg90
I27
sg150
S'H'
sg151
S'A'
sg92
S'   28'
p716
sg86
S'UDP:1:A:'
p717
sg94
g433
sg152
g707
sg96
g715
sg153
I01
sg154
S''
sg98
I1
sg99
I28
sg434
I01
sg155
S'H'
sg100
S' '
sg156
F1.0079
sS'y'
F-3.0162547103791399
sS'x'
F-0.48539505934281069
sS'z'
F-1.2349333964792484
sg319
g1
(g320
g3
(lp718
I1
a(lp719
a(lp720
a(lp721
a(lp722
a(lp723
a(lp724
atRp725
sbasg141
I15
sg142
Nsg306
I2
sg82
I01
sg443
I01
sg84
I0
sg98
I1
sg85
I14
sg144
g269
sg16
(ielbow.chemistry.xyzClass
xyzClass
p726
(dp727
g14
I1
sg15
F57.295779513082323
sS'y'
F-1.9646049154725771
sS'x'
F-0.27246048743419915
sg16
(F-0.27246048743419915
F-1.9646049154725771
F-1.089433148059308
tp728
sS'z'
F-1.089433148059308
sbsg83
F1
sg146
(lp729
sg311
(ielbow.chemistry.xyzClass
xyzClass
p730
(dp731
g14
I1
sg15
F57.295779513082323
sS'y'
F-0.37266920145282756
sS'x'
F-0.76150234927630123
sg16
(F-0.76150234927630123
F-0.37266920145282756
F1.5089119638049144
tp732
sS'z'
F1.5089119638049144
sbsg148
S'A'
sg149
S' C15'
p733
sg90
I14
sg28
g29
sg150
S'C'
sg91
I6
sg151
S'A'
sg92
S'   15'
p734
sg86
S'UDP:1:A:'
p735
sg94
g456
sg152
g726
sg96
g733
sg153
I01
sg154
S'@@'
p736
sg457
I1
sg458
(lp737
g329
ag351
asg460
I1
sg155
S'C'
sg100
S' '
sg156
F12.010999999999999
sg88
S'UDP:1:A:???'
p738
sg462
(lp739
I0
asS'y'
F-1.9646049154725771
sS'x'
F-0.27246048743419915
sS'z'
F-1.089433148059308
sg319
g1
(g320
g3
(lp740
I6
a(lp741
I8
aI7
aI1
aa(lp742
I6
aI6
aI6
aa(lp743
I6
aI6
aI1
aI6
aI8
aI8
aI7
aa(lp744
I6
aI1
aa(lp745
I15
aI8
aI8
aa(lp746
I8
aI1
aI8
aatRp747
sg99
I15
sg25
I14
sbasg141
I14
sg142
Nsg306
I3
sg82
I01
sg443
I01
sg84
I0
sg98
I1
sg85
I13
sg144
g307
sg41
(lp748
I17
asg83
F1
sg146
(lp749
sg311
(ielbow.chemistry.xyzClass
xyzClass
p750
(dp751
g14
I1
sg15
F57.295779513082323
sS'y'
F0.12743835631116207
sS'x'
F1.4015446528538775
sg16
(F1.4015446528538775
F0.12743835631116207
F0.02070844166567554
tp752
sS'z'
F0.02070844166567554
sbsg148
S'A'
sg149
S' O14'
p753
sg90
I13
sg28
g29
sg150
S'O'
sg91
I8
sg151
S'A'
sg92
S'   14'
p754
sg86
S'UDP:1:A:'
p755
sg94
g95
sg152
g334
sg96
g753
sg153
I01
sg154
S''
sg457
I0
sg458
(lp756
g51
ag341
asg460
I1
sg155
S'O'
sg100
S' '
sg156
F15.9994
sg88
S'UDP:1:A:???'
p757
sg462
(lp758
I0
asS'y'
F-1.7237975323200943
sS'x'
F-0.060034926646026276
sS'z'
F0.16762725623862074
sg319
g1
(g320
g3
(lp759
I8
a(lp760
I6
aa(lp761
I6
aI6
aI1
aa(lp762
I8
aI6
aI1
aI8
aa(lp763
I8
aI1
aa(lp764
I8
aI8
aI8
aI8
aa(lp765
I15
aI15
aatRp766
sg99
I14
sg25
I13
sba(ielbow.chemistry.AtomClass
AtomClass
p767
(dp768
g7
F20
sg8
I139986369867856
sg9
Nsg11
(ielbow.chemistry.xyzClass
xyzClass
p769
(dp770
g14
I1
sg15
F57.295779513082323
sS'y'
F-0.21493139118942128
sS'x'
F0.27440056390669176
sg16
(F0.27440056390669176
F-0.21493139118942128
F2.147354311663892
tp771
sS'z'
F2.147354311663892
sbsg41
(lp772
I6
asg91
I1
sg22
S''
sg23
(lp773
sg25
I26
sg26
S'UDP'
p774
sg28
g29
sg30
S'   27'
p775
sg32
I139986369867856
sg33
(lp776
g51
asg141
I27
sg142
Nsg306
I0
sg82
I01
sg83
F1
sg84
I0
sg85
I26
sg144
g307
sg16
(ielbow.chemistry.xyzClass
xyzClass
p777
(dp778
g14
I1
sg15
F57.295779513082323
sS'y'
F-0.83523781709630196
sS'x'
F1.839393266395277
sg16
(F1.839393266395277
F-0.83523781709630196
F0.88177604271002652
tp779
sS'z'
F0.88177604271002652
sbsg88
S'UDP:1:A:???'
p780
sg146
(lp781
sg311
(ielbow.chemistry.xyzClass
xyzClass
p782
(dp783
g14
I1
sg15
F57.295779513082323
sS'y'
F-1.118127985407454
sS'x'
F-0.51746635717070699
sg16
(F-0.51746635717070699
F-1.118127985407454
F-0.69073822097765269
tp784
sS'z'
F-0.69073822097765269
sbsg148
S'A'
sg149
S'H031'
p785
sg430
I01
sg90
I26
sg150
S'H'
sg151
S'A'
sg92
S'   27'
p786
sg86
S'UDP:1:A:'
p787
sg94
g433
sg152
g777
sg96
g785
sg153
I01
sg154
S''
sg98
I1
sg99
I27
sg434
I01
sg155
S'H'
sg100
S' '
sg156
F1.0079
sS'y'
F-0.83523781709630196
sS'x'
F1.839393266395277
sS'z'
F0.88177604271002652
sg319
g1
(g320
g3
(lp788
I1
a(lp789
a(lp790
a(lp791
a(lp792
a(lp793
a(lp794
atRp795
sbasg141
I3
sg142
Nsg306
I1
sg82
I01
sg443
I01
sg84
I0
sg98
I1
sg85
I2
sg144
S'139986369650456_3'
p796
sg16
(ielbow.chemistry.xyzClass
xyzClass
p797
(dp798
g14
I1
sg15
F57.295779513082323
sS'y'
F-0.56841986543054601
sS'x'
F1.0412284479356455
sg16
(F1.0412284479356455
F-0.56841986543054601
F0.19901394840652986
tp799
sS'z'
F0.19901394840652986
sbsg83
F1
sg146
(lp800
sg311
(ielbow.chemistry.xyzClass
xyzClass
p801
(dp802
g14
I1
sg15
F57.295779513082323
sS'y'
F0.12432778529592498
sS'x'
F0.00046535763659590355
sg16
(F0.00046535763659590355
F0.12432778529592498
F0.036861889178397916
tp803
sS'z'
F0.036861889178397916
sbsg148
S'A'
sg149
S' C03'
p804
sg90
I2
sg28
g29
sg150
S'C'
sg91
I6
sg151
S'A'
sg92
S'    3'
p805
sg86
S'UDP:1:A:'
p806
sg94
g456
sg152
g797
sg96
g804
sg153
I01
sg154
S'@'
sg457
I1
sg458
(lp807
g35
ag329
asg460
I1
sg155
S'C'
sg100
S' '
sg156
F12.010999999999999
sg88
S'UDP:1:A:???'
p808
sg462
(lp809
I0
asS'y'
F-0.56841986543054601
sS'x'
F1.0412284479356455
sS'z'
F0.19901394840652986
sg319
g1
(g320
g3
(ltRp810
sg99
I3
sg25
I2
sbag351
a(ielbow.chemistry.AtomClass
AtomClass
p811
(dp812
g7
F20
sg8
I139986369867360
sg9
Nsg11
(ielbow.chemistry.xyzClass
xyzClass
p813
(dp814
g14
I1
sg15
F57.295779513082323
sS'y'
F0.85877161756124964
sS'x'
F-0.38220232888003386
sg16
(F-0.38220232888003386
F0.85877161756124964
F-0.53850819692082086
tp815
sS'z'
F-0.53850819692082086
sbsg16
(ielbow.chemistry.xyzClass
xyzClass
p816
(dp817
g14
I1
sg15
F57.295779513082323
sS'y'
F0.42282540841410715
sS'x'
F1.2194236701363668
sg16
(F1.2194236701363668
F0.42282540841410715
F-1.735873690721814
tp818
sS'z'
F-1.735873690721814
sbsg91
I1
sg22
S''
sg23
(lp819
sg25
I25
sg26
S'UDP'
p820
sg28
g29
sg30
S'   26'
p821
sg32
I139986369867360
sg33
(lp822
g35
asg141
I26
sg142
Nsg306
I0
sg82
I01
sg83
F1
sg84
I0
sg85
I25
sg144
g796
sg41
(lp823
I3
asg88
S'UDP:1:A:???'
p824
sg146
(lp825
sg311
(ielbow.chemistry.xyzClass
xyzClass
p826
(dp827
g14
I1
sg15
F57.295779513082323
sS'y'
F-1.181784497650008
sS'x'
F-0.51485661071685429
sg16
(F-0.51485661071685429
F-1.181784497650008
F-0.58187937058043293
tp828
sS'z'
F-0.58187937058043293
sbsg148
S'A'
sg149
S'H021'
p829
sg430
I01
sg90
I25
sg150
S'H'
sg151
S'A'
sg92
S'   26'
p830
sg86
S'UDP:1:A:'
p831
sg94
g433
sg152
g816
sg96
g829
sg153
I01
sg154
S''
sg98
I1
sg99
I26
sg434
I01
sg155
S'H'
sg100
S' '
sg156
F1.0079
sS'y'
F0.42282540841410715
sS'x'
F1.2194236701363668
sS'z'
F-1.735873690721814
sg319
g1
(g320
g3
(lp832
I1
a(lp833
a(lp834
a(lp835
a(lp836
a(lp837
a(lp838
atRp839
sbasg141
I2
sg142
Nsg306
I1
sg82
I01
sg443
I01
sg84
I0
sg98
I1
sg85
I1
sg144
S'139986369650456_3'
p840
sg16
(ielbow.chemistry.xyzClass
xyzClass
p841
(dp842
g14
I1
sg15
F57.295779513082323
sS'y'
F-0.47429388475160711
sS'x'
F1.5912451045102427
sg16
(F1.5912451045102427
F-0.47429388475160711
F-1.2508986480819042
tp843
sS'z'
F-1.2508986480819042
sbsg83
F1
sg146
(lp844
sg311
(ielbow.chemistry.xyzClass
xyzClass
p845
(dp846
g14
I1
sg15
F57.295779513082323
sS'y'
F-0.37022978064622047
sS'x'
F1.6742196778307779
sg16
(F1.6742196778307779
F-0.37022978064622047
F-0.21389179004385142
tp847
sS'z'
F-0.21389179004385142
sbsg148
S'A'
sg149
S' C02'
p848
sg452
S'-'
sg90
I1
sg28
g29
sg150
S'C'
sg453
I1
sg91
I6
sg151
S'A'
sg92
S'    2'
p849
sg86
S'UDP:1:A:'
p850
sg94
g456
sg152
g841
sg96
g848
sg153
I01
sg154
S'@'
sg457
I0
sg458
(lp851
g351
ag51
asg460
I1
sg155
S'C'
sg100
S' '
sg156
F12.010999999999999
sg88
S'UDP:1:A:???'
p852
sg462
(lp853
I0
asS'y'
F-0.47429388475160711
sS'x'
F1.5912451045102427
sS'z'
F-1.2508986480819042
sg319
g1
(g320
g3
(lp854
I6
a(lp855
I8
aI6
aI1
aa(lp856
I8
aI6
aI1
aa(lp857
I6
aI8
aa(lp858
I7
aI1
aI15
aa(lp859
I8
aI8
aI8
aI8
aa(lp860
I6
aI8
aI8
aI7
aatRp861
sg99
I2
sg25
I1
sba(ielbow.chemistry.AtomClass
AtomClass
p862
(dp863
g146
(lp864
sg148
S'A'
sg149
S'H011'
p865
sg9
Nsg90
I30
sg7
F20
sg11
(ielbow.chemistry.xyzClass
xyzClass
p866
(dp867
g14
I1
sg15
F57.295779513082323
sS'y'
F0.41102837991358793
sS'x'
F1.7915100426766357
sg16
(F1.7915100426766357
F0.41102837991358793
F0.78830989319110079
tp868
sS'z'
F0.78830989319110079
sbsg16
(ielbow.chemistry.xyzClass
xyzClass
p869
(dp870
g14
I1
sg15
F57.295779513082323
sS'y'
F0.30961070347239988
sS'x'
F3.3827490008572854
sg16
(F3.3827490008572854
F0.30961070347239988
F-0.83136461811825668
tp871
sS'z'
F-0.83136461811825668
sbsg91
I1
sg22
S''
sg23
(lp872
sg8
I139986369865272
sg25
I30
sg86
S'UDP:1:A:'
p873
sg26
S'UDP'
p874
sg28
g29
sg30
S'   31'
p875
sg151
S'A'
sg152
g869
sg32
I139986369865272
sg33
(lp876
g5
asg154
S''
sg141
I31
sg142
Nsg94
g388
sg153
I01
sg96
g865
sg98
I1
sg99
I31
sg82
I01
sg83
F1
sg155
S'H'
sg84
I0
sg100
S' '
sg156
F1.0079
sg85
I30
sS'y'
F0.30961070347239988
sS'x'
F3.3827490008572854
sg92
S'   31'
p877
sS'z'
F-0.83136461811825668
sg150
S'H'
sg88
S'UDP:1:A:???'
p878
sbasg141
I1
sg142
Nsg306
I3
sg82
I01
sg83
F1
sg84
I0
sg85
I0
sg144
g796
sg41
(lp879
I1
asg88
S'UDP:1:A:???'
p880
sg146
(lp881
sg311
(ielbow.chemistry.xyzClass
xyzClass
p882
(dp883
g14
I1
sg15
F57.295779513082323
sS'y'
F0.070185309304919452
sS'x'
F1.4014841270766578
sg16
(F1.4014841270766578
F0.070185309304919452
F0.12115675024120588
tp884
sS'z'
F0.12115675024120588
sbsg148
S'A'
sg149
S' O01'
p885
sg90
I0
sg150
S'O'
sg91
I8
sg151
S'A'
sg92
S'    1'
p886
sg86
S'UDP:1:A:'
p887
sg94
g401
sg152
g18
sg96
g885
sg153
I01
sg154
S''
sg98
I1
sg99
I1
sg155
S'O'
sg100
S' '
sg156
F15.9994
sS'y'
F-0.48328654699964646
sS'x'
F3.0676856996503137
sS'z'
F-1.23443957918611
sg319
g1
(g320
g3
(lp888
I8
a(lp889
a(lp890
a(lp891
a(lp892
a(lp893
a(lp894
atRp895
sbag35
ag51
ag61
ag73
ag105
ag123
ag157
ag175
ag192
ag209
ag228
ag247
ag329
ag341
ag351
ag361
ag465
ag476
ag488
ag500
ag512
ag531
ag541
ag551
ag811
ag767
ag697
ag410
ag584
ag862
ag271
ag289
ag373
ag650
ag623
atRp896
(dp897
S'ring_closure_atoms'
p898
(lp899
g35
ag351
ag465
ag541
asS'CIF_ligand_type'
p900
S'ligand'
p901
sS'original_ring_class'
p902
(lp903
g1
(celbow.chemistry.RingClass
RingClass
p904
g3
(lp905
(lp906
(ielbow.chemistry.RingClass
empty
p907
(dp908
g11
(ielbow.chemistry.xyzClass
xyzClass
p909
(dp910
g14
I0
sg15
F57.295779513082323
sS'y'
F-1.1011055363769386
sS'x'
F0.80000000000000004
sg16
(F0.80000000000000004
F-1.1011055363769386
F0
tp911
sS'z'
F0
sbsg141
I2
sg150
S'C'
sg16
(ielbow.chemistry.xyzClass
xyzClass
p912
(dp913
g14
I1
sg15
F57.295779513082323
sS'y'
F1.6653345369377348e-16
sS'x'
F1.6000000000000001
sg16
(F0
F0
I0
tp914
sS'z'
I0
sbsba(ielbow.chemistry.RingClass
empty
p915
(dp916
g11
(ielbow.chemistry.xyzClass
xyzClass
p917
(dp918
g14
I0
sg15
F57.295779513082323
sS'y'
F0.42058488969530705
sS'x'
F1.2944271909999159
sg16
(F1.2944271909999159
F0.42058488969530705
F0
tp919
sS'z'
F0
sbsg141
I3
sg150
S'C'
sg16
(ielbow.chemistry.xyzClass
xyzClass
p920
(dp921
g14
I1
sg15
F57.295779513082323
sS'y'
F1.5216904260722459
sS'x'
F2.0944271909999159
sg16
(F1.6000000000000001
F0
I0
tp922
sS'z'
I0
sbsba(ielbow.chemistry.RingClass
empty
p923
(dp924
g11
(ielbow.chemistry.xyzClass
xyzClass
p925
(dp926
g14
I0
sg15
F57.295779513082323
sS'y'
F1.3610412933632641
sS'x'
F-2.2204460492503131e-16
sg16
(F-2.2204460492503131e-16
F1.3610412933632641
F0
tp927
sS'z'
F0
sbsg141
I14
sg150
S'O'
sg16
(ielbow.chemistry.xyzClass
xyzClass
p928
(dp929
g14
I1
sg15
F57.295779513082323
sS'y'
F2.4621468297402029
sS'x'
F0.79999999999999982
sg16
(F1.6000000000000001
F0
I0
tp930
sS'z'
I0
sbsba(ielbow.chemistry.RingClass
empty
p931
(dp932
g11
(ielbow.chemistry.xyzClass
xyzClass
p933
(dp934
g14
I0
sg15
F57.295779513082323
sS'y'
F0.42058488969530683
sS'x'
F-1.2944271909999161
sg16
(F-1.2944271909999161
F0.42058488969530683
F0
tp935
sS'z'
F0
sbsg141
I15
sg150
S'C'
sg16
(ielbow.chemistry.xyzClass
xyzClass
p936
(dp937
g14
I1
sg15
F57.295779513082323
sS'y'
F1.5216904260722457
sS'x'
F-0.49442719099991594
sg16
(F1.6000000000000001
F0
I0
tp938
sS'z'
I0
sbsba(ielbow.chemistry.RingClass
empty
p939
(dp940
g11
(ielbow.chemistry.xyzClass
xyzClass
p941
(dp942
g14
I0
sg15
F57.295779513082323
sS'y'
F-1.1011055363769389
sS'x'
F-0.80000000000000004
sg16
(F-0.80000000000000004
F-1.1011055363769389
F0
tp943
sS'z'
F0
sbsg141
I16
sg150
S'C'
sg16
(ielbow.chemistry.xyzClass
xyzClass
p944
(dp945
g14
I1
sg15
F57.295779513082323
sS'y'
F0
sS'x'
F0
sg16
(F1.6000000000000001
F0
I0
tp946
sS'z'
I0
sbsbaatRp947
(dp948
S'use_cctbx'
p949
I01
sS'RestraintWeights'
p950
(dp951
S'LoopClass'
p952
(dp953
S'angle'
p954
F0.25
sS'bond'
p955
I50
ssS'GetCCTBXRestraints'
p956
(dp957
g954
F1
sg955
F100
ssS'ZMatrixClass'
p958
(dp959
g954
I10
sg955
F100
ssS'AdjustRestraintClass'
p960
(dp961
S'ring_planar'
p962
F0.10000000000000001
sS'aromatic_bond'
p963
F100
sg954
F1.5
sg154
F50
sS'loose_angle'
p964
F0.25
sS'non_ring_planar'
p965
F0.20000000000000001
ssS'RingClass'
p966
(dp967
S'flatness'
p968
F10
sg954
F2
sS'chair_boat'
p969
F1
sS'non_aromatic'
p970
F10
sg955
F200
ssS'ChiralClass'
p971
(dp972
g955
F100
sssS'allow_boat_conformation'
p973
I00
sS'ignore_list'
p974
(lp975
sS'rejected'
p976
(lp977
sS'ignore'
p978
(lp979
sS'edges'
p980
(dp981
sS'coordinates'
p982
(lp983
F0
aF0
aF0
aF0
aF0
aF0
asS'UseRestraintWeights'
p984
I01
sS'UseRestraintValues'
p985
I01
sS'min_iter_rings'
p986
I7
sS'RestraintValues'
p987
(dp988
g966
(dp989
g954
(dp990
I3
F60
sI4
F90
sI5
F106
sI6
F113
ssS'dihedral'
p991
(dp992
I5
(lp993
F25
aI10
asI6
(lp994
F55
aI1
assssbag1
(g904
g3
(lp995
(lp996
(ielbow.chemistry.RingClass
empty
p997
(dp998
g11
(ielbow.chemistry.xyzClass
xyzClass
p999
(dp1000
g14
I0
sg15
F57.295779513082323
sS'y'
F-1.3856406460551023
sS'x'
F0.80000000000000082
sg16
(F0.80000000000000082
F-1.3856406460551023
F0
tp1001
sS'z'
F0
sbsg141
I18
sg150
S'n'
sg16
(ielbow.chemistry.xyzClass
xyzClass
p1002
(dp1003
g14
I1
sg15
F57.295779513082323
sS'y'
F0
sS'x'
F1.600000000000001
sg16
(F0
F0
I0
tp1004
sS'z'
I0
sbsba(ielbow.chemistry.RingClass
empty
p1005
(dp1006
g11
(ielbow.chemistry.xyzClass
xyzClass
p1007
(dp1008
g14
I0
sg15
F57.295779513082323
sS'y'
F4.4408920985006262e-16
sS'x'
F1.6000000000000005
sg16
(F1.6000000000000005
F4.4408920985006262e-16
F0
tp1009
sS'z'
F0
sbsg141
I19
sg150
S'c'
sg16
(ielbow.chemistry.xyzClass
xyzClass
p1010
(dp1011
g14
I1
sg15
F57.295779513082323
sS'y'
F1.3856406460551027
sS'x'
F2.4000000000000008
sg16
(F1.6000000000000001
F0
I0
tp1012
sS'z'
I0
sbsba(ielbow.chemistry.RingClass
empty
p1013
(dp1014
g11
(ielbow.chemistry.xyzClass
xyzClass
p1015
(dp1016
g14
I0
sg15
F57.295779513082323
sS'y'
F1.3856406460551023
sS'x'
F0.79999999999999971
sg16
(F0.79999999999999971
F1.3856406460551023
F0
tp1017
sS'z'
F0
sbsg141
I20
sg150
S'c'
sg16
(ielbow.chemistry.xyzClass
xyzClass
p1018
(dp1019
g14
I1
sg15
F57.295779513082323
sS'y'
F2.7712812921102046
sS'x'
F1.5999999999999999
sg16
(F1.6000000000000001
F0
I0
tp1020
sS'z'
I0
sbsba(ielbow.chemistry.RingClass
empty
p1021
(dp1022
g11
(ielbow.chemistry.xyzClass
xyzClass
p1023
(dp1024
g14
I0
sg15
F57.295779513082323
sS'y'
F1.3856406460551018
sS'x'
F-0.8000000000000006
sg16
(F-0.8000000000000006
F1.3856406460551018
F0
tp1025
sS'z'
F0
sbsg141
I21
sg150
S'c'
sg16
(ielbow.chemistry.xyzClass
xyzClass
p1026
(dp1027
g14
I1
sg15
F57.295779513082323
sS'y'
F2.7712812921102041
sS'x'
F-4.4408920985006262e-16
sg16
(F1.6000000000000001
F0
I0
tp1028
sS'z'
I0
sbsba(ielbow.chemistry.RingClass
empty
p1029
(dp1030
g11
(ielbow.chemistry.xyzClass
xyzClass
p1031
(dp1032
g14
I0
sg15
F57.295779513082323
sS'y'
F-4.4408920985006262e-16
sS'x'
F-1.6000000000000005
sg16
(F-1.6000000000000005
F-4.4408920985006262e-16
F0
tp1033
sS'z'
F0
sbsg141
I23
sg150
S'n'
sg16
(ielbow.chemistry.xyzClass
xyzClass
p1034
(dp1035
g14
I1
sg15
F57.295779513082323
sS'y'
F1.3856406460551018
sS'x'
F-0.80000000000000027
sg16
(F1.6000000000000001
F0
I0
tp1036
sS'z'
I0
sbsba(ielbow.chemistry.RingClass
empty
p1037
(dp1038
g11
(ielbow.chemistry.xyzClass
xyzClass
p1039
(dp1040
g14
I0
sg15
F57.295779513082323
sS'y'
F-1.3856406460551023
sS'x'
F-0.80000000000000016
sg16
(F-0.80000000000000016
F-1.3856406460551023
F0
tp1041
sS'z'
F0
sbsg141
I24
sg150
S'c'
sg16
(ielbow.chemistry.xyzClass
xyzClass
p1042
(dp1043
g14
I1
sg15
F57.295779513082323
sS'y'
F0
sS'x'
F0
sg16
(F1.6000000000000001
F0
I0
tp1044
sS'z'
I0
sbsbaatRp1045
(dp1046
g949
I01
sg950
(dp1047
g952
(dp1048
g954
F0.25
sg955
I50
ssg956
(dp1049
g954
F1
sg955
F100
ssg958
(dp1050
g954
I10
sg955
F100
ssg960
(dp1051
g962
F0.10000000000000001
sg963
F100
sg954
F1.5
sg154
F50
sg964
F0.25
sg965
F0.20000000000000001
ssg966
(dp1052
g968
F10
sg954
F2
sg969
F1
sg970
F10
sg955
F200
ssg971
(dp1053
g955
F100
sssg973
I00
sg974
(lp1054
sg976
(lp1055
sg978
(lp1056
sg980
(dp1057
sg982
(lp1058
F0
aF0
aF0
aF0
aF0
aF0
asg984
I01
sg985
I01
sg986
I7
sg987
(dp1059
g966
(dp1060
g954
(dp1061
I3
F60
sI4
F90
sI5
F106
sI6
F113
ssg991
(dp1062
I5
(lp1063
F25
aI10
asI6
(lp1064
F55
aI1
assssbasS'energy'
p1065
F1553.3791431885409
sS'chiral_restraint'
p1066
(dp1067
I1
g1
(celbow.cctbx_api.RestraintClass
RestraintClass
p1068
c__builtin__
dict
p1069
(dp1070
(I2
I16
tp1071
(lp1072
F1.527126
aF100
asI2
(F0.69783280764867084
F-0.64220402246304931
F0.41520387784962154
tp1073
sI3
(F-0.19873480483445871
F-0.088577896169182671
F1.321423371379391
tp1074
s(I26
I2
I1
tp1075
(lp1076
F109.47122063449069
aF1
asI1
(F1.9257919272606128
F-0.87565254459146524
F1.0327691582349725
tp1077
s(I16
I2
I1
tp1078
(lp1079
F109.47122063449069
aF1
as(I26
I2
I16
tp1080
(lp1081
F109.47122063449069
aF1
as(I26
I2
I3
tp1082
(lp1083
F109.47122063449069
aF1
as(I2
I1
tp1084
(lp1085
F1.398717
aF100
as(I26
I2
tp1086
(lp1087
F1.0833090000000001
aF100
asI16
(F0.17529578096415688
F-1.7374776448748541
F0.049967249753639385
tp1088
s(I3
I2
I1
tp1089
(lp1090
F109.47122063449069
aF1
as(I2
I3
tp1091
(lp1092
F1.527126
aF100
as(I16
I2
I3
tp1093
(lp1094
F109.47122063449069
aF1
asI26
(F0.83340866957393089
F0.10595293069087208
F-0.55581785929605754
tp1095
stRp1096
(dp1097
S'link'
p1098
(dp1099
I16
I3
sI1
I0
sI2
I1
sI3
I2
sI26
I4
ssS'hydrogens'
p1100
(lp1101
sS'chiral_weights'
p1102
(lp1103
F50
asS'restraint_type'
p1104
(dp1105
sS'type'
p1106
NsS'chirals'
p1107
(lp1108
(lp1109
(lp1110
(lp1111
g35
ag5
ag351
ag51
aa(lp1112
F-2.5110833783732081
aI01
aF1
aaaasS'overwrite'
p1113
I00
sbsI2
g1
(g1068
g1069
(dp1114
(I3
I2
tp1115
(lp1116
F1.527126
aF100
asI3
(F1.1845175383539241
F0.37585251077174331
F1.0822750197725228
tp1117
sI4
(F-0.42448930631526022
F1.1419371891853642
F1.0347641964781549
tp1118
s(I14
I3
I4
tp1119
(lp1120
F109.47122063449069
aF1
asI2
(F0.47794218851637027
F-1.203275647306618
F-0.088910911203402582
tp1121
sI14
(F0.77363463853276526
F0.04925637615962275
F-0.2087261186586683
tp1122
s(I27
I3
I2
tp1123
(lp1124
F109.47122063449069
aF1
as(I14
I3
I2
tp1125
(lp1126
F109.47122063449069
aF1
as(I27
I3
I4
tp1127
(lp1128
F109.47122063449069
aF1
as(I27
I3
I14
tp1129
(lp1130
F109.47122063449069
aF1
as(I4
I3
I2
tp1131
(lp1132
F109.47122063449069
aF1
asI27
(F0.21574818090324999
F-0.18051858186989184
F2.3916755441544857
tp1133
s(I3
I4
tp1134
(lp1135
F1.527126
aF100
as(I27
I3
tp1136
(lp1137
F1.0833090000000001
aF100
as(I3
I14
tp1138
(lp1139
F1.398717
aF100
astRp1140
(dp1141
g1098
(dp1142
I3
I1
sI2
I0
sI27
I4
sI4
I2
sI14
I3
ssg1100
(lp1143
sg1102
(lp1144
F50
asg1104
(dp1145
sg1106
Nsg1107
(lp1146
(lp1147
(lp1148
(lp1149
g51
ag35
ag61
ag329
aa(lp1150
F-2.5110833783732081
aI01
aF1
aaaasg1113
I00
sbsI4
g1
(g1068
g1069
(dp1151
(I28
I15
I16
tp1152
(lp1153
F109.47122063449069
aF1
as(I18
I15
I16
tp1154
(lp1155
F109.47122063449069
aF1
as(I28
I15
I14
tp1156
(lp1157
F109.47122063449069
aF1
asI28
(F-1.832061608861538
F-2.5500544774391334
F0.33864777531243029
tp1158
s(I16
I15
I14
tp1159
(lp1160
F109.47122063449069
aF1
asI18
(F-1.8689079003185007
F-0.88305349264396527
F-0.89565579617519997
tp1161
sI14
(F1.9816849822938516
F-1.1502396405993174
F-0.73915527913247159
tp1162
sI15
(F2.1749857060247417
F0.15853025213542804
F-1.6390198234257767
tp1163
sI16
(F1.4180156109809832
F0.56424800235813932
F0.05449530920251773
tp1164
s(I28
I15
tp1165
(lp1166
F1.0833090000000001
aF100
as(I28
I15
I18
tp1167
(lp1168
F109.47122063449069
aF1
as(I18
I15
I14
tp1169
(lp1170
F109.47122063449069
aF1
as(I15
I18
tp1171
(lp1172
F1.451533
aF100
as(I15
I14
tp1173
(lp1174
F1.398717
aF100
as(I15
I16
tp1175
(lp1176
F1.527126
aF100
astRp1177
(dp1178
g1098
(dp1179
I16
I2
sI18
I3
sI28
I4
sI14
I0
sI15
I1
ssg1100
(lp1180
sg1102
(lp1181
F50
asg1104
(dp1182
sg1106
Nsg1107
(lp1183
(lp1184
(lp1185
(lp1186
g341
ag329
ag351
ag465
aa(lp1187
F2.386784318687651
aI01
aF1
aaaasg1113
I00
sbsI5
g1
(g1068
g1069
(dp1188
(I16
I17
tp1189
(lp1190
F1.398717
aF100
asI2
(F-0.30248202521121781
F-0.047104126216264391
F1.8180075479663338
tp1191
s(I17
I16
I15
tp1192
(lp1193
F109.47122063449069
aF1
as(I29
I16
I2
tp1194
(lp1195
F109.47122063449069
aF1
as(I29
I16
I17
tp1196
(lp1197
F109.47122063449069
aF1
as(I16
I2
tp1198
(lp1199
F1.527126
aF100
asI15
(F0.63021550752781164
F-1.5805355401774492
F0.64762008906016066
tp1200
sI16
(F1.6444776796159708
F0.87700826141593013
F-1.0660215504786927
tp1201
sI17
(F0.60768857674707899
F-2.7345439180686659
F0.82317897836409359
tp1202
s(I16
I15
tp1203
(lp1204
F1.527126
aF100
as(I29
I16
I15
tp1205
(lp1206
F109.47122063449069
aF1
as(I17
I16
I2
tp1207
(lp1208
F109.47122063449069
aF1
as(I15
I16
I2
tp1209
(lp1210
F109.47122063449069
aF1
asI29
(F0.44980288073153685
F-1.9596737092514376
F-1.1263864566447459
tp1211
s(I29
I16
tp1212
(lp1213
F1.0833090000000001
aF100
astRp1214
(dp1215
g1098
(dp1216
I16
I2
sI17
I3
sI2
I0
sI29
I4
sI15
I1
ssg1100
(lp1217
sg1102
(lp1218
F50
asg1104
(dp1219
sg1106
Nsg1107
(lp1220
(lp1221
(lp1222
(lp1223
g351
ag341
ag35
ag361
aa(lp1224
F-2.5110833783732081
aI01
aF1
aaaasg1113
I00
sbssS'ring_atom_lists'
p1225
(lp1226
sS'OutputHeaderData'
p1227
(dp1228
S'smiles'
p1229
S'O[C@@H]1[C@@H](CO[P@](O)(=O)OP(O)(O)=O)O[C@H]([C@@H]1O)n1ccc(=O)[nH]c1=O'
p1230
sS'qm_method'
p1231
S'uhf'
p1232
sS'random_seed'
p1233
S'3628800'
p1234
sS'qm_basis'
p1235
S'am1'
p1236
ssS'OriginalFormat'
p1237
g1
(celbow.formats.FormatClass
FormatClass
p1238
g1069
(dp1239
S'atom_names'
p1240
I00
sg1229
I01
sS'bond_orders'
p1241
I01
sS'bond_connections'
p1242
I01
sS'xyz_coordinates'
p1243
I00
stRp1244
(dp1245
S'format'
p1246
S'SMILES'
p1247
sbsS'WriteCIF2String_defaults'
p1248
(lp1249
I00
aI01
aS'UDP'
p1250
aS''
ag1230
aI01
aI00
aS'retain'
p1251
aI00
aI01
aI01
a(I4
I3
I2
tp1252
aI00
aI00
aNaI01
a(lp1253
a(lp1254
a(lp1255
a(lp1256
aI00
aI00
asS'chiral_class'
p1257
(dp1258
I1
g1
(celbow.chemistry.ChiralClass
ChiralClass
p1259
g3
(lp1260
g811
ag35
ag5
ag351
ag51
atRp1261
(dp1262
S'rs_priority'
p1263
(lp1264
g811
ag51
ag351
ag5
asS'id_tag'
p1265
I139986370053320
sS'equil'
p1266
F-2.5110833783732081
sS'parent'
p1267
g896
sS'bonds'
p1268
g1
(celbow.chemistry.InternalCoordinateListClass
InternalCoordinateListClass
p1269
g3
(lp1270
g1
(celbow.chemistry.BondClass
BondClass
p1271
g3
(lp1272
g35
ag5
atRp1273
(dp1274
S'symbols'
p1275
(lp1276
sS'restrain'
p1277
I00
sg1266
F1.398717
sS'max_atoms'
p1278
I2
sg150
S'-'
sS'input_order'
p1279
I1
sS'order'
p1280
I1
sbag1
(g1271
g3
(lp1281
g51
ag35
atRp1282
(dp1283
g1275
g1276
sg1277
I00
sg1266
F1.527126
sg1278
I2
sg150
S'-'
sg1279
I1
sg1280
I1
sbag1
(g1271
g3
(lp1284
g73
ag61
atRp1285
(dp1286
g1275
g1276
sg1277
I00
sg1266
F1.398717
sg1278
I2
sg150
S'-'
sg1279
I1
sg1280
I1
sbag1
(g1271
g3
(lp1287
g105
ag73
atRp1288
(dp1289
g1275
g1276
sg1277
I00
sg1266
F1.6482159999999999
sg1278
I2
sg150
S'-'
sg1279
I1
sg1280
I1
sbag1
(g1271
g3
(lp1290
g123
ag105
atRp1291
(dp1292
g1266
F1.51
sg1278
I2
sg150
S'-'
sg1275
g1276
sg1277
I01
sS'deloc'
p1293
I01
sg1279
I1
sg1280
I1
sbag1
(g1271
g3
(lp1294
g157
ag105
atRp1295
(dp1296
g1266
F1.51
sg1278
I2
sg150
S'='
sg1275
g1276
sg1277
I01
sg1293
I01
sg1279
I2
sg1280
I2
sbag1
(g1271
g3
(lp1297
g175
ag105
atRp1298
(dp1299
g1275
g1276
sg1277
I00
sg1266
F1.6482159999999999
sg1278
I2
sg150
S'-'
sg1279
I1
sg1280
I1
sbag1
(g1271
g3
(lp1300
g192
ag175
atRp1301
(dp1302
g1275
g1276
sg1277
I00
sg1266
F1.6482159999999999
sg1278
I2
sg150
S'-'
sg1279
I1
sg1280
I1
sbag1
(g1271
g3
(lp1303
g209
ag192
atRp1304
(dp1305
g1266
F1.51
sg1278
I2
sg150
S'-'
sg1275
g1276
sg1277
I01
sg1293
I01
sg1279
I1
sg1280
I1
sbag1
(g1271
g3
(lp1306
g228
ag192
atRp1307
(dp1308
g1266
F1.51
sg1278
I2
sg150
S'-'
sg1275
g1276
sg1277
I01
sg1293
I01
sg1279
I1
sg1280
I1
sbag1
(g1271
g3
(lp1309
g247
ag192
atRp1310
(dp1311
g1266
F1.51
sg1278
I2
sg150
S'='
sg1275
g1276
sg1277
I01
sg1293
I01
sg1279
I2
sg1280
I2
sbag1
(g1271
g3
(lp1312
g61
ag51
atRp1313
(dp1314
g1275
g1276
sg1277
I00
sg1266
F1.527126
sg1278
I2
sg150
S'-'
sg1279
I1
sg1280
I1
sbag1
(g1271
g3
(lp1315
g329
ag51
atRp1316
(dp1317
g1275
g1276
sg1277
I00
sg1266
F1.398717
sg1278
I2
sg150
S'-'
sg1279
I1
sg1280
I1
sbag1
(g1271
g3
(lp1318
g341
ag329
atRp1319
(dp1320
g1275
g1276
sg1277
I00
sg1266
F1.398717
sg1278
I2
sg150
S'-'
sg1279
I1
sg1280
I1
sbag1
(g1271
g3
(lp1321
g361
ag351
atRp1322
(dp1323
g1275
g1276
sg1277
I00
sg1266
F1.398717
sg1278
I2
sg150
S'-'
sg1279
I1
sg1280
I1
sbag1
(g1271
g3
(lp1324
g351
ag341
atRp1325
(dp1326
g1275
g1276
sg1277
I00
sg1266
F1.527126
sg1278
I2
sg150
S'-'
sg1279
I1
sg1280
I1
sbag1
(g1271
g3
(lp1327
g465
ag341
atRp1328
(dp1329
g1275
g1276
sg1277
I00
sg1266
F1.451533
sg1278
I2
sg150
S'-'
sg1279
I1
sg1280
I1
sbag1
(g1271
g3
(lp1330
g476
ag465
atRp1331
(dp1332
g1275
g1276
sS'order_conect'
p1333
I1
sg1277
I00
sg1266
F1.321345
sg1278
I2
sg150
S':'
sg1279
I1
sg1280
F1.5
sbag1
(g1271
g3
(lp1334
g488
ag476
atRp1335
(dp1336
g1275
g1276
sg1333
I2
sg1277
I00
sg1266
F1.385372
sg1278
I2
sg150
S':'
sg1279
I1
sg1280
F1.5
sbag1
(g1271
g3
(lp1337
g500
ag488
atRp1338
(dp1339
g1275
g1276
sg1333
I1
sg1277
I00
sg1266
F1.385372
sg1278
I2
sg150
S':'
sg1279
I1
sg1280
F1.5
sbag1
(g1271
g3
(lp1340
g512
ag500
atRp1341
(dp1342
g1275
g1276
sg1277
I00
sg1266
F1.184607
sg1278
I2
sg150
S'='
sg1279
I2
sg1280
I2
sbag1
(g1271
g3
(lp1343
g531
ag500
atRp1344
(dp1345
g1275
g1276
sg1333
I2
sg1277
I00
sg1266
F1.321345
sg1278
I2
sg150
S':'
sg1279
I1
sg1280
F1.5
sbag1
(g1271
g3
(lp1346
g541
ag531
atRp1347
(dp1348
g1275
g1276
sg1333
I1
sg1277
I00
sg1266
F1.321345
sg1278
I2
sg150
S':'
sg1279
I1
sg1280
F1.5
sbag1
(g1271
g3
(lp1349
g551
ag541
atRp1350
(dp1351
g1275
g1276
sg1277
I00
sg1266
F1.184607
sg1278
I2
sg150
S'='
sg1279
I2
sg1280
I2
sbag1
(g1271
g3
(lp1352
g35
ag351
atRp1353
(dp1354
g1275
g1276
sg1277
I00
sg1266
F1.527126
sg1278
I2
sg150
S'-'
sg1279
I1
sg1280
I1
sbag1
(g1271
g3
(lp1355
g465
ag541
atRp1356
(dp1357
g1275
g1276
sg1333
I2
sg1277
I00
sg1266
F1.321345
sg1278
I2
sg150
S':'
sg1279
I1
sg1280
F1.5
sbag1
(g1271
g3
(lp1358
g811
ag35
atRp1359
(dp1360
g1275
g1276
sg1277
I00
sg1266
F1.0833090000000001
sg1278
I2
sg150
S'-'
sg1279
I1
sg1280
I1
sbag1
(g1271
g3
(lp1361
g767
ag51
atRp1362
(dp1363
g1275
g1276
sg1277
I00
sg1266
F1.0833090000000001
sg1278
I2
sg150
S'-'
sg1279
I1
sg1280
I1
sbag1
(g1271
g3
(lp1364
g697
ag341
atRp1365
(dp1366
g1275
g1276
sg1277
I00
sg1266
F1.0833090000000001
sg1278
I2
sg150
S'-'
sg1279
I1
sg1280
I1
sbag1
(g1271
g3
(lp1367
g410
ag351
atRp1368
(dp1369
g1275
g1276
sg1277
I00
sg1266
F1.0833090000000001
sg1278
I2
sg150
S'-'
sg1279
I1
sg1280
I1
sbag1
(g1271
g3
(lp1370
g584
ag531
atRp1371
(dp1372
g1275
g1276
sg1277
I00
sg1266
F1.0008300000000001
sg1278
I2
sg150
S'-'
sg1279
I1
sg1280
I1
sbag1
(g1271
g3
(lp1373
g862
ag5
atRp1374
(dp1375
g1275
g1276
sg1277
I00
sg1266
F0.94288300000000003
sg1278
I2
sg150
S'-'
sg1279
I1
sg1280
I1
sbag1
(g1271
g3
(lp1376
g271
ag61
atRp1377
(dp1378
g1275
g1276
sg1277
I00
sg1266
F1.0833090000000001
sg1278
I2
sg150
S'-'
sg1279
I1
sg1280
I1
sbag1
(g1271
g3
(lp1379
g289
ag61
atRp1380
(dp1381
g1275
g1276
sg1277
I00
sg1266
F1.0833090000000001
sg1278
I2
sg150
S'-'
sg1279
I1
sg1280
I1
sbag1
(g1271
g3
(lp1382
g373
ag361
atRp1383
(dp1384
g1275
g1276
sg1277
I00
sg1266
F0.94288300000000003
sg1278
I2
sg150
S'-'
sg1279
I1
sg1280
I1
sbag1
(g1271
g3
(lp1385
g650
ag476
atRp1386
(dp1387
g1275
g1276
sg1277
I00
sg1266
F1.0833090000000001
sg1278
I2
sg150
S'-'
sg1279
I1
sg1280
I1
sbag1
(g1271
g3
(lp1388
g623
ag488
atRp1389
(dp1390
g1275
g1276
sg1277
I00
sg1266
F1.0833090000000001
sg1278
I2
sg150
S'-'
sg1279
I1
sg1280
I1
sbatRp1391
sS'skip'
p1392
(lp1393
I2
asS'get_bond_by_atoms_lookup'
p1394
(dp1395
S'n18:C15'
p1396
g1328
sS'C16:O17'
p1397
g1322
sS'C15:O14'
p1398
g1319
sS'n23:c21'
p1399
g1344
sS'O7:P6'
p1400
g1291
sS'C3:C4'
p1401
g1313
sS' C02: O01'
p1402
g1273
sS'n23:c24'
p1403
g1347
sS'C2:C3'
p1404
g1282
sS'H30:n23'
p1405
g1371
sS'c24:O25'
p1406
g1350
sS'P6:O5'
p1407
g1288
sS'P6:O7'
p1408
g1291
sS'P6:O8'
p1409
g1295
sS'P6:O9'
p1410
g1298
sS'C4:C3'
p1411
g1313
sS'C16:H29'
p1412
g1368
sS'C15:n18'
p1413
g1328
sS' C02: C16'
p1414
g1353
sS'O25:c24'
p1415
g1350
sS'n18:c24'
p1416
g1356
sS'c21:O22'
p1417
g1341
sS'c21:c20'
p1418
g1338
sS'C2:H26'
p1419
g1359
sS'O14:C15'
p1420
g1319
sS'C4:O5'
p1421
g1285
sS'C2:C16'
p1422
g1353
sS'c24:n18'
p1423
g1356
sS'C16:C15'
p1424
g1325
sS'H29:C16'
p1425
g1368
sS'c21:n23'
p1426
g1344
sS'C15:C16'
p1427
g1325
sS'O5:P6'
p1428
g1288
sS'C3:O14'
p1429
g1316
sS'O5:C4'
p1430
g1285
sS'n23:H30'
p1431
g1371
sS'O14:C3'
p1432
g1316
sS'c19:n18'
p1433
g1331
sS'c19:c20'
p1434
g1335
sS'c20:c19'
p1435
g1335
sS' C02: C03'
p1436
g1282
sS'C15:H28'
p1437
g1365
sS'c20:c21'
p1438
g1338
sS'O17:C16'
p1439
g1322
sS'n18:c19'
p1440
g1331
sS'O8:P6'
p1441
g1295
sS'H28:C15'
p1442
g1365
sS'O9:P10'
p1443
g1301
sS'O9:P6'
p1444
g1298
sS'c24:n23'
p1445
g1347
sS'C3:H27'
p1446
g1362
sS'H27:C3'
p1447
g1362
ssS'axis_atom'
p1448
g811
sS'angles'
p1449
g1
(g1269
g3
(lp1450
g1
(celbow.chemistry.AngleClass
AngleClass
p1451
g3
(lp1452
g51
ag35
ag5
atRp1453
(dp1454
g1275
(lp1455
S'-'
aS'-'
asg1277
I01
sg1266
F109.47122063449069
sbag1
(g1451
g3
(lp1456
g351
ag35
ag5
atRp1457
(dp1458
g1275
(lp1459
S'-'
aS'-'
asg1277
I01
sg1266
F109.47122063449069
sbag1
(g1451
g3
(lp1460
g811
ag35
ag5
atRp1461
(dp1462
g1275
(lp1463
S'-'
aS'-'
asg1277
I01
sg1266
F109.47122063449069
sbag1
(g1451
g3
(lp1464
g61
ag51
ag35
atRp1465
(dp1466
g1275
(lp1467
S'-'
aS'-'
asg1277
I01
sg1266
F109.47122063449069
sbag1
(g1451
g3
(lp1468
g329
ag51
ag35
atRp1469
(dp1470
g1275
(lp1471
S'-'
aS'-'
asg1277
I01
sg1266
F109.47122063449069
sbag1
(g1451
g3
(lp1472
g767
ag51
ag35
atRp1473
(dp1474
g1275
(lp1475
S'-'
aS'-'
asg1277
I01
sg1266
F109.47122063449069
sbag1
(g1451
g3
(lp1476
g361
ag351
ag35
atRp1477
(dp1478
g1275
(lp1479
S'-'
aS'-'
asg1277
I01
sg1266
F109.47122063449069
sbag1
(g1451
g3
(lp1480
g341
ag351
ag35
atRp1481
(dp1482
g1275
(lp1483
S'-'
aS'-'
asg1277
I01
sg1266
F109.47122063449069
sbag1
(g1451
g3
(lp1484
g410
ag351
ag35
atRp1485
(dp1486
g1275
(lp1487
S'-'
aS'-'
asg1277
I01
sg1266
F109.47122063449069
sbag1
(g1451
g3
(lp1488
g351
ag35
ag51
atRp1489
(dp1490
g1275
(lp1491
S'-'
aS'-'
asg1277
I01
sg1266
F109.47122063449069
sbag1
(g1451
g3
(lp1492
g811
ag35
ag51
atRp1493
(dp1494
g1275
(lp1495
S'-'
aS'-'
asg1277
I01
sg1266
F109.47122063449069
sbag1
(g1451
g3
(lp1496
g73
ag61
ag51
atRp1497
(dp1498
g1275
(lp1499
S'-'
aS'-'
asg1277
I01
sg1266
F108.129
sbag1
(g1451
g3
(lp1500
g341
ag329
ag51
atRp1501
(dp1502
g1275
(lp1503
S'-'
aS'-'
asg1277
I01
sg1266
F103
sbag1
(g1451
g3
(lp1504
g105
ag73
ag61
atRp1505
(dp1506
g1275
(lp1507
S'-'
aS'-'
asg1277
I01
sg1266
F118.45999999999999
sbag1
(g1451
g3
(lp1508
g329
ag51
ag61
atRp1509
(dp1510
g1275
(lp1511
S'-'
aS'-'
asg1277
I01
sg1266
F109.47122063449069
sbag1
(g1451
g3
(lp1512
g767
ag51
ag61
atRp1513
(dp1514
g1275
(lp1515
S'-'
aS'-'
asg1277
I01
sg1266
F109.47122063449069
sbag1
(g1451
g3
(lp1516
g123
ag105
ag73
atRp1517
(dp1518
g1275
(lp1519
S'-'
aS'-'
asg1277
I01
sg1266
F120
sbag1
(g1451
g3
(lp1520
g157
ag105
ag73
atRp1521
(dp1522
g1275
(lp1523
S'='
aS'-'
asg1277
I01
sg1266
F120
sbag1
(g1451
g3
(lp1524
g175
ag105
ag73
atRp1525
(dp1526
g1275
(lp1527
S'-'
aS'-'
asg1277
I01
sg1266
F120
sbag1
(g1451
g3
(lp1528
g192
ag175
ag105
atRp1529
(dp1530
g1275
(lp1531
S'-'
aS'-'
asg1277
I01
sg1266
F123.64
sbag1
(g1451
g3
(lp1532
g157
ag105
ag123
atRp1533
(dp1534
g1275
(lp1535
S'='
aS'-'
asg1277
I01
sg1266
F120
sbag1
(g1451
g3
(lp1536
g175
ag105
ag123
atRp1537
(dp1538
g1275
(lp1539
S'-'
aS'-'
asg1277
I01
sg1266
F120
sbag1
(g1451
g3
(lp1540
g175
ag105
ag157
atRp1541
(dp1542
g1275
(lp1543
S'-'
aS'='
asg1277
I01
sg1266
F120
sbag1
(g1451
g3
(lp1544
g209
ag192
ag175
atRp1545
(dp1546
g1275
(lp1547
S'-'
aS'-'
asg1277
I01
sg1266
F120
sbag1
(g1451
g3
(lp1548
g228
ag192
ag175
atRp1549
(dp1550
g1275
(lp1551
S'-'
aS'-'
asg1277
I01
sg1266
F120
sbag1
(g1451
g3
(lp1552
g247
ag192
ag175
atRp1553
(dp1554
g1275
(lp1555
S'='
aS'-'
asg1277
I01
sg1266
F120
sbag1
(g1451
g3
(lp1556
g228
ag192
ag209
atRp1557
(dp1558
g1275
(lp1559
S'-'
aS'-'
asg1277
I01
sg1266
F120
sbag1
(g1451
g3
(lp1560
g247
ag192
ag209
atRp1561
(dp1562
g1275
(lp1563
S'='
aS'-'
asg1277
I01
sg1266
F120
sbag1
(g1451
g3
(lp1564
g247
ag192
ag228
atRp1565
(dp1566
g1275
(lp1567
S'='
aS'-'
asg1277
I01
sg1266
F120
sbag1
(g1451
g3
(lp1568
g767
ag51
ag329
atRp1569
(dp1570
g1275
(lp1571
S'-'
aS'-'
asg1277
I01
sg1266
F109.47122063449069
sbag1
(g1451
g3
(lp1572
g351
ag341
ag329
atRp1573
(dp1574
g1275
(lp1575
S'-'
aS'-'
asg1277
I01
sg1266
F109.47122063449069
sbag1
(g1451
g3
(lp1576
g465
ag341
ag329
atRp1577
(dp1578
g1275
(lp1579
S'-'
aS'-'
asg1277
I01
sg1266
F109.47122063449069
sbag1
(g1451
g3
(lp1580
g697
ag341
ag329
atRp1581
(dp1582
g1275
(lp1583
S'-'
aS'-'
asg1277
I01
sg1266
F109.47122063449069
sbag1
(g1451
g3
(lp1584
g361
ag351
ag341
atRp1585
(dp1586
g1275
(lp1587
S'-'
aS'-'
asg1277
I01
sg1266
F109.47122063449069
sbag1
(g1451
g3
(lp1588
g410
ag351
ag341
atRp1589
(dp1590
g1275
(lp1591
S'-'
aS'-'
asg1277
I01
sg1266
F109.47122063449069
sbag1
(g1451
g3
(lp1592
g476
ag465
ag341
atRp1593
(dp1594
g1275
(lp1595
S'-'
aS'-'
asg1277
I01
sg1266
F120
sbag1
(g1451
g3
(lp1596
g541
ag465
ag341
atRp1597
(dp1598
g1275
(lp1599
S'-'
aS'-'
asg1277
I01
sg1266
F120
sbag1
(g1451
g3
(lp1600
g465
ag341
ag351
atRp1601
(dp1602
g1275
(lp1603
S'-'
aS'-'
asg1277
I01
sg1266
F109.47122063449069
sbag1
(g1451
g3
(lp1604
g697
ag341
ag351
atRp1605
(dp1606
g1275
(lp1607
S'-'
aS'-'
asg1277
I01
sg1266
F109.47122063449069
sbag1
(g1451
g3
(lp1608
g811
ag35
ag351
atRp1609
(dp1610
g1275
(lp1611
S'-'
aS'-'
asg1277
I01
sg1266
F109.47122063449069
sbag1
(g1451
g3
(lp1612
g410
ag351
ag361
atRp1613
(dp1614
g1275
(lp1615
S'-'
aS'-'
asg1277
I01
sg1266
F109.47122063449069
sbag1
(g1451
g3
(lp1616
g697
ag341
ag465
atRp1617
(dp1618
g1275
(lp1619
S'-'
aS'-'
asg1277
I01
sg1266
F109.47122063449069
sbag1
(g1451
g3
(lp1620
g488
ag476
ag465
atRp1621
(dp1622
g1275
(lp1623
S'-'
aS'-'
asg1277
I01
sg1266
F120
sbag1
(g1451
g3
(lp1624
g531
ag541
ag465
atRp1625
(dp1626
g1275
(lp1627
S'-'
aS'-'
asg1277
I01
sg1266
F120
sbag1
(g1451
g3
(lp1628
g551
ag541
ag465
atRp1629
(dp1630
g1275
(lp1631
S'='
aS'-'
asg1277
I01
sg1266
F120
sbag1
(g1451
g3
(lp1632
g541
ag465
ag476
atRp1633
(dp1634
g1275
(lp1635
S'-'
aS'-'
asg1277
I01
sg1266
F120
sbag1
(g1451
g3
(lp1636
g500
ag488
ag476
atRp1637
(dp1638
g1275
(lp1639
S'-'
aS'-'
asg1277
I01
sg1266
F120
sbag1
(g1451
g3
(lp1640
g512
ag500
ag488
atRp1641
(dp1642
g1275
(lp1643
S'='
aS'-'
asg1277
I01
sg1266
F120
sbag1
(g1451
g3
(lp1644
g531
ag500
ag488
atRp1645
(dp1646
g1275
(lp1647
S'-'
aS'-'
asg1277
I01
sg1266
F120
sbag1
(g1451
g3
(lp1648
g541
ag531
ag500
atRp1649
(dp1650
g1275
(lp1651
S'-'
aS'-'
asg1277
I01
sg1266
F120
sbag1
(g1451
g3
(lp1652
g584
ag531
ag500
atRp1653
(dp1654
g1275
(lp1655
S'-'
aS'-'
asg1277
I01
sg1266
F120
sbag1
(g1451
g3
(lp1656
g531
ag500
ag512
atRp1657
(dp1658
g1275
(lp1659
S'-'
aS'='
asg1277
I01
sg1266
F120
sbag1
(g1451
g3
(lp1660
g551
ag541
ag531
atRp1661
(dp1662
g1275
(lp1663
S'='
aS'-'
asg1277
I01
sg1266
F120
sbag1
(g1451
g3
(lp1664
g584
ag531
ag541
atRp1665
(dp1666
g1275
(lp1667
S'-'
aS'-'
asg1277
I01
sg1266
F120
sbatRp1668
sS'dihedrals'
p1669
g1
(g1269
g3
(lp1670
g1
(celbow.chemistry.DihedralClass
DihedralClass
p1671
g3
(lp1672
g61
ag51
ag35
ag5
atRp1673
(dp1674
g1275
(lp1675
S'-'
aS'-'
aS'-'
asg1277
I00
sbag1
(g1671
g3
(lp1676
g329
ag51
ag35
ag5
atRp1677
(dp1678
g1275
(lp1679
S'-'
aS'-'
aS'-'
asg1277
I00
sbag1
(g1671
g3
(lp1680
g767
ag51
ag35
ag5
atRp1681
(dp1682
g1275
(lp1683
S'-'
aS'-'
aS'-'
asg1277
I00
sbag1
(g1671
g3
(lp1684
g361
ag351
ag35
ag5
atRp1685
(dp1686
g1275
(lp1687
S'-'
aS'-'
aS'-'
asg1277
I00
sbag1
(g1671
g3
(lp1688
g341
ag351
ag35
ag5
atRp1689
(dp1690
g1275
(lp1691
S'-'
aS'-'
aS'-'
asg1277
I00
sbag1
(g1671
g3
(lp1692
g410
ag351
ag35
ag5
atRp1693
(dp1694
g1275
(lp1695
S'-'
aS'-'
aS'-'
asg1277
I00
sbag1
(g1671
g3
(lp1696
g73
ag61
ag51
ag35
atRp1697
(dp1698
g1275
(lp1699
S'-'
aS'-'
aS'-'
asg1277
I00
sbag1
(g1671
g3
(lp1700
g341
ag329
ag51
ag35
atRp1701
(dp1702
g1275
(lp1703
S'-'
aS'-'
aS'-'
asg1277
I00
sbag1
(g1671
g3
(lp1704
g329
ag341
ag351
ag35
atRp1705
(dp1706
g1275
(lp1707
S'-'
aS'-'
aS'-'
asg1277
I00
sbag1
(g1671
g3
(lp1708
g465
ag341
ag351
ag35
atRp1709
(dp1710
g1275
(lp1711
S'-'
aS'-'
aS'-'
asg1277
I00
sbag1
(g1671
g3
(lp1712
g697
ag341
ag351
ag35
atRp1713
(dp1714
g1275
(lp1715
S'-'
aS'-'
aS'-'
asg1277
I00
sbag1
(g1671
g3
(lp1716
g361
ag351
ag35
ag51
atRp1717
(dp1718
g1275
(lp1719
S'-'
aS'-'
aS'-'
asg1277
I00
sbag1
(g1671
g3
(lp1720
g341
ag351
ag35
ag51
atRp1721
(dp1722
g1275
(lp1723
S'-'
aS'-'
aS'-'
asg1277
I00
sbag1
(g1671
g3
(lp1724
g410
ag351
ag35
ag51
atRp1725
(dp1726
g1275
(lp1727
S'-'
aS'-'
aS'-'
asg1277
I00
sbag1
(g1671
g3
(lp1728
g105
ag73
ag61
ag51
atRp1729
(dp1730
g1275
(lp1731
S'-'
aS'-'
aS'-'
asg1277
I00
sbag1
(g1671
g3
(lp1732
g351
ag341
ag329
ag51
atRp1733
(dp1734
g1275
(lp1735
S'-'
aS'-'
aS'-'
asg1277
I00
sbag1
(g1671
g3
(lp1736
g465
ag341
ag329
ag51
atRp1737
(dp1738
g1275
(lp1739
S'-'
aS'-'
aS'-'
asg1277
I00
sbag1
(g1671
g3
(lp1740
g697
ag341
ag329
ag51
atRp1741
(dp1742
g1275
(lp1743
S'-'
aS'-'
aS'-'
asg1277
I00
sbag1
(g1671
g3
(lp1744
g123
ag105
ag73
ag61
atRp1745
(dp1746
g1275
(lp1747
S'-'
aS'-'
aS'-'
asg1277
I00
sbag1
(g1671
g3
(lp1748
g157
ag105
ag73
ag61
atRp1749
(dp1750
g1275
(lp1751
S'='
aS'-'
aS'-'
asg1277
I00
sbag1
(g1671
g3
(lp1752
g175
ag105
ag73
ag61
atRp1753
(dp1754
g1275
(lp1755
S'-'
aS'-'
aS'-'
asg1277
I00
sbag1
(g1671
g3
(lp1756
g351
ag35
ag51
ag61
atRp1757
(dp1758
g1275
(lp1759
S'-'
aS'-'
aS'-'
asg1277
I00
sbag1
(g1671
g3
(lp1760
g811
ag35
ag51
ag61
atRp1761
(dp1762
g1275
(lp1763
S'-'
aS'-'
aS'-'
asg1277
I00
sbag1
(g1671
g3
(lp1764
g341
ag329
ag51
ag61
atRp1765
(dp1766
g1275
(lp1767
S'-'
aS'-'
aS'-'
asg1277
I00
sbag1
(g1671
g3
(lp1768
g329
ag51
ag61
ag73
atRp1769
(dp1770
g1275
(lp1771
S'-'
aS'-'
aS'-'
asg1277
I00
sbag1
(g1671
g3
(lp1772
g767
ag51
ag61
ag73
atRp1773
(dp1774
g1275
(lp1775
S'-'
aS'-'
aS'-'
asg1277
I00
sbag1
(g1671
g3
(lp1776
g192
ag175
ag105
ag73
atRp1777
(dp1778
g1275
(lp1779
S'-'
aS'-'
aS'-'
asg1277
I00
sbag1
(g1671
g3
(lp1780
g209
ag192
ag175
ag105
atRp1781
(dp1782
g1275
(lp1783
S'-'
aS'-'
aS'-'
asg1277
I00
sbag1
(g1671
g3
(lp1784
g228
ag192
ag175
ag105
atRp1785
(dp1786
g1275
(lp1787
S'-'
aS'-'
aS'-'
asg1277
I00
sbag1
(g1671
g3
(lp1788
g247
ag192
ag175
ag105
atRp1789
(dp1790
g1275
(lp1791
S'='
aS'-'
aS'-'
asg1277
I00
sbag1
(g1671
g3
(lp1792
g192
ag175
ag105
ag123
atRp1793
(dp1794
g1275
(lp1795
S'-'
aS'-'
aS'-'
asg1277
I00
sbag1
(g1671
g3
(lp1796
g192
ag175
ag105
ag157
atRp1797
(dp1798
g1275
(lp1799
S'-'
aS'-'
aS'='
asg1277
I00
sbag1
(g1671
g3
(lp1800
g351
ag35
ag51
ag329
atRp1801
(dp1802
g1275
(lp1803
S'-'
aS'-'
aS'-'
asg1277
I00
sbag1
(g1671
g3
(lp1804
g811
ag35
ag51
ag329
atRp1805
(dp1806
g1275
(lp1807
S'-'
aS'-'
aS'-'
asg1277
I00
sbag1
(g1671
g3
(lp1808
g361
ag351
ag341
ag329
atRp1809
(dp1810
g1275
(lp1811
S'-'
aS'-'
aS'-'
asg1277
I00
sbag1
(g1671
g3
(lp1812
g410
ag351
ag341
ag329
atRp1813
(dp1814
g1275
(lp1815
S'-'
aS'-'
aS'-'
asg1277
I00
sbag1
(g1671
g3
(lp1816
g476
ag465
ag341
ag329
atRp1817
(dp1818
g1275
(lp1819
S'-'
aS'-'
aS'-'
asg1277
I00
sbag1
(g1671
g3
(lp1820
g541
ag465
ag341
ag329
atRp1821
(dp1822
g1275
(lp1823
S'-'
aS'-'
aS'-'
asg1277
I00
sbag1
(g1671
g3
(lp1824
g767
ag51
ag329
ag341
atRp1825
(dp1826
g1275
(lp1827
S'-'
aS'-'
aS'-'
asg1277
I00
sbag1
(g1671
g3
(lp1828
g811
ag35
ag351
ag341
atRp1829
(dp1830
g1275
(lp1831
S'-'
aS'-'
aS'-'
asg1277
I00
sbag1
(g1671
g3
(lp1832
g488
ag476
ag465
ag341
atRp1833
(dp1834
g1275
(lp1835
S'-'
aS'-'
aS'-'
asg1277
I00
sbag1
(g1671
g3
(lp1836
g531
ag541
ag465
ag341
atRp1837
(dp1838
g1275
(lp1839
S'-'
aS'-'
aS'-'
asg1277
I00
sbag1
(g1671
g3
(lp1840
g551
ag541
ag465
ag341
atRp1841
(dp1842
g1275
(lp1843
S'='
aS'-'
aS'-'
asg1277
I00
sbag1
(g1671
g3
(lp1844
g476
ag465
ag341
ag351
atRp1845
(dp1846
g1275
(lp1847
S'-'
aS'-'
aS'-'
asg1277
I00
sbag1
(g1671
g3
(lp1848
g541
ag465
ag341
ag351
atRp1849
(dp1850
g1275
(lp1851
S'-'
aS'-'
aS'-'
asg1277
I00
sbag1
(g1671
g3
(lp1852
g767
ag51
ag35
ag351
atRp1853
(dp1854
g1275
(lp1855
S'-'
aS'-'
aS'-'
asg1277
I00
sbag1
(g1671
g3
(lp1856
g465
ag341
ag351
ag361
atRp1857
(dp1858
g1275
(lp1859
S'-'
aS'-'
aS'-'
asg1277
I00
sbag1
(g1671
g3
(lp1860
g697
ag341
ag351
ag361
atRp1861
(dp1862
g1275
(lp1863
S'-'
aS'-'
aS'-'
asg1277
I00
sbag1
(g1671
g3
(lp1864
g811
ag35
ag351
ag361
atRp1865
(dp1866
g1275
(lp1867
S'-'
aS'-'
aS'-'
asg1277
I00
sbag1
(g1671
g3
(lp1868
g410
ag351
ag341
ag465
atRp1869
(dp1870
g1275
(lp1871
S'-'
aS'-'
aS'-'
asg1277
I00
sbag1
(g1671
g3
(lp1872
g500
ag488
ag476
ag465
atRp1873
(dp1874
g1275
(lp1875
S'-'
aS'-'
aS'-'
asg1277
I00
sbag1
(g1671
g3
(lp1876
g500
ag531
ag541
ag465
atRp1877
(dp1878
g1275
(lp1879
S'-'
aS'-'
aS'-'
asg1277
I00
sbag1
(g1671
g3
(lp1880
g584
ag531
ag541
ag465
atRp1881
(dp1882
g1275
(lp1883
S'-'
aS'-'
aS'-'
asg1277
I01
sg1266
F180
sbag1
(g1671
g3
(lp1884
g697
ag341
ag465
ag476
atRp1885
(dp1886
g1275
(lp1887
S'-'
aS'-'
aS'-'
asg1277
I00
sbag1
(g1671
g3
(lp1888
g531
ag541
ag465
ag476
atRp1889
(dp1890
g1275
(lp1891
S'-'
aS'-'
aS'-'
asg1277
I00
sbag1
(g1671
g3
(lp1892
g551
ag541
ag465
ag476
atRp1893
(dp1894
g1275
(lp1895
S'='
aS'-'
aS'-'
asg1277
I00
sbag1
(g1671
g3
(lp1896
g512
ag500
ag488
ag476
atRp1897
(dp1898
g1275
(lp1899
S'='
aS'-'
aS'-'
asg1277
I00
sbag1
(g1671
g3
(lp1900
g531
ag500
ag488
ag476
atRp1901
(dp1902
g1275
(lp1903
S'-'
aS'-'
aS'-'
asg1277
I00
sbag1
(g1671
g3
(lp1904
g541
ag465
ag476
ag488
atRp1905
(dp1906
g1275
(lp1907
S'-'
aS'-'
aS'-'
asg1277
I00
sbag1
(g1671
g3
(lp1908
g541
ag531
ag500
ag488
atRp1909
(dp1910
g1275
(lp1911
S'-'
aS'-'
aS'-'
asg1277
I00
sbag1
(g1671
g3
(lp1912
g584
ag531
ag500
ag488
atRp1913
(dp1914
g1275
(lp1915
S'-'
aS'-'
aS'-'
asg1277
I01
sg1266
F180
sbag1
(g1671
g3
(lp1916
g551
ag541
ag531
ag500
atRp1917
(dp1918
g1275
(lp1919
S'='
aS'-'
aS'-'
asg1277
I00
sbag1
(g1671
g3
(lp1920
g541
ag531
ag500
ag512
atRp1921
(dp1922
g1275
(lp1923
S'-'
aS'-'
aS'='
asg1277
I00
sbag1
(g1671
g3
(lp1924
g584
ag531
ag500
ag512
atRp1925
(dp1926
g1275
(lp1927
S'-'
aS'-'
aS'='
asg1277
I00
sbag1
(g1671
g3
(lp1928
g697
ag341
ag465
ag541
atRp1929
(dp1930
g1275
(lp1931
S'-'
aS'-'
aS'-'
asg1277
I00
sbag1
(g1671
g3
(lp1932
g584
ag531
ag541
ag551
atRp1933
(dp1934
g1275
(lp1935
S'-'
aS'-'
aS'='
asg1277
I00
sbag1
(g1671
g3
(lp1936
g767
ag51
ag35
ag811
atRp1937
(dp1938
g1275
(lp1939
S'-'
aS'-'
aS'-'
asg1277
I00
sbag1
(g1671
g3
(lp1940
g410
ag351
ag35
ag811
atRp1941
(dp1942
g1275
(lp1943
S'-'
aS'-'
aS'-'
asg1277
I00
sbag1
(g1671
g3
(lp1944
g410
ag351
ag341
ag697
atRp1945
(dp1946
g1275
(lp1947
S'-'
aS'-'
aS'-'
asg1277
I00
sbatRp1948
sg949
I01
sg950
(dp1949
g952
(dp1950
g954
F0.25
sg955
I50
ssg956
(dp1951
g954
F1
sg955
F100
ssg958
(dp1952
g954
I10
sg955
F100
ssg960
(dp1953
g962
F0.10000000000000001
sg963
F100
sg954
F1.5
sg154
F50
sg964
F0.25
sg965
F0.20000000000000001
ssg966
(dp1954
g968
F10
sg954
F2
sg970
F10
sg969
F1
sg955
F200
ssg971
(dp1955
g955
F100
sssS'input_volume'
p1956
NsS'CIF_three_letter_code'
p1957
S'UDP'
p1958
sg984
I01
sS'chiral_atom'
p1959
g35
sS'zmatrix_class'
p1960
g1
(celbow.chemistry.ZMatrixClass
ZMatrixClass
p1961
g3
(lp1962
g1
(celbow.chemistry.ZMatrixClass
ZMatrixLine
p1963
g3
(lp1964
g35
atRp1965
(dp1966
S'added_atom'
p1967
I00
sS'variable_set'
p1968
I01
sS'angle_index'
p1969
I4
sS'bond_index'
p1970
I2
sS'dihedral_index'
p1971
I6
sS'variable'
p1972
(lp1973
I00
aI00
aI00
asS'ring'
p1974
I01
sg1266
Nsbag1
(g1963
g3
(lp1975
g5
ag35
aF1.4774216237694011
atRp1976
(dp1977
g1967
I00
sg1968
I01
sg1969
I4
sg1970
I2
sg1971
I6
sg1972
(lp1978
I00
aI00
aI00
asg1974
I00
sg1266
F1.4774216237694011
sbag1
(g1963
g3
(lp1979
g51
ag35
aF1.5516263940720474
ag5
aF110.0754143787542
atRp1980
(dp1981
g1967
I00
sg1968
I01
sg1969
I4
sg1970
I2
sg1971
I6
sg1972
(lp1982
I00
aI00
aI00
asg1974
I01
sg1266
F1.5516263940720474
sbag1
(g1963
g3
(lp1983
g351
ag35
aF1.3265346788735941
ag5
aF110.0725444733331
ag51
aF-115.82500978804184
atRp1984
(dp1985
g1967
I00
sg1968
I01
sg1969
I4
sg1970
I2
sg1971
I6
sg1972
(lp1986
I00
aI00
aI00
asg1974
I01
sg1266
F1.3265346788735941
sbag1
(g1963
g3
(lp1987
g811
ag35
aF1.0833090000000001
ag5
aF110.65928845599389
ag51
aF122.09050846458679
atRp1988
(dp1989
g1967
I00
sg1968
I01
sg1969
I4
sg1970
I2
sg1971
I6
sg1972
(lp1990
I00
aI00
aI00
asg1974
I00
sg1266
F1.0833090000000001
sbatRp1991
(dp1992
g949
I01
sg950
g1949
sg1267
g1261
sg1268
g1391
sg984
I01
sS'atoms'
p1993
(lp1994
g35
ag5
ag51
ag351
ag811
asS'restraint_class'
p1995
g1096
sg1449
g1668
sS'use_parent_energise'
p1996
I01
sg1669
g1948
sbsg1995
g1096
sS'original_order'
p1997
(lp1998
g811
ag35
ag5
ag351
ag51
asbsI2
g1
(g1259
g3
(lp1999
g767
ag51
ag35
ag61
ag329
atRp2000
(dp2001
g1263
(lp2002
g767
ag35
ag61
ag329
asg1265
I139986369649136
sg1266
F-2.5110833783732081
sg1267
g896
sg1268
g1391
sg1392
(lp2003
I3
asg1394
(dp2004
S'n18:C15'
p2005
g1328
sS'C16:O17'
p2006
g1322
sS'C15:O14'
p2007
g1319
sS'O1:C2'
p2008
g1273
sS'n23:c21'
p2009
g1344
sS'O7:P6'
p2010
g1291
sS'C3:C4'
p2011
g1313
sS'n23:c24'
p2012
g1347
sS'O9:P10'
p2013
g1301
sS'c24:O25'
p2014
g1350
sS'P6:O5'
p2015
g1288
sS'P6:O7'
p2016
g1291
sS'P6:O8'
p2017
g1295
sS'P6:O9'
p2018
g1298
sS'H26:C2'
p2019
g1359
sS'C16:H29'
p2020
g1368
sS'C15:n18'
p2021
g1328
sS' C03: C02'
p2022
g1282
sS' C03: C04'
p2023
g1313
sS'n18:c24'
p2024
g1356
sS'c21:O22'
p2025
g1341
sS'c21:c20'
p2026
g1338
sS'C2:H26'
p2027
g1359
sS'O14:C15'
p2028
g1319
sS'C4:O5'
p2029
g1285
sS'C2:C16'
p2030
g1353
sS'c24:n18'
p2031
g1356
sS'C16:C15'
p2032
g1325
sS'P10:O12'
p2033
g1307
sS'P10:O13'
p2034
g1310
sS' C03: O14'
p2035
g1316
sS'c21:n23'
p2036
g1344
sS'C15:C16'
p2037
g1325
sS'O5:P6'
p2038
g1288
sS'C3:O14'
p2039
g1316
sS'P10:O9'
p2040
g1301
sS'O5:C4'
p2041
g1285
sS'n23:H30'
p2042
g1371
sS'c19:n18'
p2043
g1331
sS'O25:c24'
p2044
g1350
sS'C16:C2'
p2045
g1353
sS'c20:c19'
p2046
g1335
sS'H29:C16'
p2047
g1368
sS'C15:H28'
p2048
g1365
sS'C3:H27'
p2049
g1362
sS'c20:c21'
p2050
g1338
sS'O17:C16'
p2051
g1322
sS'n18:c19'
p2052
g1331
sS'O8:P6'
p2053
g1295
sS'H28:C15'
p2054
g1365
sS'H30:n23'
p2055
g1371
sS'O9:P6'
p2056
g1298
sS'c19:c20'
p2057
g1335
sS'c24:n23'
p2058
g1347
sS'P10:O11'
p2059
g1304
sS'C2:O1'
p2060
g1273
ssg1448
g767
sg1449
g1668
sg1669
g1948
sg949
I01
sg950
g1949
sg1956
Nsg1957
g1958
sg984
I01
sg1959
g51
sg1960
g1
(g1961
g3
(lp2061
g1
(g1963
g3
(lp2062
g51
atRp2063
(dp2064
g1970
I2
sg1971
I6
sg1968
I00
sg1972
(lp2065
I00
aI00
aI00
asg1974
I01
sg1969
I4
sg1266
Nsbag1
(g1963
g3
(lp2066
g35
ag51
aF1.527126
atRp2067
(dp2068
g1970
I2
sg1971
I6
sg1968
I00
sg1972
(lp2069
I00
aI00
aI00
asg1974
I01
sg1969
I4
sg1266
F1.527126
sbag1
(g1963
g3
(lp2070
g61
ag51
aF1.3721754855356016
ag35
aF110.29980496828929
ag5
aF109.91362132519392
atRp2071
(dp2072
g1967
I00
sg1968
I01
sg1969
I4
sg1970
I2
sg1971
I6
sg1972
(lp2073
I00
aI00
aI00
asg1974
I00
sg1266
F1.3721754855356016
sbag1
(g1963
g3
(lp2074
g329
ag51
aF1.398717
ag35
aF109.47122063449069
ag61
aF120
atRp2075
(dp2076
g1970
I2
sg1971
I6
sg1968
I00
sg1972
(lp2077
I00
aI00
aI00
asg1974
I01
sg1969
I4
sg1266
F1.398717
sbag1
(g1963
g3
(lp2078
g767
ag51
aF1.0833090000000001
ag35
aF110.03123162414151
ag61
aF-122.10499481440007
atRp2079
(dp2080
g1967
I00
sg1968
I01
sg1969
I4
sg1970
I2
sg1971
I6
sg1972
(lp2081
I00
aI00
aI00
asg1974
I00
sg1266
F1.0833090000000001
sbatRp2082
(dp2083
g949
I01
sg950
g1949
sg1267
g2000
sg1268
g1391
sg984
I01
sg1993
(lp2084
g51
ag35
ag61
ag329
ag767
asg1995
g1140
sg1449
g1668
sg1996
I01
sg1669
g1948
sbsg1995
g1140
sg1997
(lp2085
g767
ag51
ag35
ag61
ag329
asbsI4
g1
(g1259
g3
(lp2086
g697
ag341
ag329
ag351
ag465
atRp2087
(dp2088
g1263
(lp2089
g697
ag351
ag465
ag329
asg1265
I139986369650192
sg1266
F2.386784318687651
sg1267
g896
sg1268
g1391
sg1392
(lp2090
I15
asg1394
(dp2091
S'C16:O17'
p2092
g1322
sS'C4:O5'
p2093
g1285
sS'O1:C2'
p2094
g1273
sS'C3:C2'
p2095
g1282
sS'O7:P6'
p2096
g1291
sS'C3:C4'
p2097
g1313
sS'n23:c24'
p2098
g1347
sS'C2:C3'
p2099
g1282
sS' C15: N18'
p2100
g1328
sS'O9:P10'
p2101
g1301
sS'c24:O25'
p2102
g1350
sS'P6:O5'
p2103
g1288
sS'O22:c21'
p2104
g1341
sS'P6:O7'
p2105
g1291
sS'P6:O8'
p2106
g1295
sS'P6:O9'
p2107
g1298
sS'C4:C3'
p2108
g1313
sS'H26:C2'
p2109
g1359
sS'C16:H29'
p2110
g1368
sS'C15:n18'
p2111
g1328
sS'O25:c24'
p2112
g1350
sS'n18:c24'
p2113
g1356
sS'c21:O22'
p2114
g1341
sS'c21:c20'
p2115
g1338
sS'C2:H26'
p2116
g1359
sS'C2:C16'
p2117
g1353
sS'c24:n18'
p2118
g1356
sS'n23:c21'
p2119
g1344
sS' C15: O14'
p2120
g1319
sS'c21:n23'
p2121
g1344
sS'C15:C16'
p2122
g1325
sS'O5:P6'
p2123
g1288
sS'C3:O14'
p2124
g1316
sS'O5:C4'
p2125
g1285
sS'n23:H30'
p2126
g1371
sS'O14:C3'
p2127
g1316
sS'H27:C3'
p2128
g1362
sS'c19:c20'
p2129
g1335
sS'C16:C2'
p2130
g1353
sS'c20:c19'
p2131
g1335
sS'H29:C16'
p2132
g1368
sS'C15:H28'
p2133
g1365
sS' C15: C16'
p2134
g1325
sS'c20:c21'
p2135
g1338
sS'O17:C16'
p2136
g1322
sS'n18:c19'
p2137
g1331
sS'O8:P6'
p2138
g1295
sS'H30:n23'
p2139
g1371
sS'O9:P6'
p2140
g1298
sS'c24:n23'
p2141
g1347
sS'C3:H27'
p2142
g1362
sS'C2:O1'
p2143
g1273
sS'c19:n18'
p2144
g1331
ssg1448
g697
sg1449
g1668
sg1669
g1948
sg949
I01
sg950
g1949
sg1956
Nsg1957
g1958
sg984
I01
sg1959
g341
sg1960
g1
(g1961
g3
(lp2145
g1
(g1963
g3
(lp2146
g341
atRp2147
(dp2148
g1970
I2
sg1971
I6
sg1968
I00
sg1972
(lp2149
I00
aI00
aI00
asg1974
I01
sg1969
I4
sg1266
Nsbag1
(g1963
g3
(lp2150
g329
ag341
aF1.398717
atRp2151
(dp2152
g1970
I2
sg1971
I6
sg1968
I00
sg1972
(lp2153
I00
aI00
aI00
asg1974
I01
sg1969
I4
sg1266
F1.398717
sbag1
(g1963
g3
(lp2154
g351
ag341
aF1.527126
ag329
aF109.47122063449069
atRp2155
(dp2156
g1970
I2
sg1971
I6
sg1968
I00
sg1972
(lp2157
I00
aI00
aI00
asg1974
I01
sg1969
I4
sg1266
F1.527126
sbag1
(g1963
g3
(lp2158
g465
ag341
aF1.4296631859425026
ag329
aF110.15903953346916
ag351
aF-119.03467916893374
atRp2159
(dp2160
g1967
I00
sg1968
I01
sg1969
I4
sg1970
I2
sg1971
I6
sg1972
(lp2161
I00
aI00
aI00
asg1974
I01
sg1266
F1.4296631859425026
sbag1
(g1963
g3
(lp2162
g697
ag341
aF1.0833090000000001
ag329
aF110.06826008705065
ag351
aF118.87279089611505
atRp2163
(dp2164
g1967
I00
sg1968
I01
sg1969
I4
sg1970
I2
sg1971
I6
sg1972
(lp2165
I00
aI00
aI00
asg1974
I00
sg1266
F1.0833090000000001
sbatRp2166
(dp2167
g949
I01
sg950
g1949
sg1267
g2087
sg1268
g1391
sg984
I01
sg1993
(lp2168
g341
ag329
ag351
ag465
ag697
asg1995
g1177
sg1449
g1668
sg1996
I01
sg1669
g1948
sbsg1995
g1177
sg1997
(lp2169
g697
ag341
ag329
ag351
ag465
asbsI5
g1
(g1259
g3
(lp2170
g410
ag351
ag341
ag35
ag361
atRp2171
(dp2172
g1263
(lp2173
g410
ag35
ag341
ag361
asg1265
I139986369650456
sg1266
F-2.5110833783732081
sg1267
g896
sg1268
g1391
sg1392
(lp2174
I16
asg1394
(dp2175
S'n18:C15'
p2176
g1328
sS'C16:O17'
p2177
g1322
sS'C15:O14'
p2178
g1319
sS'C3:C2'
p2179
g1282
sS'C3:C4'
p2180
g1313
sS'n23:c24'
p2181
g1347
sS'C2:C3'
p2182
g1282
sS'H30:n23'
p2183
g1371
sS'c24:O25'
p2184
g1350
sS'P6:O5'
p2185
g1288
sS'O22:c21'
p2186
g1341
sS'P6:O7'
p2187
g1291
sS'P6:O8'
p2188
g1295
sS'P6:O9'
p2189
g1298
sS'C4:C3'
p2190
g1313
sS'H26:C2'
p2191
g1359
sS'C16:H29'
p2192
g1368
sS'C15:n18'
p2193
g1328
sS'O25:c24'
p2194
g1350
sS'n18:c24'
p2195
g1356
sS'c21:O22'
p2196
g1341
sS'c21:c20'
p2197
g1338
sS'C2:H26'
p2198
g1359
sS'O14:C15'
p2199
g1319
sS'C4:O5'
p2200
g1285
sS' C16: C15'
p2201
g1325
sS'c24:n18'
p2202
g1356
sS'n23:c21'
p2203
g1344
sS'c21:n23'
p2204
g1344
sS'O5:P6'
p2205
g1288
sS'C3:O14'
p2206
g1316
sS'O5:C4'
p2207
g1285
sS'n23:H30'
p2208
g1371
sS'O14:C3'
p2209
g1316
sS'c19:n18'
p2210
g1331
sS'c19:c20'
p2211
g1335
sS'C16:C2'
p2212
g1353
sS'c20:c19'
p2213
g1335
sS'C15:H28'
p2214
g1365
sS'c20:c21'
p2215
g1338
sS' C16: O17'
p2216
g1322
sS'O1:C2'
p2217
g1273
sS'n18:c19'
p2218
g1331
sS' C16: C02'
p2219
g1353
sS'H28:C15'
p2220
g1365
sS'c24:n23'
p2221
g1347
sS'C3:H27'
p2222
g1362
sS'C2:O1'
p2223
g1273
sS'H27:C3'
p2224
g1362
ssg1448
g410
sg1449
g1668
sg1669
g1948
sg949
I01
sg950
g1949
sg1956
Nsg1957
g1958
sg984
I01
sg1959
g351
sg1960
g1
(g1961
g3
(lp2225
g1
(g1963
g3
(lp2226
g351
atRp2227
(dp2228
g1970
I2
sg1971
I6
sg1968
I00
sg1972
(lp2229
I00
aI00
aI00
asg1974
I01
sg1969
I4
sg1266
Nsbag1
(g1963
g3
(lp2230
g35
ag351
aF1.527126
atRp2231
(dp2232
g1970
I2
sg1971
I6
sg1968
I00
sg1972
(lp2233
I00
aI00
aI00
asg1974
I01
sg1969
I4
sg1266
F1.527126
sbag1
(g1963
g3
(lp2234
g341
ag351
aF1.527126
ag35
aF109.47122063449069
atRp2235
(dp2236
g1970
I2
sg1971
I6
sg1968
I00
sg1972
(lp2237
I00
aI00
aI00
asg1974
I01
sg1969
I4
sg1266
F1.527126
sbag1
(g1963
g3
(lp2238
g361
ag351
aF1.4264204967094591
ag35
aF110.10195175195379
ag341
aF-118.88677940744259
atRp2239
(dp2240
g1967
I00
sg1968
I01
sg1969
I4
sg1970
I2
sg1971
I6
sg1972
(lp2241
I00
aI00
aI00
asg1974
I00
sg1266
F1.4264204967094591
sbag1
(g1963
g3
(lp2242
g410
ag351
aF1.0833090000000001
ag35
aF110.13158432391717
ag341
aF118.94889096096311
atRp2243
(dp2244
g1967
I00
sg1968
I01
sg1969
I4
sg1970
I2
sg1971
I6
sg1972
(lp2245
I00
aI00
aI00
asg1974
I00
sg1266
F1.0833090000000001
sbatRp2246
(dp2247
g949
I01
sg950
g1949
sg1267
g2171
sg1268
g1391
sg984
I01
sg1993
(lp2248
g351
ag35
ag341
ag361
ag410
asg1995
g1214
sg1449
g1668
sg1996
I01
sg1669
g1948
sbsg1995
g1214
sg1997
(lp2249
g410
ag351
ag341
ag35
ag361
asbssS'ring_angles'
p2250
(lp2251
sS'invisible_plane'
p2252
g1
(celbow.chemistry.PeptideClass
PeptideClass
p2253
g3
(ltRp2254
(dp2255
g1995
g1
(g1068
g1069
(dtRp2256
(dp2257
g1106
Nsg1098
(dp2258
sg1113
I00
sg1100
(lp2259
sg1104
(dp2260
sbsS'dihedral_const_var_type'
p2261
(lp2262
sbsS'rotation_step'
p2263
I10
sg950
g1949
sS'CIF_name'
p2264
S'Unknown'
p2265
sS'EnergyTerms'
p2266
Nsg1957
g1958
sS'RotationSubUnits'
p2267
(dp2268
(I5
I4
tp2269
(lp2270
(ielbow.utilities.sets
Set
p2271
(dp2272
S'dict'
p2273
(dp2274
g247
I1
sg209
I1
sg228
I1
sg105
I1
sg157
I1
sg175
I1
sg123
I1
sg192
I1
ssba(ielbow.utilities.sets
Set
p2275
(dp2276
g2273
(dp2277
g5
I1
sg329
I1
sg476
I1
sg623
I1
sg341
I1
sg361
I1
sg650
I1
sg531
I1
sg51
I1
sg500
I1
sg271
I1
sg541
I1
sg811
I1
sg862
I1
sg488
I1
sg767
I1
sg351
I1
sg373
I1
sg465
I1
sg697
I1
sg289
I1
sg512
I1
sg410
I1
sg35
I1
sg551
I1
sg584
I1
ssbas(I18
I15
tp2278
(lp2279
(ielbow.utilities.sets
Set
p2280
(dp2281
g2273
(dp2282
g488
I1
sg500
I1
sg623
I1
sg476
I1
sg650
I1
sg531
I1
sg541
I1
sg551
I1
sg512
I1
sg584
I1
ssba(ielbow.utilities.sets
Set
p2283
(dp2284
g2273
(dp2285
g5
I1
sg329
I1
sg862
I1
sg228
I1
sg361
I1
sg271
I1
sg123
I1
sg51
I1
sg105
I1
sg811
I1
sg73
I1
sg175
I1
sg61
I1
sg767
I1
sg247
I1
sg351
I1
sg373
I1
sg697
I1
sg289
I1
sg209
I1
sg410
I1
sg157
I1
sg35
I1
sg192
I1
ssbas(I10
I9
tp2286
(lp2287
(ielbow.utilities.sets
Set
p2288
(dp2289
g2273
(dp2290
g228
I1
sg247
I1
sg209
I1
ssba(ielbow.utilities.sets
Set
p2291
(dp2292
g2273
(dp2293
g5
I1
sg329
I1
sg476
I1
sg623
I1
sg341
I1
sg361
I1
sg105
I1
sg650
I1
sg531
I1
sg123
I1
sg51
I1
sg500
I1
sg271
I1
sg541
I1
sg811
I1
sg862
I1
sg73
I1
sg488
I1
sg61
I1
sg767
I1
sg351
I1
sg373
I1
sg465
I1
sg697
I1
sg289
I1
sg512
I1
sg410
I1
sg157
I1
sg35
I1
sg551
I1
sg584
I1
ssbas(I4
I3
tp2294
(lp2295
(ielbow.utilities.sets
Set
p2296
(dp2297
g2273
(dp2298
g192
I1
sg289
I1
sg247
I1
sg209
I1
sg228
I1
sg105
I1
sg271
I1
sg157
I1
sg175
I1
sg123
I1
sg73
I1
ssba(ielbow.utilities.sets
Set
p2299
(dp2300
g2273
(dp2301
g5
I1
sg329
I1
sg476
I1
sg623
I1
sg341
I1
sg361
I1
sg650
I1
sg531
I1
sg500
I1
sg541
I1
sg811
I1
sg862
I1
sg488
I1
sg767
I1
sg351
I1
sg373
I1
sg465
I1
sg697
I1
sg512
I1
sg410
I1
sg35
I1
sg551
I1
sg584
I1
ssbas(I9
I6
tp2302
(lp2303
(ielbow.utilities.sets
Set
p2304
(dp2305
g2273
(dp2306
g228
I1
sg247
I1
sg209
I1
sg192
I1
ssba(ielbow.utilities.sets
Set
p2307
(dp2308
g2273
(dp2309
g5
I1
sg329
I1
sg476
I1
sg623
I1
sg341
I1
sg361
I1
sg650
I1
sg531
I1
sg123
I1
sg51
I1
sg500
I1
sg271
I1
sg541
I1
sg811
I1
sg862
I1
sg73
I1
sg488
I1
sg61
I1
sg767
I1
sg351
I1
sg373
I1
sg465
I1
sg697
I1
sg289
I1
sg512
I1
sg410
I1
sg157
I1
sg35
I1
sg551
I1
sg584
I1
ssbas(I6
I5
tp2310
(lp2311
(ielbow.utilities.sets
Set
p2312
(dp2313
g2273
(dp2314
g247
I1
sg209
I1
sg228
I1
sg157
I1
sg175
I1
sg123
I1
sg192
I1
ssba(ielbow.utilities.sets
Set
p2315
(dp2316
g2273
(dp2317
g5
I1
sg329
I1
sg476
I1
sg623
I1
sg341
I1
sg361
I1
sg650
I1
sg531
I1
sg51
I1
sg500
I1
sg271
I1
sg541
I1
sg811
I1
sg862
I1
sg488
I1
sg61
I1
sg767
I1
sg351
I1
sg373
I1
sg465
I1
sg697
I1
sg289
I1
sg512
I1
sg410
I1
sg35
I1
sg551
I1
sg584
I1
ssbassg82
I01
sS'ring_restraint'
p2318
g1
(celbow.chemistry.RingTopologyMixins
empty_dict
p2319
g1069
(dp2320
I1
g1
(g1068
g1069
(dp2321
(I15
I14
I3
tp2322
(lp2323
F106
aF10
asI2
(F1.8988926179902879
F-0.62790865778219707
F1.1830853725842783
tp2324
sI3
(F0.60129823503904967
F-1.4496944525498245
F0.96750301323751753
tp2325
s(I15
I14
I3
I2
tp2326
(lp2327
F25
aF1
aI10
a(F-55
tp2328
as(I3
I2
tp2329
(lp2330
F1.527126
aF200
asI14
(F1.076564717800816
F-2.8779898857729784
F0.48569849780496999
tp2331
sI15
(F2.34666298386801
F-2.7453934716672332
F0.2012192541211176
tp2332
sI16
(F2.8891112639204231
F-1.511817759478419
F1.1417559883742019
tp2333
s(I3
I2
I16
I15
tp2334
(lp2335
F25
aF1
aI10
ag2328
as(I3
I2
I16
tp2336
(lp2337
F106
aF10
as(I16
I15
I14
I3
tp2338
(lp2339
F25
aF1
aI10
ag2328
as(I15
I14
tp2340
(lp2341
F1.398717
aF200
as(I2
I16
I15
tp2342
(lp2343
F106
aF10
as(I14
I3
I2
tp2344
(lp2345
F106
aF10
as(I16
I15
I14
tp2346
(lp2347
F106
aF10
as(I2
I16
I15
I14
tp2348
(lp2349
F25
aF1
aI10
ag2328
as(I2
I16
tp2350
(lp2351
F1.527126
aF200
as(I16
I15
tp2352
(lp2353
F1.527126
aF200
as(I14
I3
tp2354
(lp2355
F1.398717
aF200
as(I14
I3
I2
I16
tp2356
(lp2357
F25
aF1
aI10
ag2328
astRp2358
(dp2359
g1106
Nsg1098
(dp2360
I16
I4
sI2
I0
sI3
I1
sI14
I2
sI15
I3
ssg1113
I00
sg1100
(lp2361
sg1104
(dp2362
sbsI2
g1
(g1068
g1069
(dp2363
(I18
I24
I23
I21
tp2364
(lp2365
F0
aF10
aI0
as(I18
I24
tp2366
(lp2367
F1.321345
aF200
as(I20
I19
I18
I24
tp2368
(lp2369
F0
aF10
aI0
as(I23
I21
I20
tp2370
(lp2371
F119.90097799014607
aF2
as(I19
I18
I24
I23
tp2372
(lp2373
F0
aF10
aI0
as(I21
I20
tp2374
(lp2375
F1.385372
aF200
asI18
(F2.5193498892092392
F-2.4224275414153551
F-1.19323843593017
tp2376
sI19
(F3.6307537513949146
F-1.8025252873334894
F-1.5746517133540834
tp2377
sI20
(F3.865498868954313
F-1.6373305900205029
F-2.9342398846191418
tp2378
sI21
(F2.9150492688510403
F-2.1340684468556055
F-3.8389481433593753
tp2379
s(I20
I19
tp2380
(lp2381
F1.385372
aF200
asI23
(F1.8297864683485321
F-2.7415036438315368
F-3.3910058733278521
tp2382
sI24
(F1.6307714209645425
F-2.8857792862762928
F-2.0825297210707485
tp2383
s(I24
I23
I21
I20
tp2384
(lp2385
F0
aF10
aI0
as(I18
I24
I23
tp2386
(lp2387
F121.12229726750903
aF2
as(I19
I18
tp2388
(lp2389
F1.321345
aF200
as(I19
I18
I24
tp2390
(lp2391
F121.83553809374231
aF2
as(I21
I20
I19
tp2392
(lp2393
F118.27403714578351
aF2
as(I23
I21
tp2394
(lp2395
F1.321345
aF200
as(I24
I23
I21
tp2396
(lp2397
F120.37858244966462
aF2
as(I24
I23
tp2398
(lp2399
F1.321345
aF200
as(I23
I21
I20
I19
tp2400
(lp2401
F0
aF10
aI0
as(I21
I20
I19
I18
tp2402
(lp2403
F0
aF10
aI0
as(I20
I19
I18
tp2404
(lp2405
F118.48856705315448
aF2
astRp2406
(dp2407
g1106
Nsg1098
(dp2408
I18
I0
sI19
I1
sI20
I2
sI21
I3
sI23
I4
sI24
I5
ssg1113
I00
sg1100
(lp2409
sg1104
(dp2410
sbstRp2411
sS'loop_class'
p2412
(lp2413
sS'CIF_id'
p2414
S'UDP'
p2415
sg84
I-3
sS'residue_name'
p2416
g1250
sS'temp_pdb'
p2417
S'/tmp/tmpp5Yeyn'
p2418
sS'ring_dihedrals'
p2419
(lp2420
g1
(g1671
g3
(lp2421
g341
ag329
ag51
ag35
atRp2422
(dp2423
g1275
(lp2424
S'-'
aS'-'
aS'-'
asg1277
I00
sg1266
F0
sbag1
(g1671
g3
(lp2425
g351
ag341
ag329
ag51
atRp2426
(dp2427
g1275
(lp2428
S'-'
aS'-'
aS'-'
asg1277
I00
sg1266
F0
sbag1
(g1671
g3
(lp2429
g35
ag351
ag341
ag329
atRp2430
(dp2431
g1275
(lp2432
S'-'
aS'-'
aS'-'
asg1277
I00
sg1266
F0
sbag1
(g1671
g3
(lp2433
g51
ag35
ag351
ag341
atRp2434
(dp2435
g1275
(lp2436
S'-'
aS'-'
aS'-'
asg1277
I00
sg1266
F0
sbag1
(g1671
g3
(lp2437
g329
ag51
ag35
ag351
atRp2438
(dp2439
g1275
(lp2440
S'-'
aS'-'
aS'-'
asg1277
I00
sg1266
F0
sbag1
(g1671
g3
(lp2441
g500
ag488
ag476
ag465
atRp2442
(dp2443
g1275
(lp2444
S':'
aS':'
aS':'
asg1277
I00
sg1266
F0
sbag1
(g1671
g3
(lp2445
g531
ag500
ag488
ag476
atRp2446
(dp2447
g1275
(lp2448
S':'
aS':'
aS':'
asg1277
I00
sg1266
F0
sbag1
(g1671
g3
(lp2449
g541
ag531
ag500
ag488
atRp2450
(dp2451
g1275
(lp2452
S':'
aS':'
aS':'
asg1277
I00
sg1266
F0
sbag1
(g1671
g3
(lp2453
g465
ag541
ag531
ag500
atRp2454
(dp2455
g1275
(lp2456
S':'
aS':'
aS':'
asg1277
I00
sg1266
F0
sbag1
(g1671
g3
(lp2457
g476
ag465
ag541
ag531
atRp2458
(dp2459
g1275
(lp2460
S':'
aS':'
aS':'
asg1277
I00
sg1266
F0
sbag1
(g1671
g3
(lp2461
g488
ag476
ag465
ag541
atRp2462
(dp2463
g1275
(lp2464
S':'
aS':'
aS':'
asg1277
I00
sg1266
F0
sbasS'maximum_bond_length'
p2465
F3
sS'peptide_class'
p2466
g1
(g2253
g3
(ltRp2467
(dp2468
g1995
g1
(g1068
g1069
(dtRp2469
(dp2470
g1106
Nsg1098
(dp2471
sg1113
I00
sg1100
(lp2472
sg1104
(dp2473
sbsg2261
(lp2474
sbsg987
(dp2475
g966
(dp2476
g954
(dp2477
I3
F60
sI4
F90
sI5
F106
sI6
F113
ssg991
(dp2478
I5
(lp2479
F25
aI10
asI6
(lp2480
F55
aI1
assssS'molecule_number'
p2481
I0
sS'ring_zmatrix'
p2482
(dp2483
I1
g1
(g1961
g3
(lp2484
g1
(g1963
g3
(lp2485
g35
atRp2486
(dp2487
g1970
I2
sg1971
I6
sg1968
I00
sg1972
(lp2488
I00
aI00
aI00
asg1974
I01
sg1969
I4
sg1266
Nsbag1
(g1963
g3
(lp2489
g51
ag35
aF1.6000000000000001
atRp2490
(dp2491
g1970
I2
sg1971
I6
sg1968
I00
sg1972
(lp2492
I00
aI00
aI00
asg1974
I01
sg1969
I4
sg1266
F1.6000000000000001
sbag1
(g1963
g3
(lp2493
g329
ag51
aF1.5951306615161671
ag35
aF105.65047767202662
ag5
aF-130.92000096215239
atRp2494
(dp2495
g1967
I00
sg1968
I01
sg1969
I4
sg1970
I2
sg1971
I6
sg1972
(lp2496
I00
aI00
aI00
asg1974
I01
sg1266
F1.5951306615161671
sbag1
(g1963
g3
(lp2497
g341
ag329
aF1.2966476245382208
ag51
aF105.44484126639601
ag35
aI360
atRp2498
(dp2499
g1967
I00
sg1968
I01
sg1969
I4
sg1970
I2
sg1971
I6
sg1972
(lp2500
I00
aI00
aI00
asg1974
I01
sg1266
F1.2966476245382208
sbag1
(g1963
g3
(lp2501
g351
ag35
aF1.6000000000000001
ag51
aF108
ag329
aF0
atRp2502
(dp2503
g1970
I2
sg1971
I6
sg1968
I00
sg1972
(lp2504
I00
aI00
aI00
asg1974
I01
sg1969
I4
sg1266
F1.6000000000000001
sbatRp2505
(dp2506
g949
I01
sg950
g1949
sg1267
g896
sg1268
g1391
sg984
I01
sg1993
(lp2507
g35
ag51
ag329
ag341
ag351
asg1995
g1
(g1068
g1069
(dp2508
(I15
I14
I3
tp2509
(lp2510
F106
aF10
asI2
(F0.69783280764867084
F-0.64220402246304931
F0.41520387784962154
tp2511
sI3
(F-0.19873480483445871
F-0.088577896169182671
F1.321423371379391
tp2512
s(I15
I14
I3
I2
tp2513
(lp2514
F25
aF1
aI10
ag2328
as(I3
I2
tp2515
(lp2516
F1.527126
aF200
asI14
(F-1.4777142850684069
F-0.90866034573635979
F1.1877411227989709
tp2517
sI15
(F-1.3372000465306482
F-1.5516089838919402
F0.21256726422883301
tp2518
sI16
(F0.17529578096415688
F-1.7374776448748541
F0.049967249753639385
tp2519
s(I3
I2
I16
I15
tp2520
(lp2521
F25
aF1
aI10
ag2328
as(I3
I2
I16
tp2522
(lp2523
F106
aF10
as(I16
I15
I14
I3
tp2524
(lp2525
F25
aF1
aI10
ag2328
as(I15
I14
tp2526
(lp2527
F1.398717
aF200
as(I2
I16
I15
tp2528
(lp2529
F106
aF10
as(I14
I3
I2
tp2530
(lp2531
F106
aF10
as(I16
I15
I14
tp2532
(lp2533
F106
aF10
as(I2
I16
I15
I14
tp2534
(lp2535
F25
aF1
aI10
ag2328
as(I2
I16
tp2536
(lp2537
F1.527126
aF200
as(I16
I15
tp2538
(lp2539
F1.527126
aF200
as(I14
I3
tp2540
(lp2541
F1.398717
aF200
as(I14
I3
I2
I16
tp2542
(lp2543
F25
aF1
aI10
ag2328
astRp2544
(dp2545
g1106
Nsg1098
(dp2546
I16
I4
sI2
I0
sI3
I1
sI14
I2
sI15
I3
ssg1113
I00
sg1100
(lp2547
sg1104
(dp2548
sbsg1449
g1668
sg1996
I01
sg1669
g1948
sbsI2
g1
(g1961
g3
(lp2549
g1
(g1963
g3
(lp2550
g465
atRp2551
(dp2552
g1970
I2
sg1971
I6
sg1968
I00
sg1972
(lp2553
I00
aI00
aI00
asg1974
I01
sg1969
I4
sg1266
Nsbag1
(g1963
g3
(lp2554
g476
ag465
aF1.3232639584061168
ag341
aF118.91095750219625
ag351
aF28.386087550521623
atRp2555
(dp2556
g1967
I01
sg1968
I01
sg1969
I4
sg1970
I2
sg1971
I6
sg1972
(lp2557
I00
aI00
aI00
asg1974
I01
sg1266
F1.3232639584061168
sbag1
(g1963
g3
(lp2558
g488
ag476
aF1.3881664878694948
ag465
aF118.4934179996138
ag341
aI180
atRp2559
(dp2560
g1967
I01
sg1968
I01
sg1969
I4
sg1970
I2
sg1971
I6
sg1972
(lp2561
I00
aI00
aI00
asg1974
I01
sg1266
F1.3881664878694948
sbag1
(g1963
g3
(lp2562
g500
ag488
aF1.3860427828460031
ag476
aF118.29392825339147
ag465
aI360
atRp2563
(dp2564
g1967
I01
sg1968
I01
sg1969
I4
sg1970
I2
sg1971
I6
sg1972
(lp2565
I00
aI00
aI00
asg1974
I01
sg1266
F1.3860427828460031
sbag1
(g1963
g3
(lp2566
g531
ag500
aF1.3218408085504241
ag488
aF119.91600001837882
ag476
aI0
atRp2567
(dp2568
g1967
I01
sg1968
I01
sg1969
I4
sg1970
I2
sg1971
I6
sg1972
(lp2569
I00
aI00
aI00
asg1974
I01
sg1266
F1.3218408085504241
sbag1
(g1963
g3
(lp2570
g541
ag465
aF1.3226461301643511
ag476
aF121.78060396486708
ag488
aI0
atRp2571
(dp2572
g1967
I01
sg1968
I01
sg1969
I4
sg1970
I2
sg1971
I6
sg1972
(lp2573
I00
aI00
aI00
asg1974
I01
sg1266
F1.3226461301643511
sbatRp2574
(dp2575
g949
I01
sg950
g1949
sg1267
g896
sg1268
g1391
sg984
I01
sg1993
(lp2576
g465
ag476
ag488
ag500
ag531
ag541
asg1995
g1
(g1068
g1069
(dp2577
(I18
I24
I23
I21
tp2578
(lp2579
F0
aF10
aI0
as(I18
I24
tp2580
(lp2581
F1.321345
aF200
as(I20
I19
I18
I24
tp2582
(lp2583
F0
aF10
aI0
as(I23
I21
I20
tp2584
(lp2585
F119.90097799014607
aF2
as(I19
I18
I24
I23
tp2586
(lp2587
F0
aF10
aI0
as(I21
I20
tp2588
(lp2589
F1.385372
aF200
asI18
(F-1.8689079003185007
F-0.88305349264396527
F-0.89565579617519997
tp2590
sI19
(F-1.4321375428551333
F-1.1695771683757927
F-2.111532565864048
tp2591
sI20
(F-2.0123118170008496
F-0.58620179258736849
F-3.1995291272482955
tp2592
sI21
(F-3.0409506353184765
F0.29099834310303085
F-3.0335447643247573
tp2593
s(I20
I19
tp2594
(lp2595
F1.385372
aF200
asI23
(F-3.4768740410353454
F0.57678745039097057
F-1.8169944885510012
tp2596
sI24
(F-2.8968183560776186
F-0.0064377823197041967
F-0.73096939350335854
tp2597
s(I24
I23
I21
I20
tp2598
(lp2599
F0
aF10
aI0
as(I18
I24
I23
tp2600
(lp2601
F121.12229726750903
aF2
as(I19
I18
tp2602
(lp2603
F1.321345
aF200
as(I19
I18
I24
tp2604
(lp2605
F121.83553809374231
aF2
as(I21
I20
I19
tp2606
(lp2607
F118.27403714578351
aF2
as(I23
I21
tp2608
(lp2609
F1.321345
aF200
as(I24
I23
I21
tp2610
(lp2611
F120.37858244966462
aF2
as(I24
I23
tp2612
(lp2613
F1.321345
aF200
as(I23
I21
I20
I19
tp2614
(lp2615
F0
aF10
aI0
as(I21
I20
I19
I18
tp2616
(lp2617
F0
aF10
aI0
as(I20
I19
I18
tp2618
(lp2619
F118.48856705315448
aF2
astRp2620
(dp2621
g1106
Nsg1098
(dp2622
I18
I0
sI19
I1
sI20
I2
sI21
I3
sI23
I4
sI24
I5
ssg1113
I00
sg1100
(lp2623
sg1104
(dp2624
sbsg1449
g1668
sg1996
I01
sg1669
g1948
sbssS'chiral_zmatrix'
p2625
(dp2626
I1
g1991
sI2
g2082
sI4
g2166
sI5
g2246
ssS'trace'
p2627
(dp2628
I0
(dp2629
S'H'
I1
sssS'filename_preamble'
p2630
S'UDP'
p2631
sS'start_time'
p2632
F1580921096.001657
sS'old_ring_dihedrals'
p2633
g2420
sS'UseCIFWeights'
p2634
I01
sg976
(lp2635
sS'ring_class'
p2636
(lp2637
g1
(g904
g3
(lp2638
(lp2639
g35
ag51
ag329
ag341
ag351
aatRp2640
(dp2641
g949
I01
sg950
g1949
sg984
I01
sS'random_non_aromatic_angle'
p2642
I00
sg974
(lp2643
sg982
(lp2644
F0
aF0
aF0
aF0
aF0
aF0
asg978
(lp2645
sg1995
g2358
sg980
(dp2646
sg976
(lp2647
sg973
I00
sg985
I01
sg986
I7
sg987
g2475
sS'ideal_ring_angles'
p2648
(lp2649
g1
(celbow.chemistry.RingClass
RingCircle
p2650
g3
(lp2651
(ielbow.chemistry.RingClass
empty
p2652
(dp2653
g141
I2
sg457
I0
sg11
(ielbow.chemistry.xyzClass
xyzClass
p2654
(dp2655
g14
I0
sg15
F57.295779513082323
sS'y'
F-1.1011055363769386
sS'x'
F0.80000000000000004
sg16
g911
sS'z'
F0
sbsg47
I00
sg150
S'C'
sg16
(ielbow.chemistry.xyzClass
xyzClass
p2656
(dp2657
g14
I0
sg15
F57.295779513082323
sS'y'
F1.3322676295501878e-15
sS'x'
F-8.2672728388744066e-05
sg16
(F-8.2672728388744066e-05
F1.3322676295501878e-15
I0
tp2658
sS'z'
I0
sbsg443
I01
sba(ielbow.chemistry.RingClass
empty
p2659
(dp2660
g141
I3
sg457
I1
sg11
(ielbow.chemistry.xyzClass
xyzClass
p2661
(dp2662
g14
I0
sg15
F57.295779513082323
sS'y'
F0.42058488969530705
sS'x'
F1.2944271909999159
sg16
g919
sS'z'
F0
sbsg47
I00
sg150
S'C'
sg16
(ielbow.chemistry.xyzClass
xyzClass
p2663
(dp2664
g14
I0
sg15
F57.295779513082323
sS'y'
I0
sS'x'
F1.527126
sg16
(F1.527126
I0
I0
tp2665
sS'z'
I0
sbsg443
I01
sba(ielbow.chemistry.RingClass
empty
p2666
(dp2667
g141
I14
sg457
I0
sg11
(ielbow.chemistry.xyzClass
xyzClass
p2668
(dp2669
g14
I0
sg15
F57.295779513082323
sS'y'
F1.3610412933632641
sS'x'
F-2.2204460492503131e-16
sg16
g927
sS'z'
F0
sbsg47
I00
sg150
S'O'
sg16
(ielbow.chemistry.xyzClass
xyzClass
p2670
(dp2671
g14
I0
sg15
F57.295779513082323
sS'y'
F1.318895863030709
sS'x'
F1.9928758776913218
sg16
(F1.9928758776913218
F1.318895863030709
I0
tp2672
sS'z'
I0
sbsg443
I01
sba(ielbow.chemistry.RingClass
empty
p2673
(dp2674
g141
I15
sg457
I1
sg11
(ielbow.chemistry.xyzClass
xyzClass
p2675
(dp2676
g14
I0
sg15
F57.295779513082323
sS'y'
F0.42058488969530683
sS'x'
F-1.2944271909999161
sg16
g935
sS'z'
F0
sbsg47
I00
sg150
S'C'
sg16
(ielbow.chemistry.xyzClass
xyzClass
p2677
(dp2678
g14
I0
sg15
F57.295779513082323
sS'y'
F2.2385952353841261
sS'x'
F0.93904367540210987
sg16
(F0.93904367540210987
F2.2385952353841261
I0
tp2679
sS'z'
I0
sbsg443
I01
sba(ielbow.chemistry.RingClass
empty
p2680
(dp2681
g141
I16
sg457
I0
sg11
(ielbow.chemistry.xyzClass
xyzClass
p2682
(dp2683
g14
I0
sg15
F57.295779513082323
sS'y'
F-1.1011055363769389
sS'x'
F-0.80000000000000004
sg16
g943
sS'z'
F0
sbsg47
I00
sg150
S'C'
sg16
(ielbow.chemistry.xyzClass
xyzClass
p2684
(dp2685
g14
I0
sg15
F57.295779513082323
sS'y'
F1.4777993436785291
sS'x'
F-0.38507997102970482
sg16
(F-0.38507997102970482
F1.4777993436785291
I0
tp2686
sS'z'
I0
sbsg443
I01
sbatRp2687
(dp2688
g1268
(lp2689
F1.527126
aF1.398717
aF1.398717
aF1.527126
aF1.527126
asbasbag1
(g904
g3
(lp2690
(lp2691
g465
ag476
ag488
ag500
ag531
ag541
aatRp2692
(dp2693
g949
I01
sg950
g1949
sg973
I00
sg974
(lp2694
sg982
(lp2695
F0
aF0
aF0
aF0
aF0
aF0
asg978
(lp2696
sg1995
g2406
sg980
(dp2697
sg976
(lp2698
sg984
I01
sg985
I01
sg986
I7
sg987
g2475
sg2648
(lp2699
g1
(g2650
g3
(lp2700
(ielbow.chemistry.RingClass
empty
p2701
(dp2702
g141
I18
sg457
I0
sg11
(ielbow.chemistry.xyzClass
xyzClass
p2703
(dp2704
g14
I0
sg15
F57.295779513082323
sS'y'
F-1.3856406460551023
sS'x'
F0.80000000000000082
sg16
g1001
sS'z'
F0
sbsg47
I00
sg150
S'n'
sg16
(ielbow.chemistry.xyzClass
xyzClass
p2705
(dp2706
g14
I1
sg15
F57.295779513082323
sS'y'
F1.1102230246251565e-15
sS'x'
F-5.3628094268898252e-05
sg16
(F-5.3628094268898252e-05
F1.1102230246251565e-15
I0
tp2707
sS'z'
I0
sbsg443
I01
sba(ielbow.chemistry.RingClass
empty
p2708
(dp2709
g141
I19
sg457
I1
sg11
(ielbow.chemistry.xyzClass
xyzClass
p2710
(dp2711
g14
I0
sg15
F57.295779513082323
sS'y'
F4.4408920985006262e-16
sS'x'
F1.6000000000000005
sg16
g1009
sS'z'
F0
sbsg47
I00
sg150
S'c'
sg16
(ielbow.chemistry.xyzClass
xyzClass
p2712
(dp2713
g14
I1
sg15
F57.295779513082323
sS'y'
I0
sS'x'
F1.321345
sg16
(F1.321345
I0
I0
tp2714
sS'z'
I0
sbsg443
I01
sba(ielbow.chemistry.RingClass
empty
p2715
(dp2716
g141
I20
sg457
I0
sg11
(ielbow.chemistry.xyzClass
xyzClass
p2717
(dp2718
g14
I0
sg15
F57.295779513082323
sS'y'
F1.3856406460551023
sS'x'
F0.79999999999999971
sg16
g1017
sS'z'
F0
sbsg47
I00
sg150
S'c'
sg16
(ielbow.chemistry.xyzClass
xyzClass
p2719
(dp2720
g14
I1
sg15
F57.295779513082323
sS'y'
F1.2176205028570568
sS'x'
F1.982144432056451
sg16
(F1.982144432056451
F1.2176205028570568
I0
tp2721
sS'z'
I0
sbsg443
I01
sba(ielbow.chemistry.RingClass
empty
p2722
(dp2723
g141
I21
sg457
I1
sg11
(ielbow.chemistry.xyzClass
xyzClass
p2724
(dp2725
g14
I0
sg15
F57.295779513082323
sS'y'
F1.3856406460551018
sS'x'
F-0.8000000000000006
sg16
g1025
sS'z'
F0
sbsg150
S'c'
sg443
I01
sg47
I00
sg16
(ielbow.chemistry.xyzClass
xyzClass
p2726
(dp2727
g14
I1
sg15
F57.295779513082323
sS'y'
F2.376354997372971
sS'x'
F1.2228092296570434
sg16
(F1.2228092296570434
F2.376354997372971
I0
tp2728
sS'z'
I0
sbsg570
I01
sba(ielbow.chemistry.RingClass
empty
p2729
(dp2730
g141
I23
sg457
I0
sg11
(ielbow.chemistry.xyzClass
xyzClass
p2731
(dp2732
g14
I0
sg15
F57.295779513082323
sS'y'
F-4.4408920985006262e-16
sS'x'
F-1.6000000000000005
sg16
g1033
sS'z'
F0
sbsg47
I00
sg150
S'n'
sg16
(ielbow.chemistry.xyzClass
xyzClass
p2733
(dp2734
g14
I1
sg15
F57.295779513082323
sS'y'
F2.2994546052052485
sS'x'
F-0.096296125767401319
sg16
(F-0.096296125767401319
F2.2994546052052485
I0
tp2735
sS'z'
I0
sbsg443
I01
sba(ielbow.chemistry.RingClass
empty
p2736
(dp2737
g141
I24
sg457
I1
sg11
(ielbow.chemistry.xyzClass
xyzClass
p2738
(dp2739
g14
I0
sg15
F57.295779513082323
sS'y'
F-1.3856406460551023
sS'x'
F-0.80000000000000016
sg16
g1041
sS'z'
F0
sbsg150
S'c'
sg443
I01
sg47
I00
sg16
(ielbow.chemistry.xyzClass
xyzClass
p2740
(dp2741
g14
I1
sg15
F57.295779513082323
sS'y'
F1.1225693656017188
sS'x'
F-0.69704044894352801
sg16
(F-0.69704044894352801
F1.1225693656017188
I0
tp2742
sS'z'
I0
sbsg570
I01
sbatRp2743
(dp2744
g1268
(lp2745
F1.321345
aF1.385372
aF1.385372
aF1.321345
aF1.321345
aF1.321345
asbasbasg1449
g1
(g1269
g3
(lp2746
g1453
ag1457
ag1461
ag1465
ag1469
ag1473
ag1477
ag1481
ag1485
ag1489
ag1493
ag1497
ag1501
ag1505
ag1509
ag1513
ag1517
ag1521
ag1525
ag1529
ag1533
ag1537
ag1541
ag1545
ag1549
ag1553
ag1557
ag1561
ag1565
ag1569
ag1573
ag1577
ag1581
ag1585
ag1589
ag1593
ag1597
ag1601
ag1605
ag1609
ag1613
ag1617
ag1621
ag1625
ag1629
ag1633
ag1637
ag1641
ag1645
ag1649
ag1653
ag1657
ag1661
ag1665
ag1
(g1451
g3
(lp2747
g862
ag5
ag35
atRp2748
(dp2749
g1275
(lp2750
S'-'
aS'-'
asg1277
I01
sg1266
F109.47122063449069
sbag1
(g1451
g3
(lp2751
g271
ag61
ag51
atRp2752
(dp2753
g1275
(lp2754
S'-'
aS'-'
asg1277
I01
sg1266
F109.47122063449069
sbag1
(g1451
g3
(lp2755
g289
ag61
ag51
atRp2756
(dp2757
g1275
(lp2758
S'-'
aS'-'
asg1277
I01
sg1266
F109.47122063449069
sbag1
(g1451
g3
(lp2759
g271
ag61
ag73
atRp2760
(dp2761
g1275
(lp2762
S'-'
aS'-'
asg1277
I01
sg1266
F109.47122063449069
sbag1
(g1451
g3
(lp2763
g289
ag61
ag73
atRp2764
(dp2765
g1275
(lp2766
S'-'
aS'-'
asg1277
I01
sg1266
F109.47122063449069
sbag1
(g1451
g3
(lp2767
g373
ag361
ag351
atRp2768
(dp2769
g1275
(lp2770
S'-'
aS'-'
asg1277
I01
sg1266
F109.47122063449069
sbag1
(g1451
g3
(lp2771
g650
ag476
ag465
atRp2772
(dp2773
g1275
(lp2774
S'-'
aS':'
asg1277
I01
sg1266
F120
sbag1
(g1451
g3
(lp2775
g623
ag488
ag476
atRp2776
(dp2777
g1275
(lp2778
S'-'
aS':'
asg1277
I01
sg1266
F120
sbag1
(g1451
g3
(lp2779
g650
ag476
ag488
atRp2780
(dp2781
g1275
(lp2782
S'-'
aS':'
asg1277
I01
sg1266
F120
sbag1
(g1451
g3
(lp2783
g623
ag488
ag500
atRp2784
(dp2785
g1275
(lp2786
S'-'
aS':'
asg1277
I01
sg1266
F120
sbag1
(g1451
g3
(lp2787
g289
ag61
ag271
atRp2788
(dp2789
g1275
(lp2790
S'-'
aS'-'
asg1277
I01
sg1266
F109.47122063449069
sbatRp2791
sg1268
g1391
sS'used_auto_bond'
p2792
I00
sg1669
g1
(g1269
g3
(lp2793
g1673
ag1677
ag1681
ag1685
ag1689
ag1693
ag1697
ag1701
ag1705
ag1709
ag1713
ag1717
ag1721
ag1725
ag1729
ag1733
ag1737
ag1741
ag1745
ag1749
ag1753
ag1757
ag1761
ag1765
ag1769
ag1773
ag1777
ag1781
ag1785
ag1789
ag1793
ag1797
ag1801
ag1805
ag1809
ag1813
ag1817
ag1821
ag1825
ag1829
ag1833
ag1837
ag1841
ag1845
ag1849
ag1853
ag1857
ag1861
ag1865
ag1869
ag1873
ag1877
ag1881
ag1885
ag1889
ag1893
ag1897
ag1901
ag1905
ag1909
ag1913
ag1917
ag1921
ag1925
ag1929
ag1933
ag1937
ag1941
ag1945
ag1
(g1671
g3
(lp2794
g271
ag61
ag51
ag35
atRp2795
(dp2796
g1275
(lp2797
S'-'
aS'-'
aS'-'
asg1277
I00
sbag1
(g1671
g3
(lp2798
g289
ag61
ag51
ag35
atRp2799
(dp2800
g1275
(lp2801
S'-'
aS'-'
aS'-'
asg1277
I00
sbag1
(g1671
g3
(lp2802
g373
ag361
ag351
ag35
atRp2803
(dp2804
g1275
(lp2805
S'-'
aS'-'
aS'-'
asg1277
I00
sbag1
(g1671
g3
(lp2806
g862
ag5
ag35
ag51
atRp2807
(dp2808
g1275
(lp2809
S'-'
aS'-'
aS'-'
asg1277
I00
sbag1
(g1671
g3
(lp2810
g271
ag61
ag73
ag105
atRp2811
(dp2812
g1275
(lp2813
S'-'
aS'-'
aS'-'
asg1277
I00
sbag1
(g1671
g3
(lp2814
g289
ag61
ag73
ag105
atRp2815
(dp2816
g1275
(lp2817
S'-'
aS'-'
aS'-'
asg1277
I00
sbag1
(g1671
g3
(lp2818
g271
ag61
ag51
ag329
atRp2819
(dp2820
g1275
(lp2821
S'-'
aS'-'
aS'-'
asg1277
I00
sbag1
(g1671
g3
(lp2822
g289
ag61
ag51
ag329
atRp2823
(dp2824
g1275
(lp2825
S'-'
aS'-'
aS'-'
asg1277
I00
sbag1
(g1671
g3
(lp2826
g373
ag361
ag351
ag341
atRp2827
(dp2828
g1275
(lp2829
S'-'
aS'-'
aS'-'
asg1277
I00
sbag1
(g1671
g3
(lp2830
g650
ag476
ag465
ag341
atRp2831
(dp2832
g1275
(lp2833
S'-'
aS':'
aS'-'
asg1277
I00
sbag1
(g1671
g3
(lp2834
g862
ag5
ag35
ag351
atRp2835
(dp2836
g1275
(lp2837
S'-'
aS'-'
aS'-'
asg1277
I00
sbag1
(g1671
g3
(lp2838
g623
ag488
ag476
ag465
atRp2839
(dp2840
g1275
(lp2841
S'-'
aS':'
aS':'
asg1277
I01
sg1266
F180
sbag1
(g1671
g3
(lp2842
g650
ag476
ag488
ag500
atRp2843
(dp2844
g1275
(lp2845
S'-'
aS':'
aS':'
asg1277
I01
sg1266
F180
sbag1
(g1671
g3
(lp2846
g623
ag488
ag500
ag512
atRp2847
(dp2848
g1275
(lp2849
S'-'
aS':'
aS'='
asg1277
I00
sbag1
(g1671
g3
(lp2850
g623
ag488
ag500
ag531
atRp2851
(dp2852
g1275
(lp2853
S'-'
aS':'
aS':'
asg1277
I00
sbag1
(g1671
g3
(lp2854
g650
ag476
ag465
ag541
atRp2855
(dp2856
g1275
(lp2857
S'-'
aS':'
aS':'
asg1277
I00
sbag1
(g1671
g3
(lp2858
g862
ag5
ag35
ag811
atRp2859
(dp2860
g1275
(lp2861
S'-'
aS'-'
aS'-'
asg1277
I00
sbag1
(g1671
g3
(lp2862
g271
ag61
ag51
ag767
atRp2863
(dp2864
g1275
(lp2865
S'-'
aS'-'
aS'-'
asg1277
I00
sbag1
(g1671
g3
(lp2866
g289
ag61
ag51
ag767
atRp2867
(dp2868
g1275
(lp2869
S'-'
aS'-'
aS'-'
asg1277
I00
sbag1
(g1671
g3
(lp2870
g373
ag361
ag351
ag410
atRp2871
(dp2872
g1275
(lp2873
S'-'
aS'-'
aS'-'
asg1277
I00
sbag1
(g1671
g3
(lp2874
g623
ag488
ag476
ag650
atRp2875
(dp2876
g1275
(lp2877
S'-'
aS':'
aS'-'
asg1277
I00
sbatRp2878
sS'auto_bond_cutoff'
p2879
F3.8024999999999998
sg949
I01
sS'CIFWeights'
p2880
(dp2881
g954
F3
sg991
F30
sS'outer_ring'
p2882
F0.050000000000000003
sS'amine'
p2883
F0.10000000000000001
sS'peptide'
p2884
F0.10000000000000001
sS'inner_ring'
p2885
F0.02
sg955
F0.02
ssS'last'
p2886
g623
sg96
g1230
sS'amine_class'
p2887
g1
(g2253
g3
(ltRp2888
(dp2889
g1995
g1
(g1068
g1069
(dtRp2890
(dp2891
g1106
Nsg1098
(dp2892
sg1113
I00
sg1100
(lp2893
sg1104
(dp2894
sbsg2261
(lp2895
sbsS'G_md5'
p2896
S'aeb8729fba2f2f8f63e45f5ffa8bbd5e'
p2897
sS'files_written'
p2898
g1
(celbow.utilities.Utilities
PushFilename
p2899
g3
(lp2900
S'/home/adrmercurio/XtaLab/git_pyrR/pyrR/pyrR-apo-mpd-DS2/conUTP/eLBOW_27/UDP.pdb'
p2901
aS'/home/adrmercurio/XtaLab/git_pyrR/pyrR/pyrR-apo-mpd-DS2/conUTP/eLBOW_27/UDP.cif'
p2902
atRp2903
sg984
I01
sS'azide_class'
p2904
g1
(g2253
g3
(ltRp2905
(dp2906
g1995
g1
(g1068
g1069
(dtRp2907
(dp2908
g1106
Nsg1098
(dp2909
sg1113
I00
sg1100
(lp2910
sg1104
(dp2911
sbsg2261
(lp2912
sbsS'SubUnitEnergies'
p2913
(dp2914
(I9
I6
I230
tp2915
F1554.093834242768
s(I5
I4
I320
tp2916
F1554.4993957644472
s(I5
I4
I210
tp2917
F1568.5098884885399
s(I6
I5
I240
tp2918
F1554.8581848496201
s(I5
I4
I340
tp2919
F1554.3469779260047
s(I4
I3
I130
tp2920
F1554.5892309696587
s(I4
I3
I20
tp2921
F1554.1500075549811
s(I10
I9
I260
tp2922
F1554.4692210507997
s(I9
I6
I260
tp2923
F1553.8912423556624
s(I4
I3
I200
tp2924
F1557.3505066366106
s(I10
I9
I50
tp2925
F1554.4752534922043
s(I18
I15
I170
tp2926
F1555.3864190980014
s(I9
I6
I80
tp2927
F1555.8842568458367
s(I5
I4
I50
tp2928
F1556.0774053644841
s(I18
I15
I350
tp2929
F1554.4282744447719
s(I6
I5
I180
tp2930
F1554.3681891394613
s(I9
I6
I290
tp2931
F1553.8589800304749
s(I10
I9
I230
tp2932
F1554.4700737867979
s(I10
I9
I120
tp2933
F1554.4685929660782
s(I18
I15
I100
tp2934
F1558.7684432201625
s(I9
I6
I150
tp2935
F1555.427147316836
s(I5
I4
I130
tp2936
F1562.0820720541892
s(I18
I15
I60
tp2937
F1556.0776860416852
s(I4
I3
I140
tp2938
F1554.8706513095101
s(I6
I5
I160
tp2939
F1554.2347858648379
s(I4
I3
I30
tp2940
F1554.0372349762151
s(I9
I6
I70
tp2941
F1555.7683437103121
s(I10
I9
I190
tp2942
F1554.4776537620992
s(I6
I5
I230
tp2943
F1554.7907700806911
s(I4
I3
I240
tp2944
F1557.1211578255416
s(I18
I15
I210
tp2945
F1555.8362244006005
s(I9
I6
I110
tp2946
F1555.9459537546134
s(I5
I4
I70
tp2947
F1557.2558351894213
s(I9
I6
I120
tp2948
F1555.8701656182402
s(I6
I5
I330
tp2949
F1554.7464051092577
s(I9
I6
I270
tp2950
F1553.8619440039542
s(I4
I3
I280
tp2951
F1556.2461255653759
s(I10
I9
I150
tp2952
F1554.4707674540416
s(I10
I9
I40
tp2953
F1554.4726916190452
s(I6
I5
I90
tp2954
F1554.0544606627775
s(I5
I4
I220
tp2955
F1572.2129904970404
s(I10
I9
I270
tp2956
F1554.4708122373916
s(I6
I5
I170
tp2957
F1554.2959714115423
s(I10
I9
I220
tp2958
F1554.4718283319155
s(I10
I9
I110
tp2959
F1554.4696158751797
s(I18
I15
I110
tp2960
F1558.9308571866707
s(I4
I3
I250
tp2961
F1556.9234714772426
s(I18
I15
I330
tp2962
F1554.7646997246443
s(I6
I5
I320
tp2963
F1554.8182329132546
s(I6
I5
I30
tp2964
F1554.2057998319121
s(I5
I4
I60
tp2965
F1556.6347219816817
s(I4
I3
I90
tp2966
F1554.0205247441877
s(I9
I6
I40
tp2967
F1555.2363929138876
s(I5
I4
I280
tp2968
F1555.9613925326655
s(I18
I15
I40
tp2969
F1555.3183572084608
s(I9
I6
I210
tp2970
F1554.3300750725664
s(I18
I15
I260
tp2971
F1557.4534001949526
s(I4
I3
I230
tp2972
F1557.2812904640903
s(I5
I4
I140
tp2973
F1563.7607765033788
s(I4
I3
I290
tp2974
F1556.0188634538958
s(I18
I15
I220
tp2975
F1556.1429608220803
s(I4
I3
I300
tp2976
F1555.7942993344491
s(I4
I3
I190
tp2977
F1557.1639368805406
s(I4
I3
I0
tp2978
F1554.4682129388455
s(I10
I9
I140
tp2979
F1554.469044109665
s(I4
I3
I180
tp2980
F1556.7866495832075
s(I9
I6
I20
tp2981
F1554.8293136399054
s(I6
I5
I80
tp2982
F1554.0501691193078
s(I5
I4
I120
tp2983
F1561.0475871830338
s(I18
I15
I150
tp2984
F1555.601606492485
s(I9
I6
I100
tp2985
F1555.9755674613375
s(I9
I6
I330
tp2986
F1554.082966690725
s(I10
I9
I210
tp2987
F1554.4740522812397
s(I5
I4
I200
tp2988
F1566.9260668855134
s(I9
I6
I10
tp2989
F1554.6397198824864
s(I9
I6
I130
tp2990
F1555.7540286597509
s(I4
I3
I100
tp2991
F1554.1060143891466
s(I18
I15
I80
tp2992
F1556.91070021879
s(I4
I3
I10
tp2993
F1554.2950753566913
s(I6
I5
I20
tp2994
F1554.2826237592878
s(I9
I6
I140
tp2995
F1555.6039423496998
s(I5
I4
I180
tp2996
F1565.682945305733
s(I9
I6
I310
tp2997
F1553.9316465863969
s(I4
I3
I310
tp2998
F1555.5682850148833
s(I18
I15
I270
tp2999
F1558.6538361202417
s(I9
I6
I160
tp3000
F1555.2327055269088
s(I5
I4
I350
tp3001
F1554.3737083921362
s(I5
I4
I40
tp3002
F1555.5951834289681
s(I5
I4
I260
tp3003
F1557.4326452060175
s(I6
I5
I300
tp3004
F1554.920213946089
s(I4
I3
I340
tp3005
F1554.879234249762
s(I4
I3
I170
tp3006
F1556.2519355103673
s(I10
I9
I130
tp3007
F1554.4683505153373
s(I9
I6
I30
tp3008
F1555.0310953769394
s(I6
I5
I70
tp3009
F1554.0537593895444
s(I5
I4
I240
tp3010
F1559.703479094338
s(I9
I6
I350
tp3011
F1554.3178666179697
s(I4
I3
I160
tp3012
F1555.7062331039413
s(I5
I4
I190
tp3013
F1565.4380726206193
s(I4
I3
I350
tp3014
F1554.6646278681919
s(I5
I4
I100
tp3015
F1559.4181143995061
s(I4
I3
I50
tp3016
F1553.9162648935082
s(I18
I15
I130
tp3017
F1556.5829959715963
s(I4
I3
I260
tp3018
F1556.7047715590716
s(I4
I3
I220
tp3019
F1557.3836695850125
s(I4
I3
I120
tp3020
F1554.3786685088278
s(I5
I4
I270
tp3021
F1556.6477904675867
s(I18
I15
I90
tp3022
F1557.6446072270533
s(I6
I5
I290
tp3023
F1554.9513561344834
s(I18
I15
I310
tp3024
F1556.0532711411443
s(I6
I5
I10
tp3025
F1554.3715478214383
s(I18
I15
I70
tp3026
F1556.444915471918
s(I9
I6
I0
tp3027
F1554.468212938845
s(I6
I5
I210
tp3028
F1554.6269593288587
s(I5
I4
I250
tp3029
F1558.3592594048318
s(I6
I5
I220
tp3030
F1554.7126935545209
s(I18
I15
I20
tp3031
F1554.7553193990075
s(I5
I4
I160
tp3032
F1570.9817259514596
s(I18
I15
I240
tp3033
F1556.7601209546617
s(I4
I3
I330
tp3034
F1555.1060852437245
s(I5
I4
I110
tp3035
F1560.2085357515184
s(I4
I3
I60
tp3036
F1553.9049038396477
s(I5
I4
I330
tp3037
F1554.3874823193905
s(I18
I15
I320
tp3038
F1555.2387492790472
s(I10
I9
I10
tp3039
F1554.4679021883503
s(I6
I5
I340
tp3040
F1554.6614983203956
s(I5
I4
I150
tp3041
F1567.3204960615719
s(I6
I5
I150
tp3042
F1554.1848364915697
s(I5
I4
I310
tp3043
F1554.6934471362802
s(I10
I9
I300
tp3044
F1554.4771629120526
s(I6
I5
I350
tp3045
F1554.5669420928784
s(I9
I6
I90
tp3046
F1555.9549913473754
s(I18
I15
I140
tp3047
F1555.9695626796977
s(I5
I4
I170
tp3048
F1567.4233329669485
s(I6
I5
I120
tp3049
F1554.0930311069092
s(I10
I9
I350
tp3050
F1554.4693146881514
s(I6
I5
I260
tp3051
F1554.9498192598076
s(I6
I5
I0
tp3052
F1554.4682129388452
s(I4
I3
I320
tp3053
F1555.3380080495751
s(I9
I6
I250
tp3054
F1553.9392887147337
s(I6
I5
I200
tp3055
F1554.5376822625426
s(I18
I15
I280
tp3056
F1561.1636539318654
s(I4
I3
I210
tp3057
F1557.4116199000503
s(I18
I15
I290
tp3058
F1560.4909058852922
s(I18
I15
I30
tp3059
F1554.9933324475935
s(I18
I15
I250
tp3060
F1556.9847339169871
s(I9
I6
I300
tp3061
F1553.8856900606174
s(I5
I4
I20
tp3062
F1554.8742968750314
s(I6
I5
I110
tp3063
F1554.076330532836
s(I5
I4
I230
tp3064
F1562.6714234048168
s(I6
I5
I60
tp3065
F1554.0688098299945
s(I10
I9
I20
tp3066
F1554.4685377847056
s(I18
I15
I0
tp3067
F1554.468212938845
s(I10
I9
I0
tp3068
F1554.4682129388445
s(I18
I15
I200
tp3069
F1555.6526048945295
s(I18
I15
I180
tp3070
F1555.4519235559985
s(I6
I5
I140
tp3071
F1554.1454568262031
s(I4
I3
I150
tp3072
F1555.2399021330866
s(I4
I3
I70
tp3073
F1553.9206352774834
s(I10
I9
I290
tp3074
F1554.4756222536932
s(I9
I6
I190
tp3075
F1554.6480271302519
s(I4
I3
I80
tp3076
F1553.9595545176387
s(I10
I9
I70
tp3077
F1554.4770335048092
s(I9
I6
I180
tp3078
F1554.8337863796914
s(I5
I4
I80
tp3079
F1557.9309249728949
s(I5
I4
I290
tp3080
F1555.4046018663225
s(I5
I4
I30
tp3081
F1555.1939629385761
s(I10
I9
I340
tp3082
F1554.4710995244316
s(I10
I9
I80
tp3083
F1554.4756587886311
s(I10
I9
I330
tp3084
F1554.4733760679046
s(I10
I9
I250
tp3085
F1554.4686408632977
s(I10
I9
I320
tp3086
F1554.4756540433539
s(I9
I6
I220
tp3087
F1554.2015522964946
s(I4
I3
I270
tp3088
F1556.4763291930999
s(I6
I5
I310
tp3089
F1554.8759848297391
s(I6
I5
I280
tp3090
F1554.9683300886416
s(I9
I6
I200
tp3091
F1554.4792464172717
s(I4
I3
I40
tp3092
F1553.9593619001582
s(I9
I6
I240
tp3093
F1554.0066036872834
s(I6
I5
I50
tp3094
F1554.0983030702814
s(I18
I15
I10
tp3095
F1554.5854184847185
s(I5
I4
I90
tp3096
F1558.6549078826299
s(I10
I9
I100
tp3097
F1554.471311658021
s(I18
I15
I230
tp3098
F1556.4993297296357
s(I4
I3
I110
tp3099
F1554.2221328851372
s(I6
I5
I250
tp3100
F1554.9122158922232
s(I5
I4
I0
tp3101
F1554.4682129388457
s(I10
I9
I180
tp3102
F1554.477550298787
s(I18
I15
I190
tp3103
F1555.5457773255844
s(I6
I5
I130
tp3104
F1554.1154176732164
s(I10
I9
I170
tp3105
F1554.4758709030975
s(I10
I9
I280
tp3106
F1554.473183336615
s(I10
I9
I30
tp3107
F1554.4702130176881
s(I10
I9
I160
tp3108
F1554.4732837930496
s(I10
I9
I60
tp3109
F1554.4769230580353
s(I18
I15
I160
tp3110
F1555.4187371625094
s(I9
I6
I170
tp3111
F1555.0314032026438
s(I6
I5
I100
tp3112
F1554.0636363152778
s(I18
I15
I120
tp3113
F1557.5961983245998
s(I10
I9
I310
tp3114
F1554.4771470795297
s(I18
I15
I340
tp3115
F1554.5123535417581
s(I6
I5
I190
tp3116
F1554.4498592769437
s(I10
I9
I240
tp3117
F1554.4689764743109
s(I18
I15
I300
tp3118
F1557.5717055468144
s(I10
I9
I200
tp3119
F1554.4762566714878
s(I5
I4
I10
tp3120
F1554.6336852714328
s(I9
I6
I50
tp3121
F1555.4347453216285
s(I18
I15
I50
tp3122
F1555.7022232608285
s(I9
I6
I340
tp3123
F1554.1895748590446
s(I6
I5
I270
tp3124
F1554.9685638286223
s(I5
I4
I300
tp3125
F1554.9875939568972
s(I10
I9
I90
tp3126
F1554.473489384013
s(I9
I6
I280
tp3127
F1553.8511615340612
s(I9
I6
I60
tp3128
F1555.6154078717327
s(I6
I5
I40
tp3129
F1554.1439133305473
s(I9
I6
I320
tp3130
F1553.9972344464516
ssS'ALT_dihedrals'
p3131
g1
(g1269
g3
(lp3132
g1
(g1671
g3
(lp3133
g61
ag51
ag35
ag5
atRp3134
(dp3135
g1275
(lp3136
S'-'
aS'-'
aS'-'
asg1277
I00
sbag1
(g1671
g3
(lp3137
g329
ag51
ag35
ag5
atRp3138
(dp3139
g1275
(lp3140
S'-'
aS'-'
aS'-'
asg1277
I00
sbag1
(g1671
g3
(lp3141
g767
ag51
ag35
ag5
atRp3142
(dp3143
g1275
(lp3144
S'-'
aS'-'
aS'-'
asg1277
I00
sbag1
(g1671
g3
(lp3145
g361
ag351
ag35
ag5
atRp3146
(dp3147
g1275
(lp3148
S'-'
aS'-'
aS'-'
asg1277
I00
sbag1
(g1671
g3
(lp3149
g341
ag351
ag35
ag5
atRp3150
(dp3151
g1275
(lp3152
S'-'
aS'-'
aS'-'
asg1277
I00
sbag1
(g1671
g3
(lp3153
g410
ag351
ag35
ag5
atRp3154
(dp3155
g1275
(lp3156
S'-'
aS'-'
aS'-'
asg1277
I00
sbag1
(g1671
g3
(lp3157
g73
ag61
ag51
ag35
atRp3158
(dp3159
g1275
(lp3160
S'-'
aS'-'
aS'-'
asg1277
I00
sbag1
(g1671
g3
(lp3161
g341
ag329
ag51
ag35
atRp3162
(dp3163
g1275
(lp3164
S'-'
aS'-'
aS'-'
asg1277
I00
sbag1
(g1671
g3
(lp3165
g329
ag341
ag351
ag35
atRp3166
(dp3167
g1275
(lp3168
S'-'
aS'-'
aS'-'
asg1277
I00
sbag1
(g1671
g3
(lp3169
g465
ag341
ag351
ag35
atRp3170
(dp3171
g1275
(lp3172
S'-'
aS'-'
aS'-'
asg1277
I00
sbag1
(g1671
g3
(lp3173
g697
ag341
ag351
ag35
atRp3174
(dp3175
g1275
(lp3176
S'-'
aS'-'
aS'-'
asg1277
I00
sbag1
(g1671
g3
(lp3177
g361
ag351
ag35
ag51
atRp3178
(dp3179
g1275
(lp3180
S'-'
aS'-'
aS'-'
asg1277
I00
sbag1
(g1671
g3
(lp3181
g341
ag351
ag35
ag51
atRp3182
(dp3183
g1275
(lp3184
S'-'
aS'-'
aS'-'
asg1277
I00
sbag1
(g1671
g3
(lp3185
g410
ag351
ag35
ag51
atRp3186
(dp3187
g1275
(lp3188
S'-'
aS'-'
aS'-'
asg1277
I00
sbag1
(g1671
g3
(lp3189
g105
ag73
ag61
ag51
atRp3190
(dp3191
g1275
(lp3192
S'-'
aS'-'
aS'-'
asg1277
I00
sbag1
(g1671
g3
(lp3193
g351
ag341
ag329
ag51
atRp3194
(dp3195
g1275
(lp3196
S'-'
aS'-'
aS'-'
asg1277
I00
sbag1
(g1671
g3
(lp3197
g465
ag341
ag329
ag51
atRp3198
(dp3199
g1275
(lp3200
S'-'
aS'-'
aS'-'
asg1277
I00
sbag1
(g1671
g3
(lp3201
g697
ag341
ag329
ag51
atRp3202
(dp3203
g1275
(lp3204
S'-'
aS'-'
aS'-'
asg1277
I00
sbag1
(g1671
g3
(lp3205
g123
ag105
ag73
ag61
atRp3206
(dp3207
g1275
(lp3208
S'-'
aS'-'
aS'-'
asg1277
I00
sbag1
(g1671
g3
(lp3209
g157
ag105
ag73
ag61
atRp3210
(dp3211
g1275
(lp3212
S'='
aS'-'
aS'-'
asg1277
I00
sbag1
(g1671
g3
(lp3213
g175
ag105
ag73
ag61
atRp3214
(dp3215
g1275
(lp3216
S'-'
aS'-'
aS'-'
asg1277
I00
sbag1
(g1671
g3
(lp3217
g5
ag35
ag51
ag61
atRp3218
(dp3219
g1275
(lp3220
S'-'
aS'-'
aS'-'
asg1277
I00
sbag1
(g1671
g3
(lp3221
g351
ag35
ag51
ag61
atRp3222
(dp3223
g1275
(lp3224
S'-'
aS'-'
aS'-'
asg1277
I00
sbag1
(g1671
g3
(lp3225
g811
ag35
ag51
ag61
atRp3226
(dp3227
g1275
(lp3228
S'-'
aS'-'
aS'-'
asg1277
I00
sbag1
(g1671
g3
(lp3229
g341
ag329
ag51
ag61
atRp3230
(dp3231
g1275
(lp3232
S'-'
aS'-'
aS'-'
asg1277
I00
sbag1
(g1671
g3
(lp3233
g35
ag51
ag61
ag73
atRp3234
(dp3235
g1275
(lp3236
S'-'
aS'-'
aS'-'
asg1277
I00
sbag1
(g1671
g3
(lp3237
g329
ag51
ag61
ag73
atRp3238
(dp3239
g1275
(lp3240
S'-'
aS'-'
aS'-'
asg1277
I00
sbag1
(g1671
g3
(lp3241
g767
ag51
ag61
ag73
atRp3242
(dp3243
g1275
(lp3244
S'-'
aS'-'
aS'-'
asg1277
I00
sbag1
(g1671
g3
(lp3245
g192
ag175
ag105
ag73
atRp3246
(dp3247
g1275
(lp3248
S'-'
aS'-'
aS'-'
asg1277
I00
sbag1
(g1671
g3
(lp3249
g51
ag61
ag73
ag105
atRp3250
(dp3251
g1275
(lp3252
S'-'
aS'-'
aS'-'
asg1277
I00
sbag1
(g1671
g3
(lp3253
g209
ag192
ag175
ag105
atRp3254
(dp3255
g1275
(lp3256
S'-'
aS'-'
aS'-'
asg1277
I00
sbag1
(g1671
g3
(lp3257
g228
ag192
ag175
ag105
atRp3258
(dp3259
g1275
(lp3260
S'-'
aS'-'
aS'-'
asg1277
I00
sbag1
(g1671
g3
(lp3261
g247
ag192
ag175
ag105
atRp3262
(dp3263
g1275
(lp3264
S'='
aS'-'
aS'-'
asg1277
I00
sbag1
(g1671
g3
(lp3265
g61
ag73
ag105
ag123
atRp3266
(dp3267
g1275
(lp3268
S'-'
aS'-'
aS'-'
asg1277
I00
sbag1
(g1671
g3
(lp3269
g192
ag175
ag105
ag123
atRp3270
(dp3271
g1275
(lp3272
S'-'
aS'-'
aS'-'
asg1277
I00
sbag1
(g1671
g3
(lp3273
g61
ag73
ag105
ag157
atRp3274
(dp3275
g1275
(lp3276
S'-'
aS'-'
aS'='
asg1277
I00
sbag1
(g1671
g3
(lp3277
g192
ag175
ag105
ag157
atRp3278
(dp3279
g1275
(lp3280
S'-'
aS'-'
aS'='
asg1277
I00
sbag1
(g1671
g3
(lp3281
g61
ag73
ag105
ag175
atRp3282
(dp3283
g1275
(lp3284
S'-'
aS'-'
aS'-'
asg1277
I00
sbag1
(g1671
g3
(lp3285
g73
ag105
ag175
ag192
atRp3286
(dp3287
g1275
(lp3288
S'-'
aS'-'
aS'-'
asg1277
I00
sbag1
(g1671
g3
(lp3289
g123
ag105
ag175
ag192
atRp3290
(dp3291
g1275
(lp3292
S'-'
aS'-'
aS'-'
asg1277
I00
sbag1
(g1671
g3
(lp3293
g157
ag105
ag175
ag192
atRp3294
(dp3295
g1275
(lp3296
S'='
aS'-'
aS'-'
asg1277
I00
sbag1
(g1671
g3
(lp3297
g105
ag175
ag192
ag209
atRp3298
(dp3299
g1275
(lp3300
S'-'
aS'-'
aS'-'
asg1277
I00
sbag1
(g1671
g3
(lp3301
g105
ag175
ag192
ag228
atRp3302
(dp3303
g1275
(lp3304
S'-'
aS'-'
aS'-'
asg1277
I00
sbag1
(g1671
g3
(lp3305
g105
ag175
ag192
ag247
atRp3306
(dp3307
g1275
(lp3308
S'-'
aS'-'
aS'='
asg1277
I00
sbag1
(g1671
g3
(lp3309
g5
ag35
ag51
ag329
atRp3310
(dp3311
g1275
(lp3312
S'-'
aS'-'
aS'-'
asg1277
I00
sbag1
(g1671
g3
(lp3313
g351
ag35
ag51
ag329
atRp3314
(dp3315
g1275
(lp3316
S'-'
aS'-'
aS'-'
asg1277
I00
sbag1
(g1671
g3
(lp3317
g811
ag35
ag51
ag329
atRp3318
(dp3319
g1275
(lp3320
S'-'
aS'-'
aS'-'
asg1277
I00
sbag1
(g1671
g3
(lp3321
g73
ag61
ag51
ag329
atRp3322
(dp3323
g1275
(lp3324
S'-'
aS'-'
aS'-'
asg1277
I00
sbag1
(g1671
g3
(lp3325
g361
ag351
ag341
ag329
atRp3326
(dp3327
g1275
(lp3328
S'-'
aS'-'
aS'-'
asg1277
I00
sbag1
(g1671
g3
(lp3329
g35
ag351
ag341
ag329
atRp3330
(dp3331
g1275
(lp3332
S'-'
aS'-'
aS'-'
asg1277
I00
sbag1
(g1671
g3
(lp3333
g410
ag351
ag341
ag329
atRp3334
(dp3335
g1275
(lp3336
S'-'
aS'-'
aS'-'
asg1277
I00
sbag1
(g1671
g3
(lp3337
g476
ag465
ag341
ag329
atRp3338
(dp3339
g1275
(lp3340
S':'
aS'-'
aS'-'
asg1277
I00
sbag1
(g1671
g3
(lp3341
g541
ag465
ag341
ag329
atRp3342
(dp3343
g1275
(lp3344
S':'
aS'-'
aS'-'
asg1277
I00
sbag1
(g1671
g3
(lp3345
g35
ag51
ag329
ag341
atRp3346
(dp3347
g1275
(lp3348
S'-'
aS'-'
aS'-'
asg1277
I00
sbag1
(g1671
g3
(lp3349
g61
ag51
ag329
ag341
atRp3350
(dp3351
g1275
(lp3352
S'-'
aS'-'
aS'-'
asg1277
I00
sbag1
(g1671
g3
(lp3353
g767
ag51
ag329
ag341
atRp3354
(dp3355
g1275
(lp3356
S'-'
aS'-'
aS'-'
asg1277
I00
sbag1
(g1671
g3
(lp3357
g5
ag35
ag351
ag341
atRp3358
(dp3359
g1275
(lp3360
S'-'
aS'-'
aS'-'
asg1277
I00
sbag1
(g1671
g3
(lp3361
g51
ag35
ag351
ag341
atRp3362
(dp3363
g1275
(lp3364
S'-'
aS'-'
aS'-'
asg1277
I00
sbag1
(g1671
g3
(lp3365
g811
ag35
ag351
ag341
atRp3366
(dp3367
g1275
(lp3368
S'-'
aS'-'
aS'-'
asg1277
I00
sbag1
(g1671
g3
(lp3369
g488
ag476
ag465
ag341
atRp3370
(dp3371
g1275
(lp3372
S':'
aS':'
aS'-'
asg1277
I00
sbag1
(g1671
g3
(lp3373
g531
ag541
ag465
ag341
atRp3374
(dp3375
g1275
(lp3376
S':'
aS':'
aS'-'
asg1277
I00
sbag1
(g1671
g3
(lp3377
g551
ag541
ag465
ag341
atRp3378
(dp3379
g1275
(lp3380
S'='
aS':'
aS'-'
asg1277
I00
sbag1
(g1671
g3
(lp3381
g51
ag329
ag341
ag351
atRp3382
(dp3383
g1275
(lp3384
S'-'
aS'-'
aS'-'
asg1277
I00
sbag1
(g1671
g3
(lp3385
g476
ag465
ag341
ag351
atRp3386
(dp3387
g1275
(lp3388
S':'
aS'-'
aS'-'
asg1277
I00
sbag1
(g1671
g3
(lp3389
g541
ag465
ag341
ag351
atRp3390
(dp3391
g1275
(lp3392
S':'
aS'-'
aS'-'
asg1277
I00
sbag1
(g1671
g3
(lp3393
g61
ag51
ag35
ag351
atRp3394
(dp3395
g1275
(lp3396
S'-'
aS'-'
aS'-'
asg1277
I00
sbag1
(g1671
g3
(lp3397
g329
ag51
ag35
ag351
atRp3398
(dp3399
g1275
(lp3400
S'-'
aS'-'
aS'-'
asg1277
I00
sbag1
(g1671
g3
(lp3401
g767
ag51
ag35
ag351
atRp3402
(dp3403
g1275
(lp3404
S'-'
aS'-'
aS'-'
asg1277
I00
sbag1
(g1671
g3
(lp3405
g329
ag341
ag351
ag361
atRp3406
(dp3407
g1275
(lp3408
S'-'
aS'-'
aS'-'
asg1277
I00
sbag1
(g1671
g3
(lp3409
g465
ag341
ag351
ag361
atRp3410
(dp3411
g1275
(lp3412
S'-'
aS'-'
aS'-'
asg1277
I00
sbag1
(g1671
g3
(lp3413
g697
ag341
ag351
ag361
atRp3414
(dp3415
g1275
(lp3416
S'-'
aS'-'
aS'-'
asg1277
I00
sbag1
(g1671
g3
(lp3417
g5
ag35
ag351
ag361
atRp3418
(dp3419
g1275
(lp3420
S'-'
aS'-'
aS'-'
asg1277
I00
sbag1
(g1671
g3
(lp3421
g51
ag35
ag351
ag361
atRp3422
(dp3423
g1275
(lp3424
S'-'
aS'-'
aS'-'
asg1277
I00
sbag1
(g1671
g3
(lp3425
g811
ag35
ag351
ag361
atRp3426
(dp3427
g1275
(lp3428
S'-'
aS'-'
aS'-'
asg1277
I00
sbag1
(g1671
g3
(lp3429
g51
ag329
ag341
ag465
atRp3430
(dp3431
g1275
(lp3432
S'-'
aS'-'
aS'-'
asg1277
I00
sbag1
(g1671
g3
(lp3433
g361
ag351
ag341
ag465
atRp3434
(dp3435
g1275
(lp3436
S'-'
aS'-'
aS'-'
asg1277
I00
sbag1
(g1671
g3
(lp3437
g35
ag351
ag341
ag465
atRp3438
(dp3439
g1275
(lp3440
S'-'
aS'-'
aS'-'
asg1277
I00
sbag1
(g1671
g3
(lp3441
g410
ag351
ag341
ag465
atRp3442
(dp3443
g1275
(lp3444
S'-'
aS'-'
aS'-'
asg1277
I00
sbag1
(g1671
g3
(lp3445
g500
ag488
ag476
ag465
atRp3446
(dp3447
g1275
(lp3448
S':'
aS':'
aS':'
asg1277
I00
sbag1
(g1671
g3
(lp3449
g500
ag531
ag541
ag465
atRp3450
(dp3451
g1275
(lp3452
S':'
aS':'
aS':'
asg1277
I00
sbag1
(g1671
g3
(lp3453
g584
ag531
ag541
ag465
atRp3454
(dp3455
g1275
(lp3456
S'-'
aS':'
aS':'
asg1277
I00
sbag1
(g1671
g3
(lp3457
g329
ag341
ag465
ag476
atRp3458
(dp3459
g1275
(lp3460
S'-'
aS'-'
aS':'
asg1277
I00
sbag1
(g1671
g3
(lp3461
g351
ag341
ag465
ag476
atRp3462
(dp3463
g1275
(lp3464
S'-'
aS'-'
aS':'
asg1277
I00
sbag1
(g1671
g3
(lp3465
g697
ag341
ag465
ag476
atRp3466
(dp3467
g1275
(lp3468
S'-'
aS'-'
aS':'
asg1277
I00
sbag1
(g1671
g3
(lp3469
g531
ag541
ag465
ag476
atRp3470
(dp3471
g1275
(lp3472
S':'
aS':'
aS':'
asg1277
I00
sbag1
(g1671
g3
(lp3473
g551
ag541
ag465
ag476
atRp3474
(dp3475
g1275
(lp3476
S'='
aS':'
aS':'
asg1277
I00
sbag1
(g1671
g3
(lp3477
g512
ag500
ag488
ag476
atRp3478
(dp3479
g1275
(lp3480
S'='
aS':'
aS':'
asg1277
I00
sbag1
(g1671
g3
(lp3481
g531
ag500
ag488
ag476
atRp3482
(dp3483
g1275
(lp3484
S':'
aS':'
aS':'
asg1277
I00
sbag1
(g1671
g3
(lp3485
g341
ag465
ag476
ag488
atRp3486
(dp3487
g1275
(lp3488
S'-'
aS':'
aS':'
asg1277
I00
sbag1
(g1671
g3
(lp3489
g541
ag465
ag476
ag488
atRp3490
(dp3491
g1275
(lp3492
S':'
aS':'
aS':'
asg1277
I00
sbag1
(g1671
g3
(lp3493
g541
ag531
ag500
ag488
atRp3494
(dp3495
g1275
(lp3496
S':'
aS':'
aS':'
asg1277
I00
sbag1
(g1671
g3
(lp3497
g584
ag531
ag500
ag488
atRp3498
(dp3499
g1275
(lp3500
S'-'
aS':'
aS':'
asg1277
I00
sbag1
(g1671
g3
(lp3501
g465
ag476
ag488
ag500
atRp3502
(dp3503
g1275
(lp3504
S':'
aS':'
aS':'
asg1277
I00
sbag1
(g1671
g3
(lp3505
g551
ag541
ag531
ag500
atRp3506
(dp3507
g1275
(lp3508
S'='
aS':'
aS':'
asg1277
I00
sbag1
(g1671
g3
(lp3509
g465
ag541
ag531
ag500
atRp3510
(dp3511
g1275
(lp3512
S':'
aS':'
aS':'
asg1277
I00
sbag1
(g1671
g3
(lp3513
g476
ag488
ag500
ag512
atRp3514
(dp3515
g1275
(lp3516
S':'
aS':'
aS'='
asg1277
I00
sbag1
(g1671
g3
(lp3517
g541
ag531
ag500
ag512
atRp3518
(dp3519
g1275
(lp3520
S':'
aS':'
aS'='
asg1277
I00
sbag1
(g1671
g3
(lp3521
g584
ag531
ag500
ag512
atRp3522
(dp3523
g1275
(lp3524
S'-'
aS':'
aS'='
asg1277
I00
sbag1
(g1671
g3
(lp3525
g476
ag488
ag500
ag531
atRp3526
(dp3527
g1275
(lp3528
S':'
aS':'
aS':'
asg1277
I00
sbag1
(g1671
g3
(lp3529
g341
ag465
ag541
ag531
atRp3530
(dp3531
g1275
(lp3532
S'-'
aS':'
aS':'
asg1277
I00
sbag1
(g1671
g3
(lp3533
g476
ag465
ag541
ag531
atRp3534
(dp3535
g1275
(lp3536
S':'
aS':'
aS':'
asg1277
I00
sbag1
(g1671
g3
(lp3537
g488
ag500
ag531
ag541
atRp3538
(dp3539
g1275
(lp3540
S':'
aS':'
aS':'
asg1277
I00
sbag1
(g1671
g3
(lp3541
g512
ag500
ag531
ag541
atRp3542
(dp3543
g1275
(lp3544
S'='
aS':'
aS':'
asg1277
I00
sbag1
(g1671
g3
(lp3545
g329
ag341
ag465
ag541
atRp3546
(dp3547
g1275
(lp3548
S'-'
aS'-'
aS':'
asg1277
I00
sbag1
(g1671
g3
(lp3549
g351
ag341
ag465
ag541
atRp3550
(dp3551
g1275
(lp3552
S'-'
aS'-'
aS':'
asg1277
I00
sbag1
(g1671
g3
(lp3553
g697
ag341
ag465
ag541
atRp3554
(dp3555
g1275
(lp3556
S'-'
aS'-'
aS':'
asg1277
I00
sbag1
(g1671
g3
(lp3557
g488
ag476
ag465
ag541
atRp3558
(dp3559
g1275
(lp3560
S':'
aS':'
aS':'
asg1277
I00
sbag1
(g1671
g3
(lp3561
g500
ag531
ag541
ag551
atRp3562
(dp3563
g1275
(lp3564
S':'
aS':'
aS'='
asg1277
I00
sbag1
(g1671
g3
(lp3565
g584
ag531
ag541
ag551
atRp3566
(dp3567
g1275
(lp3568
S'-'
aS':'
aS'='
asg1277
I00
sbag1
(g1671
g3
(lp3569
g341
ag465
ag541
ag551
atRp3570
(dp3571
g1275
(lp3572
S'-'
aS':'
aS'='
asg1277
I00
sbag1
(g1671
g3
(lp3573
g476
ag465
ag541
ag551
atRp3574
(dp3575
g1275
(lp3576
S':'
aS':'
aS'='
asg1277
I00
sbag1
(g1671
g3
(lp3577
g61
ag51
ag35
ag811
atRp3578
(dp3579
g1275
(lp3580
S'-'
aS'-'
aS'-'
asg1277
I00
sbag1
(g1671
g3
(lp3581
g329
ag51
ag35
ag811
atRp3582
(dp3583
g1275
(lp3584
S'-'
aS'-'
aS'-'
asg1277
I00
sbag1
(g1671
g3
(lp3585
g767
ag51
ag35
ag811
atRp3586
(dp3587
g1275
(lp3588
S'-'
aS'-'
aS'-'
asg1277
I00
sbag1
(g1671
g3
(lp3589
g361
ag351
ag35
ag811
atRp3590
(dp3591
g1275
(lp3592
S'-'
aS'-'
aS'-'
asg1277
I00
sbag1
(g1671
g3
(lp3593
g341
ag351
ag35
ag811
atRp3594
(dp3595
g1275
(lp3596
S'-'
aS'-'
aS'-'
asg1277
I00
sbag1
(g1671
g3
(lp3597
g410
ag351
ag35
ag811
atRp3598
(dp3599
g1275
(lp3600
S'-'
aS'-'
aS'-'
asg1277
I00
sbag1
(g1671
g3
(lp3601
g5
ag35
ag51
ag767
atRp3602
(dp3603
g1275
(lp3604
S'-'
aS'-'
aS'-'
asg1277
I00
sbag1
(g1671
g3
(lp3605
g351
ag35
ag51
ag767
atRp3606
(dp3607
g1275
(lp3608
S'-'
aS'-'
aS'-'
asg1277
I00
sbag1
(g1671
g3
(lp3609
g811
ag35
ag51
ag767
atRp3610
(dp3611
g1275
(lp3612
S'-'
aS'-'
aS'-'
asg1277
I00
sbag1
(g1671
g3
(lp3613
g73
ag61
ag51
ag767
atRp3614
(dp3615
g1275
(lp3616
S'-'
aS'-'
aS'-'
asg1277
I00
sbag1
(g1671
g3
(lp3617
g341
ag329
ag51
ag767
atRp3618
(dp3619
g1275
(lp3620
S'-'
aS'-'
aS'-'
asg1277
I00
sbag1
(g1671
g3
(lp3621
g51
ag329
ag341
ag697
atRp3622
(dp3623
g1275
(lp3624
S'-'
aS'-'
aS'-'
asg1277
I00
sbag1
(g1671
g3
(lp3625
g361
ag351
ag341
ag697
atRp3626
(dp3627
g1275
(lp3628
S'-'
aS'-'
aS'-'
asg1277
I00
sbag1
(g1671
g3
(lp3629
g35
ag351
ag341
ag697
atRp3630
(dp3631
g1275
(lp3632
S'-'
aS'-'
aS'-'
asg1277
I00
sbag1
(g1671
g3
(lp3633
g410
ag351
ag341
ag697
atRp3634
(dp3635
g1275
(lp3636
S'-'
aS'-'
aS'-'
asg1277
I00
sbag1
(g1671
g3
(lp3637
g476
ag465
ag341
ag697
atRp3638
(dp3639
g1275
(lp3640
S':'
aS'-'
aS'-'
asg1277
I00
sbag1
(g1671
g3
(lp3641
g541
ag465
ag341
ag697
atRp3642
(dp3643
g1275
(lp3644
S':'
aS'-'
aS'-'
asg1277
I00
sbag1
(g1671
g3
(lp3645
g329
ag341
ag351
ag410
atRp3646
(dp3647
g1275
(lp3648
S'-'
aS'-'
aS'-'
asg1277
I00
sbag1
(g1671
g3
(lp3649
g465
ag341
ag351
ag410
atRp3650
(dp3651
g1275
(lp3652
S'-'
aS'-'
aS'-'
asg1277
I00
sbag1
(g1671
g3
(lp3653
g697
ag341
ag351
ag410
atRp3654
(dp3655
g1275
(lp3656
S'-'
aS'-'
aS'-'
asg1277
I00
sbag1
(g1671
g3
(lp3657
g5
ag35
ag351
ag410
atRp3658
(dp3659
g1275
(lp3660
S'-'
aS'-'
aS'-'
asg1277
I00
sbag1
(g1671
g3
(lp3661
g51
ag35
ag351
ag410
atRp3662
(dp3663
g1275
(lp3664
S'-'
aS'-'
aS'-'
asg1277
I00
sbag1
(g1671
g3
(lp3665
g811
ag35
ag351
ag410
atRp3666
(dp3667
g1275
(lp3668
S'-'
aS'-'
aS'-'
asg1277
I00
sbag1
(g1671
g3
(lp3669
g488
ag500
ag531
ag584
atRp3670
(dp3671
g1275
(lp3672
S':'
aS':'
aS'-'
asg1277
I00
sbag1
(g1671
g3
(lp3673
g512
ag500
ag531
ag584
atRp3674
(dp3675
g1275
(lp3676
S'='
aS':'
aS'-'
asg1277
I00
sbag1
(g1671
g3
(lp3677
g551
ag541
ag531
ag584
atRp3678
(dp3679
g1275
(lp3680
S'='
aS':'
aS'-'
asg1277
I00
sbag1
(g1671
g3
(lp3681
g465
ag541
ag531
ag584
atRp3682
(dp3683
g1275
(lp3684
S':'
aS':'
aS'-'
asg1277
I00
sbag1
(g1671
g3
(lp3685
g51
ag35
ag5
ag862
atRp3686
(dp3687
g1275
(lp3688
S'-'
aS'-'
aS'-'
asg1277
I00
sbag1
(g1671
g3
(lp3689
g351
ag35
ag5
ag862
atRp3690
(dp3691
g1275
(lp3692
S'-'
aS'-'
aS'-'
asg1277
I00
sbag1
(g1671
g3
(lp3693
g811
ag35
ag5
ag862
atRp3694
(dp3695
g1275
(lp3696
S'-'
aS'-'
aS'-'
asg1277
I00
sbag1
(g1671
g3
(lp3697
g105
ag73
ag61
ag271
atRp3698
(dp3699
g1275
(lp3700
S'-'
aS'-'
aS'-'
asg1277
I00
sbag1
(g1671
g3
(lp3701
g35
ag51
ag61
ag271
atRp3702
(dp3703
g1275
(lp3704
S'-'
aS'-'
aS'-'
asg1277
I00
sbag1
(g1671
g3
(lp3705
g329
ag51
ag61
ag271
atRp3706
(dp3707
g1275
(lp3708
S'-'
aS'-'
aS'-'
asg1277
I00
sbag1
(g1671
g3
(lp3709
g767
ag51
ag61
ag271
atRp3710
(dp3711
g1275
(lp3712
S'-'
aS'-'
aS'-'
asg1277
I00
sbag1
(g1671
g3
(lp3713
g105
ag73
ag61
ag289
atRp3714
(dp3715
g1275
(lp3716
S'-'
aS'-'
aS'-'
asg1277
I00
sbag1
(g1671
g3
(lp3717
g35
ag51
ag61
ag289
atRp3718
(dp3719
g1275
(lp3720
S'-'
aS'-'
aS'-'
asg1277
I00
sbag1
(g1671
g3
(lp3721
g329
ag51
ag61
ag289
atRp3722
(dp3723
g1275
(lp3724
S'-'
aS'-'
aS'-'
asg1277
I00
sbag1
(g1671
g3
(lp3725
g767
ag51
ag61
ag289
atRp3726
(dp3727
g1275
(lp3728
S'-'
aS'-'
aS'-'
asg1277
I00
sbag1
(g1671
g3
(lp3729
g341
ag351
ag361
ag373
atRp3730
(dp3731
g1275
(lp3732
S'-'
aS'-'
aS'-'
asg1277
I00
sbag1
(g1671
g3
(lp3733
g35
ag351
ag361
ag373
atRp3734
(dp3735
g1275
(lp3736
S'-'
aS'-'
aS'-'
asg1277
I00
sbag1
(g1671
g3
(lp3737
g410
ag351
ag361
ag373
atRp3738
(dp3739
g1275
(lp3740
S'-'
aS'-'
aS'-'
asg1277
I00
sbag1
(g1671
g3
(lp3741
g341
ag465
ag476
ag650
atRp3742
(dp3743
g1275
(lp3744
S'-'
aS':'
aS'-'
asg1277
I00
sbag1
(g1671
g3
(lp3745
g541
ag465
ag476
ag650
atRp3746
(dp3747
g1275
(lp3748
S':'
aS':'
aS'-'
asg1277
I00
sbag1
(g1671
g3
(lp3749
g500
ag488
ag476
ag650
atRp3750
(dp3751
g1275
(lp3752
S':'
aS':'
aS'-'
asg1277
I00
sbag1
(g1671
g3
(lp3753
g465
ag476
ag488
ag623
atRp3754
(dp3755
g1275
(lp3756
S':'
aS':'
aS'-'
asg1277
I00
sbag1
(g1671
g3
(lp3757
g650
ag476
ag488
ag623
atRp3758
(dp3759
g1275
(lp3760
S'-'
aS':'
aS'-'
asg1277
I00
sbag1
(g1671
g3
(lp3761
g512
ag500
ag488
ag623
atRp3762
(dp3763
g1275
(lp3764
S'='
aS':'
aS'-'
asg1277
I00
sbag1
(g1671
g3
(lp3765
g531
ag500
ag488
ag623
atRp3766
(dp3767
g1275
(lp3768
S':'
aS':'
aS'-'
asg1277
I00
sbatRp3769
sS'ALT_angles'
p3770
g1
(g1269
g3
(lp3771
g1
(g1451
g3
(lp3772
g51
ag35
ag5
atRp3773
(dp3774
g1275
(lp3775
S'-'
aS'-'
asg1277
I00
sbag1
(g1451
g3
(lp3776
g351
ag35
ag5
atRp3777
(dp3778
g1275
(lp3779
S'-'
aS'-'
asg1277
I00
sbag1
(g1451
g3
(lp3780
g811
ag35
ag5
atRp3781
(dp3782
g1275
(lp3783
S'-'
aS'-'
asg1277
I00
sbag1
(g1451
g3
(lp3784
g61
ag51
ag35
atRp3785
(dp3786
g1275
(lp3787
S'-'
aS'-'
asg1277
I00
sbag1
(g1451
g3
(lp3788
g329
ag51
ag35
atRp3789
(dp3790
g1275
(lp3791
S'-'
aS'-'
asg1277
I00
sbag1
(g1451
g3
(lp3792
g767
ag51
ag35
atRp3793
(dp3794
g1275
(lp3795
S'-'
aS'-'
asg1277
I00
sbag1
(g1451
g3
(lp3796
g361
ag351
ag35
atRp3797
(dp3798
g1275
(lp3799
S'-'
aS'-'
asg1277
I00
sbag1
(g1451
g3
(lp3800
g341
ag351
ag35
atRp3801
(dp3802
g1275
(lp3803
S'-'
aS'-'
asg1277
I00
sbag1
(g1451
g3
(lp3804
g410
ag351
ag35
atRp3805
(dp3806
g1275
(lp3807
S'-'
aS'-'
asg1277
I00
sbag1
(g1451
g3
(lp3808
g5
ag35
ag51
atRp3809
(dp3810
g1275
(lp3811
S'-'
aS'-'
asg1277
I00
sbag1
(g1451
g3
(lp3812
g351
ag35
ag51
atRp3813
(dp3814
g1275
(lp3815
S'-'
aS'-'
asg1277
I00
sbag1
(g1451
g3
(lp3816
g811
ag35
ag51
atRp3817
(dp3818
g1275
(lp3819
S'-'
aS'-'
asg1277
I00
sbag1
(g1451
g3
(lp3820
g73
ag61
ag51
atRp3821
(dp3822
g1275
(lp3823
S'-'
aS'-'
asg1277
I00
sbag1
(g1451
g3
(lp3824
g341
ag329
ag51
atRp3825
(dp3826
g1275
(lp3827
S'-'
aS'-'
asg1277
I00
sbag1
(g1451
g3
(lp3828
g105
ag73
ag61
atRp3829
(dp3830
g1275
(lp3831
S'-'
aS'-'
asg1277
I00
sbag1
(g1451
g3
(lp3832
g35
ag51
ag61
atRp3833
(dp3834
g1275
(lp3835
S'-'
aS'-'
asg1277
I00
sbag1
(g1451
g3
(lp3836
g329
ag51
ag61
atRp3837
(dp3838
g1275
(lp3839
S'-'
aS'-'
asg1277
I00
sbag1
(g1451
g3
(lp3840
g767
ag51
ag61
atRp3841
(dp3842
g1275
(lp3843
S'-'
aS'-'
asg1277
I00
sbag1
(g1451
g3
(lp3844
g51
ag61
ag73
atRp3845
(dp3846
g1275
(lp3847
S'-'
aS'-'
asg1277
I00
sbag1
(g1451
g3
(lp3848
g123
ag105
ag73
atRp3849
(dp3850
g1275
(lp3851
S'-'
aS'-'
asg1277
I00
sbag1
(g1451
g3
(lp3852
g157
ag105
ag73
atRp3853
(dp3854
g1275
(lp3855
S'='
aS'-'
asg1277
I00
sbag1
(g1451
g3
(lp3856
g175
ag105
ag73
atRp3857
(dp3858
g1275
(lp3859
S'-'
aS'-'
asg1277
I00
sbag1
(g1451
g3
(lp3860
g61
ag73
ag105
atRp3861
(dp3862
g1275
(lp3863
S'-'
aS'-'
asg1277
I00
sbag1
(g1451
g3
(lp3864
g192
ag175
ag105
atRp3865
(dp3866
g1275
(lp3867
S'-'
aS'-'
asg1277
I00
sbag1
(g1451
g3
(lp3868
g73
ag105
ag123
atRp3869
(dp3870
g1275
(lp3871
S'-'
aS'-'
asg1277
I00
sbag1
(g1451
g3
(lp3872
g157
ag105
ag123
atRp3873
(dp3874
g1275
(lp3875
S'='
aS'-'
asg1277
I00
sbag1
(g1451
g3
(lp3876
g175
ag105
ag123
atRp3877
(dp3878
g1275
(lp3879
S'-'
aS'-'
asg1277
I00
sbag1
(g1451
g3
(lp3880
g73
ag105
ag157
atRp3881
(dp3882
g1275
(lp3883
S'-'
aS'='
asg1277
I00
sbag1
(g1451
g3
(lp3884
g123
ag105
ag157
atRp3885
(dp3886
g1275
(lp3887
S'-'
aS'='
asg1277
I00
sbag1
(g1451
g3
(lp3888
g175
ag105
ag157
atRp3889
(dp3890
g1275
(lp3891
S'-'
aS'='
asg1277
I00
sbag1
(g1451
g3
(lp3892
g73
ag105
ag175
atRp3893
(dp3894
g1275
(lp3895
S'-'
aS'-'
asg1277
I00
sbag1
(g1451
g3
(lp3896
g123
ag105
ag175
atRp3897
(dp3898
g1275
(lp3899
S'-'
aS'-'
asg1277
I00
sbag1
(g1451
g3
(lp3900
g157
ag105
ag175
atRp3901
(dp3902
g1275
(lp3903
S'='
aS'-'
asg1277
I00
sbag1
(g1451
g3
(lp3904
g209
ag192
ag175
atRp3905
(dp3906
g1275
(lp3907
S'-'
aS'-'
asg1277
I00
sbag1
(g1451
g3
(lp3908
g228
ag192
ag175
atRp3909
(dp3910
g1275
(lp3911
S'-'
aS'-'
asg1277
I00
sbag1
(g1451
g3
(lp3912
g247
ag192
ag175
atRp3913
(dp3914
g1275
(lp3915
S'='
aS'-'
asg1277
I00
sbag1
(g1451
g3
(lp3916
g105
ag175
ag192
atRp3917
(dp3918
g1275
(lp3919
S'-'
aS'-'
asg1277
I00
sbag1
(g1451
g3
(lp3920
g175
ag192
ag209
atRp3921
(dp3922
g1275
(lp3923
S'-'
aS'-'
asg1277
I00
sbag1
(g1451
g3
(lp3924
g228
ag192
ag209
atRp3925
(dp3926
g1275
(lp3927
S'-'
aS'-'
asg1277
I00
sbag1
(g1451
g3
(lp3928
g247
ag192
ag209
atRp3929
(dp3930
g1275
(lp3931
S'='
aS'-'
asg1277
I00
sbag1
(g1451
g3
(lp3932
g175
ag192
ag228
atRp3933
(dp3934
g1275
(lp3935
S'-'
aS'-'
asg1277
I00
sbag1
(g1451
g3
(lp3936
g209
ag192
ag228
atRp3937
(dp3938
g1275
(lp3939
S'-'
aS'-'
asg1277
I00
sbag1
(g1451
g3
(lp3940
g247
ag192
ag228
atRp3941
(dp3942
g1275
(lp3943
S'='
aS'-'
asg1277
I00
sbag1
(g1451
g3
(lp3944
g175
ag192
ag247
atRp3945
(dp3946
g1275
(lp3947
S'-'
aS'='
asg1277
I00
sbag1
(g1451
g3
(lp3948
g209
ag192
ag247
atRp3949
(dp3950
g1275
(lp3951
S'-'
aS'='
asg1277
I00
sbag1
(g1451
g3
(lp3952
g228
ag192
ag247
atRp3953
(dp3954
g1275
(lp3955
S'-'
aS'='
asg1277
I00
sbag1
(g1451
g3
(lp3956
g35
ag51
ag329
atRp3957
(dp3958
g1275
(lp3959
S'-'
aS'-'
asg1277
I00
sbag1
(g1451
g3
(lp3960
g61
ag51
ag329
atRp3961
(dp3962
g1275
(lp3963
S'-'
aS'-'
asg1277
I00
sbag1
(g1451
g3
(lp3964
g767
ag51
ag329
atRp3965
(dp3966
g1275
(lp3967
S'-'
aS'-'
asg1277
I00
sbag1
(g1451
g3
(lp3968
g351
ag341
ag329
atRp3969
(dp3970
g1275
(lp3971
S'-'
aS'-'
asg1277
I00
sbag1
(g1451
g3
(lp3972
g465
ag341
ag329
atRp3973
(dp3974
g1275
(lp3975
S'-'
aS'-'
asg1277
I00
sbag1
(g1451
g3
(lp3976
g697
ag341
ag329
atRp3977
(dp3978
g1275
(lp3979
S'-'
aS'-'
asg1277
I00
sbag1
(g1451
g3
(lp3980
g51
ag329
ag341
atRp3981
(dp3982
g1275
(lp3983
S'-'
aS'-'
asg1277
I00
sbag1
(g1451
g3
(lp3984
g361
ag351
ag341
atRp3985
(dp3986
g1275
(lp3987
S'-'
aS'-'
asg1277
I00
sbag1
(g1451
g3
(lp3988
g35
ag351
ag341
atRp3989
(dp3990
g1275
(lp3991
S'-'
aS'-'
asg1277
I00
sbag1
(g1451
g3
(lp3992
g410
ag351
ag341
atRp3993
(dp3994
g1275
(lp3995
S'-'
aS'-'
asg1277
I00
sbag1
(g1451
g3
(lp3996
g476
ag465
ag341
atRp3997
(dp3998
g1275
(lp3999
S':'
aS'-'
asg1277
I00
sbag1
(g1451
g3
(lp4000
g541
ag465
ag341
atRp4001
(dp4002
g1275
(lp4003
S':'
aS'-'
asg1277
I00
sbag1
(g1451
g3
(lp4004
g329
ag341
ag351
atRp4005
(dp4006
g1275
(lp4007
S'-'
aS'-'
asg1277
I00
sbag1
(g1451
g3
(lp4008
g465
ag341
ag351
atRp4009
(dp4010
g1275
(lp4011
S'-'
aS'-'
asg1277
I00
sbag1
(g1451
g3
(lp4012
g697
ag341
ag351
atRp4013
(dp4014
g1275
(lp4015
S'-'
aS'-'
asg1277
I00
sbag1
(g1451
g3
(lp4016
g5
ag35
ag351
atRp4017
(dp4018
g1275
(lp4019
S'-'
aS'-'
asg1277
I00
sbag1
(g1451
g3
(lp4020
g51
ag35
ag351
atRp4021
(dp4022
g1275
(lp4023
S'-'
aS'-'
asg1277
I00
sbag1
(g1451
g3
(lp4024
g811
ag35
ag351
atRp4025
(dp4026
g1275
(lp4027
S'-'
aS'-'
asg1277
I00
sbag1
(g1451
g3
(lp4028
g341
ag351
ag361
atRp4029
(dp4030
g1275
(lp4031
S'-'
aS'-'
asg1277
I00
sbag1
(g1451
g3
(lp4032
g35
ag351
ag361
atRp4033
(dp4034
g1275
(lp4035
S'-'
aS'-'
asg1277
I00
sbag1
(g1451
g3
(lp4036
g410
ag351
ag361
atRp4037
(dp4038
g1275
(lp4039
S'-'
aS'-'
asg1277
I00
sbag1
(g1451
g3
(lp4040
g329
ag341
ag465
atRp4041
(dp4042
g1275
(lp4043
S'-'
aS'-'
asg1277
I00
sbag1
(g1451
g3
(lp4044
g351
ag341
ag465
atRp4045
(dp4046
g1275
(lp4047
S'-'
aS'-'
asg1277
I00
sbag1
(g1451
g3
(lp4048
g697
ag341
ag465
atRp4049
(dp4050
g1275
(lp4051
S'-'
aS'-'
asg1277
I00
sbag1
(g1451
g3
(lp4052
g488
ag476
ag465
atRp4053
(dp4054
g1275
(lp4055
S':'
aS':'
asg1277
I00
sbag1
(g1451
g3
(lp4056
g531
ag541
ag465
atRp4057
(dp4058
g1275
(lp4059
S':'
aS':'
asg1277
I00
sbag1
(g1451
g3
(lp4060
g551
ag541
ag465
atRp4061
(dp4062
g1275
(lp4063
S'='
aS':'
asg1277
I00
sbag1
(g1451
g3
(lp4064
g341
ag465
ag476
atRp4065
(dp4066
g1275
(lp4067
S'-'
aS':'
asg1277
I00
sbag1
(g1451
g3
(lp4068
g541
ag465
ag476
atRp4069
(dp4070
g1275
(lp4071
S':'
aS':'
asg1277
I00
sbag1
(g1451
g3
(lp4072
g500
ag488
ag476
atRp4073
(dp4074
g1275
(lp4075
S':'
aS':'
asg1277
I00
sbag1
(g1451
g3
(lp4076
g465
ag476
ag488
atRp4077
(dp4078
g1275
(lp4079
S':'
aS':'
asg1277
I00
sbag1
(g1451
g3
(lp4080
g512
ag500
ag488
atRp4081
(dp4082
g1275
(lp4083
S'='
aS':'
asg1277
I00
sbag1
(g1451
g3
(lp4084
g531
ag500
ag488
atRp4085
(dp4086
g1275
(lp4087
S':'
aS':'
asg1277
I00
sbag1
(g1451
g3
(lp4088
g476
ag488
ag500
atRp4089
(dp4090
g1275
(lp4091
S':'
aS':'
asg1277
I00
sbag1
(g1451
g3
(lp4092
g541
ag531
ag500
atRp4093
(dp4094
g1275
(lp4095
S':'
aS':'
asg1277
I00
sbag1
(g1451
g3
(lp4096
g584
ag531
ag500
atRp4097
(dp4098
g1275
(lp4099
S'-'
aS':'
asg1277
I00
sbag1
(g1451
g3
(lp4100
g488
ag500
ag512
atRp4101
(dp4102
g1275
(lp4103
S':'
aS'='
asg1277
I00
sbag1
(g1451
g3
(lp4104
g531
ag500
ag512
atRp4105
(dp4106
g1275
(lp4107
S':'
aS'='
asg1277
I00
sbag1
(g1451
g3
(lp4108
g488
ag500
ag531
atRp4109
(dp4110
g1275
(lp4111
S':'
aS':'
asg1277
I00
sbag1
(g1451
g3
(lp4112
g512
ag500
ag531
atRp4113
(dp4114
g1275
(lp4115
S'='
aS':'
asg1277
I00
sbag1
(g1451
g3
(lp4116
g551
ag541
ag531
atRp4117
(dp4118
g1275
(lp4119
S'='
aS':'
asg1277
I00
sbag1
(g1451
g3
(lp4120
g465
ag541
ag531
atRp4121
(dp4122
g1275
(lp4123
S':'
aS':'
asg1277
I00
sbag1
(g1451
g3
(lp4124
g500
ag531
ag541
atRp4125
(dp4126
g1275
(lp4127
S':'
aS':'
asg1277
I00
sbag1
(g1451
g3
(lp4128
g584
ag531
ag541
atRp4129
(dp4130
g1275
(lp4131
S'-'
aS':'
asg1277
I00
sbag1
(g1451
g3
(lp4132
g341
ag465
ag541
atRp4133
(dp4134
g1275
(lp4135
S'-'
aS':'
asg1277
I00
sbag1
(g1451
g3
(lp4136
g476
ag465
ag541
atRp4137
(dp4138
g1275
(lp4139
S':'
aS':'
asg1277
I00
sbag1
(g1451
g3
(lp4140
g531
ag541
ag551
atRp4141
(dp4142
g1275
(lp4143
S':'
aS'='
asg1277
I00
sbag1
(g1451
g3
(lp4144
g465
ag541
ag551
atRp4145
(dp4146
g1275
(lp4147
S':'
aS'='
asg1277
I00
sbag1
(g1451
g3
(lp4148
g5
ag35
ag811
atRp4149
(dp4150
g1275
(lp4151
S'-'
aS'-'
asg1277
I00
sbag1
(g1451
g3
(lp4152
g51
ag35
ag811
atRp4153
(dp4154
g1275
(lp4155
S'-'
aS'-'
asg1277
I00
sbag1
(g1451
g3
(lp4156
g351
ag35
ag811
atRp4157
(dp4158
g1275
(lp4159
S'-'
aS'-'
asg1277
I00
sbag1
(g1451
g3
(lp4160
g35
ag51
ag767
atRp4161
(dp4162
g1275
(lp4163
S'-'
aS'-'
asg1277
I00
sbag1
(g1451
g3
(lp4164
g61
ag51
ag767
atRp4165
(dp4166
g1275
(lp4167
S'-'
aS'-'
asg1277
I00
sbag1
(g1451
g3
(lp4168
g329
ag51
ag767
atRp4169
(dp4170
g1275
(lp4171
S'-'
aS'-'
asg1277
I00
sbag1
(g1451
g3
(lp4172
g329
ag341
ag697
atRp4173
(dp4174
g1275
(lp4175
S'-'
aS'-'
asg1277
I00
sbag1
(g1451
g3
(lp4176
g351
ag341
ag697
atRp4177
(dp4178
g1275
(lp4179
S'-'
aS'-'
asg1277
I00
sbag1
(g1451
g3
(lp4180
g465
ag341
ag697
atRp4181
(dp4182
g1275
(lp4183
S'-'
aS'-'
asg1277
I00
sbag1
(g1451
g3
(lp4184
g361
ag351
ag410
atRp4185
(dp4186
g1275
(lp4187
S'-'
aS'-'
asg1277
I00
sbag1
(g1451
g3
(lp4188
g341
ag351
ag410
atRp4189
(dp4190
g1275
(lp4191
S'-'
aS'-'
asg1277
I00
sbag1
(g1451
g3
(lp4192
g35
ag351
ag410
atRp4193
(dp4194
g1275
(lp4195
S'-'
aS'-'
asg1277
I00
sbag1
(g1451
g3
(lp4196
g500
ag531
ag584
atRp4197
(dp4198
g1275
(lp4199
S':'
aS'-'
asg1277
I00
sbag1
(g1451
g3
(lp4200
g541
ag531
ag584
atRp4201
(dp4202
g1275
(lp4203
S':'
aS'-'
asg1277
I00
sbag1
(g1451
g3
(lp4204
g35
ag5
ag862
atRp4205
(dp4206
g1275
(lp4207
S'-'
aS'-'
asg1277
I00
sbag1
(g1451
g3
(lp4208
g73
ag61
ag271
atRp4209
(dp4210
g1275
(lp4211
S'-'
aS'-'
asg1277
I00
sbag1
(g1451
g3
(lp4212
g51
ag61
ag271
atRp4213
(dp4214
g1275
(lp4215
S'-'
aS'-'
asg1277
I00
sbag1
(g1451
g3
(lp4216
g73
ag61
ag289
atRp4217
(dp4218
g1275
(lp4219
S'-'
aS'-'
asg1277
I00
sbag1
(g1451
g3
(lp4220
g51
ag61
ag289
atRp4221
(dp4222
g1275
(lp4223
S'-'
aS'-'
asg1277
I00
sbag1
(g1451
g3
(lp4224
g271
ag61
ag289
atRp4225
(dp4226
g1275
(lp4227
S'-'
aS'-'
asg1277
I00
sbag1
(g1451
g3
(lp4228
g351
ag361
ag373
atRp4229
(dp4230
g1275
(lp4231
S'-'
aS'-'
asg1277
I00
sbag1
(g1451
g3
(lp4232
g465
ag476
ag650
atRp4233
(dp4234
g1275
(lp4235
S':'
aS'-'
asg1277
I00
sbag1
(g1451
g3
(lp4236
g488
ag476
ag650
atRp4237
(dp4238
g1275
(lp4239
S':'
aS'-'
asg1277
I00
sbag1
(g1451
g3
(lp4240
g476
ag488
ag623
atRp4241
(dp4242
g1275
(lp4243
S':'
aS'-'
asg1277
I00
sbag1
(g1451
g3
(lp4244
g500
ag488
ag623
atRp4245
(dp4246
g1275
(lp4247
S':'
aS'-'
asg1277
I00
sbatRp4248
sS'temp_cif'
p4249
S'/tmp/tmpPFRCBD'
p4250
sg1960
g1
(g1961
g3
(lp4251
g1965
ag1976
ag1980
ag1984
ag1988
ag2494
ag2498
ag2239
ag2243
ag2071
ag2079
ag1
(g1963
g3
(lp4252
g73
ag61
aF1.4081873184528844
ag51
aF108.35209253396749
ag35
aF-45.342429978669017
atRp4253
(dp4254
g1967
I00
sg1968
I01
sg1969
I4
sg1970
I2
sg1971
I6
sg1972
(lp4255
I00
aI00
aI00
asg1974
I00
sg1266
F1.4081873184528844
sbag1
(g1963
g3
(lp4256
g105
ag73
aF1.6603127929701686
ag61
aF118.48266979585951
ag51
aF-146.16303246677282
atRp4257
(dp4258
g1967
I00
sg1968
I01
sg1969
I4
sg1970
I2
sg1971
I6
sg1972
(lp4259
I00
aI00
aI00
asg1974
I00
sg1266
F1.6603127929701686
sbag1
(g1963
g3
(lp4260
g123
ag105
aF1.5117266827410223
ag73
aF109.46766715593931
ag61
aF108.11332517631698
atRp4261
(dp4262
g1967
I00
sg1968
I01
sg1969
I4
sg1970
I2
sg1971
I6
sg1972
(lp4263
I00
aI00
aI00
asg1974
I00
sg1266
F1.5117266827410223
sbag1
(g1963
g3
(lp4264
g157
ag105
aF1.5092300916760335
ag73
aF109.48558909346369
ag61
aF-11.888052687346175
atRp4265
(dp4266
g1967
I00
sg1968
I01
sg1969
I4
sg1970
I2
sg1971
I6
sg1972
(lp4267
I00
aI00
aI00
asg1974
I00
sg1266
F1.5092300916760335
sbag1
(g1963
g3
(lp4268
g175
ag105
aF1.6530473233508007
ag73
aF109.46564281694145
ag61
aF-131.89976989277451
atRp4269
(dp4270
g1967
I00
sg1968
I01
sg1969
I4
sg1970
I2
sg1971
I6
sg1972
(lp4271
I00
aI00
aI00
asg1974
I00
sg1266
F1.6530473233508007
sbag1
(g1963
g3
(lp4272
g192
ag175
aF1.6519149293782283
ag105
aF123.66667238718173
ag73
aF116.42693557334462
atRp4273
(dp4274
g1967
I00
sg1968
I01
sg1969
I4
sg1970
I2
sg1971
I6
sg1972
(lp4275
I00
aI00
aI00
asg1974
I00
sg1266
F1.6519149293782283
sbag1
(g1963
g3
(lp4276
g209
ag192
aF1.5091169854034832
ag175
aF109.48085620560992
ag105
aF-55.567721379447001
atRp4277
(dp4278
g1967
I00
sg1968
I01
sg1969
I4
sg1970
I2
sg1971
I6
sg1972
(lp4279
I00
aI00
aI00
asg1974
I00
sg1266
F1.5091169854034832
sbag1
(g1963
g3
(lp4280
g228
ag192
aF1.5114223112727334
ag175
aF109.45704962703616
ag105
aF-175.56242455328004
atRp4281
(dp4282
g1967
I00
sg1968
I01
sg1969
I4
sg1970
I2
sg1971
I6
sg1972
(lp4283
I00
aI00
aI00
asg1974
I00
sg1266
F1.5114223112727334
sbag1
(g1963
g3
(lp4284
g247
ag192
aF1.5106018125069494
ag175
aF109.48521863843152
ag105
aF64.446779972918876
atRp4285
(dp4286
g1967
I00
sg1968
I01
sg1969
I4
sg1970
I2
sg1971
I6
sg1972
(lp4287
I00
aI00
aI00
asg1974
I00
sg1266
F1.5106018125069494
sbag2159
ag2163
ag2555
ag2559
ag2563
ag2567
ag2571
ag1
(g1963
g3
(lp4288
g512
ag500
aF1.1872104959136089
ag488
aF120.03677168078985
ag476
aF-178.45729182197493
atRp4289
(dp4290
g1970
I2
sg1971
I6
sg1968
I01
sg1972
(lp4291
I00
aI00
aI00
asg1974
I00
sg1969
I4
sg1266
F1.1872104959136089
sbag1
(g1963
g3
(lp4292
g551
ag541
aF1.1845199595371603
ag465
aF119.38672755949828
ag341
aF3.7311448456214125
atRp4293
(dp4294
g1970
I2
sg1971
I6
sg1968
I01
sg1972
(lp4295
I00
aI00
aI00
asg1974
I00
sg1969
I4
sg1266
F1.1845199595371603
sbag1
(g1963
g3
(lp4296
g584
ag531
aF1.0008300000000001
ag500
aF119.80373578131477
ag488
aF-179.99839914345003
atRp4297
(dp4298
g1970
I2
sg1971
I6
sg1968
I01
sg1972
(lp4299
I00
aI00
aI00
asg1974
I00
sg1969
I4
sg1266
F1.0008300000000001
sbag1
(g1963
g3
(lp4300
g862
ag5
aF0.94288300000000003
ag35
aF109.45794943787311
ag51
aF-27.53774207116312
atRp4301
(dp4302
g1970
I2
sg1971
I6
sg1968
I01
sg1972
(lp4303
I00
aI00
aI00
asg1974
I00
sg1969
I4
sg1266
F0.94288300000000003
sbag1
(g1963
g3
(lp4304
g271
ag61
aF1.0833090000000001
ag51
aF109.70267999477748
ag35
aF74.390144462794709
atRp4305
(dp4306
g1970
I2
sg1971
I6
sg1968
I01
sg1972
(lp4307
I00
aI00
aI00
asg1974
I00
sg1969
I4
sg1266
F1.0833090000000001
sbag1
(g1963
g3
(lp4308
g289
ag61
aF1.0833090000000001
ag51
aF109.69237095329483
ag35
aF-165.06640416766331
atRp4309
(dp4310
g1970
I2
sg1971
I6
sg1968
I01
sg1972
(lp4311
I00
aI00
aI00
asg1974
I00
sg1969
I4
sg1266
F1.0833090000000001
sbag1
(g1963
g3
(lp4312
g373
ag361
aF0.94288300000000003
ag351
aF109.47698302200791
ag35
aF-122.97351373420207
atRp4313
(dp4314
g1970
I2
sg1971
I6
sg1968
I01
sg1972
(lp4315
I00
aI00
aI00
asg1974
I00
sg1969
I4
sg1266
F0.94288300000000003
sbag1
(g1963
g3
(lp4316
g650
ag476
aF1.0833090000000001
ag465
aF120.76036061048448
ag341
aF-7.2603424558973257
atRp4317
(dp4318
g1970
I2
sg1971
I6
sg1968
I01
sg1972
(lp4319
I00
aI00
aI00
asg1974
I00
sg1969
I4
sg1266
F1.0833090000000001
sbag1
(g1963
g3
(lp4320
g623
ag488
aF1.0833090000000001
ag476
aF120.84671169829623
ag465
aF-180
atRp4321
(dp4322
g1970
I2
sg1971
I6
sg1968
I01
sg1972
(lp4323
I00
aI00
aI00
asg1974
I00
sg1969
I4
sg1266
F1.0833090000000001
sbatRp4324
(dp4325
g949
I01
sg950
g1949
sg1267
g896
sg1268
g1391
sg984
I01
sg1993
(lp4326
g35
ag5
ag51
ag351
ag811
ag329
ag341
ag361
ag410
ag61
ag767
ag73
ag105
ag123
ag157
ag175
ag192
ag209
ag228
ag247
ag465
ag697
ag476
ag488
ag500
ag531
ag541
ag512
ag551
ag584
ag862
ag271
ag289
ag373
ag650
ag623
asg1972
(dp4327
sg1995
(dp4328
sg1449
g2791
sg1996
I01
sg1669
g2878
sbsS'small_planar_class'
p4329
g1
(g2253
g3
(lp4330
(lp4331
g500
ag488
ag512
ag531
aa(lp4332
g541
ag531
ag551
ag465
aatRp4333
(dp4334
g1995
g1
(g1068
g1069
(dtRp4335
(dp4336
g1106
Nsg1098
(dp4337
sg1113
I00
sg1100
(lp4338
sg1104
(dp4339
sbsg2261
(lp4340
I0
aI0
aI0
aI0
asbsS'all_rings'
p4341
(lp4342
(lp4343
S'14'
p4344
aS'15'
p4345
aS'16'
p4346
aS'2'
aS'3'
aa(lp4347
S'18'
p4348
aS'19'
p4349
aS'20'
p4350
aS'21'
p4351
aS'23'
p4352
aS'24'
p4353
aasS'bonds_md5'
p4354
S'f331ec1c85f23667b713e56b270467f7'
p4355
sg1995
g1
(g1068
g1069
(dp4356
I1
(F1.4661124150472151
F-0.4896615366135264
F-0.39712907410605197
tp4357
sI2
(F-0.0020103608602343951
F-0.37179632726976486
F-0.28094834562852161
tp4358
sI3
(F-0.39803826763328454
F-0.078904355044510807
F1.1904185890427661
tp4359
sI4
(F-0.86407670954331062
F1.2060396461925369
F1.3112186198865758
tp4360
sI5
(F0.0062656508905740912
F2.0612630332078123
F0.60830421699813042
tp4361
sI6
(F0.25932224107212748
F3.5924268405024793
F1.1983366973727161
tp4362
sI7
(F1.6531678041060824
F3.6857426890847109
F1.7760946589146671
tp4363
sI8
(F-0.7532869780999143
F3.889951504285591
F2.2771680620025103
tp4364
sI9
(F0.096702397529580819
F4.6891179575156388
F-0.027790879018856463
tp4365
sg2368
(lp4366
F0
aF10
aI0
asI11
(F-2.4317194710771406
F5.2067513405110901
F0.062438300729605392
tp4367
sI12
(F-0.99553316854932372
F6.6046393750912502
F-1.3747686436190134
tp4368
sI13
(F-0.86509720245589683
F6.8158684027105458
F1.0800695904184232
tp4369
sI14
(F-1.5535860160859081
F-1.1212444940795046
F1.5406731577661275
tp4370
sI15
(F-1.9108764427481879
F-1.6351727843716941
F0.40510443431807319
tp4371
sI16
(F-0.57665063277551842
F-1.5299499811436057
F-0.57787077012028998
tp4372
sI17
(F0.31919406582451681
F-2.6059139308449133
F-0.30503512661630128
tp4373
sI18
(F-2.9949531115308736
F-0.88938150795227955
F-0.1539214805168313
tp4374
sI19
(F-3.0581785688024912
F-0.73927816389274348
F-1.4671233047889287
tp4375
sI20
(F-4.1896175043336488
F-0.14805282286490562
F-2.0123798768121968
tp4376
sI21
(F-5.1987068186520409
F0.25635809599033366
F-1.1525513123189068
tp4377
s(I28
I15
I14
tp4378
(lp4379
F109.09999999999999
aF1
asI23
(F-5.0671362315376314
F0.074497382181043001
F0.15009176409473002
tp4380
sI24
(F-3.9752311836192606
F-0.49279590501627996
F0.64053905756249863
tp4381
sI25
(F-3.902455072876982
F-0.70452353707429827
F1.8037082550871957
tp4382
sI26
(F63.281806111616476
F95.556211466693156
F-48.471076629331229
tp4383
sI27
(F52.034818764613291
F28.88541497476881
F32.608757703906967
tp4384
sI28
(F68.524782676494837
F-28.696650195022194
F31.904889646334755
tp4385
sI29
(F-56.799332668906665
F-90.878875574942214
F-29.009550325642362
tp4386
sI30
(F-23.15236456406133
F-52.878233797179085
F79.997771955872679
tp4387
sI31
(F55.993938951943178
F-13.831124006821106
F-77.098160856460751
tp4388
sI32
(F-92.714294428821333
F-89.552582620541386
F-29.499272550681233
tp4389
sI33
(F-40.60151244250423
F15.352267074738089
F-6.8917055012794046
tp4390
sI34
(F48.738953841270536
F-40.681113636711878
F53.272555353474182
tp4391
sI35
(F33.493685386350236
F28.208940865810732
F-6.5562600361680348
tp4392
sI36
(F-51.586071213292527
F30.534373688183361
F-58.374571257378271
tp4393
s(I9
I6
I7
tp4394
(lp4395
F120
aF1
as(I7
I6
tp4396
(lp4397
F1.51
aF100
as(I30
I23
tp4398
(lp4399
F1.0008300000000001
aF100
asg1167
g1168
sI10
(F-1.0743019131419842
F5.8536568501619781
F-0.065487109670274227
tp4400
s(I28
I15
I16
tp4401
(lp4402
F109.09999999999999
aF1
asg2398
g2399
s(I12
I10
I9
tp4403
(lp4404
F120
aF1
as(I13
I10
I12
tp4405
(lp4406
F120
aF1
as(I12
I10
I11
tp4407
(lp4408
F120
aF1
asg2380
g2381
sg2396
g2397
sg2340
g2341
s(I13
I10
tp4409
(lp4410
F1.51
aF100
as(I25
I24
I18
tp4411
(lp4412
F119.43885136624549
aF1
as(I36
I20
I19
I18
tp4413
(lp4414
F180
aF1
aI0
asg2342
g2343
sg1196
g1197
s(I33
I4
tp4415
(lp4416
F1.0833090000000001
aF100
as(I33
I4
I5
tp4417
(lp4418
F109.47122063449069
aF1
asg1165
g1166
s(I29
I16
I15
tp4419
(lp4420
F109.09999999999999
aF1
asg1175
g1176
s(I33
I4
I3
tp4421
(lp4422
F109.47122063449069
aF1
as(I9
I6
I5
tp4423
(lp4424
F120
aF1
asI22
(F-6.1916240174479462
F0.74045145996840234
F-1.5875660395352693
tp4425
sg1084
g1085
sg1086
g1087
s(I35
I19
I20
I21
tp4426
(lp4427
F180
aF1
aI0
as(I27
I3
I14
tp4428
(lp4429
F109.09999999999999
aF1
as(I31
I1
I2
tp4430
(lp4431
F109.47122063449069
aF1
as(I31
I1
tp4432
(lp4433
F0.94288300000000003
aF100
asg2388
g2389
s(I33
I4
I32
tp4434
(lp4435
F109.47122063449069
aF1
as(I17
I16
I15
tp4436
(lp4437
F109.09999999999999
aF1
as(I19
I18
I15
tp4438
(lp4439
F119.08223095312884
aF1
as(I27
I3
I2
tp4440
(lp4441
F109.09999999999999
aF1
asg2394
g2395
s(I5
I4
I3
tp4442
(lp4443
F108.129
aF1
as(I32
I4
I3
tp4444
(lp4445
F109.47122063449069
aF1
asg1127
g1128
s(I10
I9
tp4446
(lp4447
F1.6482159999999999
aF100
asg1189
g1190
s(I5
I4
tp4448
(lp4449
F1.398717
aF100
as(I30
I23
I24
I18
tp4450
(lp4451
F180
aF1
aI0
as(I16
I2
I1
tp4452
(lp4453
F109.09999999999999
aF1
as(I25
I24
I23
tp4454
(lp4455
F119.43885136624549
aF1
asg1212
g1213
sg2344
g2345
s(I32
I4
I5
tp4456
(lp4457
F109.47122063449069
aF1
as(I8
I6
I5
tp4458
(lp4459
F120
aF1
as(I35
I19
tp4460
(lp4461
F1.0833090000000001
aF100
as(I36
I20
tp4462
(lp4463
F1.0833090000000001
aF100
asg2356
g2357
s(I8
I6
I7
tp4464
(lp4465
F120
aF1
asg2322
g2323
s(I18
I15
I16
tp4466
(lp4467
F109.09999999999999
aF1
as(I35
I19
I18
tp4468
(lp4469
F120.75571647342275
aF1
as(I23
I21
I22
tp4470
(lp4471
F120.04951100492696
aF1
as(I35
I19
I20
tp4472
(lp4473
F120.75571647342275
aF1
asg2370
g2371
s(I8
I6
tp4474
(lp4475
F1.51
aF100
asg2348
g2349
sg2374
g2375
s(I30
I23
I21
tp4476
(lp4477
F119.81070877516768
aF1
asg2390
g2391
s(I6
I5
I4
tp4478
(lp4479
F118.45999999999999
aF1
asg2402
(lp4480
F0
aF10
aI0
asg2404
g2405
sg2334
g2335
s(I34
I17
I16
tp4481
(lp4482
F109.47122063449069
aF1
as(I30
I23
I24
tp4483
(lp4484
F119.81070877516768
aF1
as(I3
I2
I1
tp4485
(lp4486
F109.09999999999999
aF1
as(I10
I9
I6
tp4487
(lp4488
F123.64
aF1
asg1091
g1092
s(I4
I3
I2
tp4489
(lp4490
F109.09999999999999
aF1
as(I32
I4
tp4491
(lp4492
F1.0833090000000001
aF100
as(I9
I6
tp4493
(lp4494
F1.6482159999999999
aF100
asg2384
(lp4495
F0
aF10
aI0
as(I6
I5
tp4496
(lp4497
F1.6482159999999999
aF100
as(I9
I6
I8
tp4498
(lp4499
F120
aF1
as(I26
I2
I16
tp4500
(lp4501
F109.09999999999999
aF1
as(I36
I20
I21
tp4502
(lp4503
F120.86298142710825
aF1
asg2392
g2393
s(I25
I24
tp4504
(lp4505
F1.184607
aF100
as(I13
I10
I9
tp4506
(lp4507
F120
aF1
as(I36
I20
I19
tp4508
(lp4509
F120.86298142710825
aF1
as(I13
I10
I11
tp4510
(lp4511
F120
aF1
asg1134
g1135
sg1136
g1137
s(I34
I17
tp4512
(lp4513
F0.94288300000000003
aF100
asg2326
g2327
sg2364
(lp4514
F0
aF10
aI0
asg2372
(lp4515
F0
aF10
aI0
as(I7
I6
I5
tp4516
(lp4517
F120
aF1
asg1138
g1139
sg2386
g2387
sg1171
g1172
s(I12
I10
tp4518
(lp4519
F1.51
aF100
as(I17
I16
I2
tp4520
(lp4521
F109.09999999999999
aF1
as(I11
I10
I9
tp4522
(lp4523
F120
aF1
as(I22
I21
tp4524
(lp4525
F1.184607
aF100
asg2350
g2351
s(I29
I16
I2
tp4526
(lp4527
F109.09999999999999
aF1
asg2366
g2367
s(I11
I10
tp4528
(lp4529
F1.51
aF100
asg2336
g2337
s(I18
I15
I14
tp4530
(lp4531
F109.09999999999999
aF1
as(I30
I23
I21
I20
tp4532
(lp4533
F180
aF1
aI0
as(I14
I3
I4
tp4534
(lp4535
F109.09999999999999
aF1
as(I26
I2
I3
tp4536
(lp4537
F109.09999999999999
aF1
as(I22
I21
I20
tp4538
(lp4539
F120.04951100492696
aF1
asg2346
g2347
sg1075
g1076
s(I24
I18
I15
tp4540
(lp4541
F119.08223095312884
aF1
asg2400
(lp4542
F0
aF10
aI0
asg2338
g2339
stRp4543
(dp4544
g1100
(lp4545
sg1104
(dp4546
sg1102
(lp4547
F50
aF50
aF50
aF50
asS'plane_weights'
p4548
(lp4549
F0.02
asg1098
(dp4550
I1
I0
sI2
I1
sI3
I2
sI4
I3
sI5
I4
sI6
I5
sI7
I6
sI8
I7
sI9
I8
sI10
I9
sI11
I10
sI12
I11
sI13
I12
sI14
I13
sI15
I14
sI16
I15
sI17
I16
sI18
I17
sI19
I18
sI20
I19
sI21
I20
sI22
I21
sI23
I22
sI24
I23
sI25
I24
sI26
I25
sI27
I26
sI28
I27
sI29
I28
sI30
I29
sI31
I30
sI32
I31
sI33
I32
sI34
I33
sI35
I34
sI36
I35
ssS'planes'
p4551
(lp4552
(lp4553
g341
ag465
ag476
ag488
ag500
ag512
ag531
ag541
ag551
ag584
ag650
ag623
aasg1106
Nsg1107
(lp4554
g1109
ag1147
ag1184
ag1221
asg1113
I00
sbsg4551
(lp4555
sS'cctbx_energy_parameters'
p4556
(lp4557
F2
aF0.66666666666666663
aF1
aI1
a(I1
I1
I1
I1
tp4558
asg985
I01
sS'planar_indices'
p4559
(dp4560
(I18
I19
I20
I21
I23
I24
tp4561
I01
s(I14
I15
I16
I2
I3
tp4562
I00
ssb.