ccopy_reg
_reconstructor
p1
(celbow.chemistry.MoleculeClass
MoleculeClass
p2
c__builtin__
list
p3
(lp4
(ielbow.chemistry.AtomClass
AtomClass
p5
(dp6
S'tempFactor'
p7
F20
sS'tmp_id'
p8
I140420533115072
sS'pi_electrons'
p9
(I2
tp10
sS'starting_xyz'
p11
(ielbow.chemistry.xyzClass
xyzClass
p12
(dp13
S'dotProduct'
p14
I1
sS'angleScale'
p15
F57.295779513082323
sS'y'
F0
sS'x'
F1.339068127579383
sS'xyz'
p16
(F1.339068127579383
F0
F0
tp17
sS'z'
F0
sbsg16
(ielbow.chemistry.xyzClass
xyzClass
p18
(dp19
g14
I1
sg15
F57.295779513082323
sS'y'
F-1.020294581589793
sS'x'
F3.0416800026476065
sg16
(F3.0416800026476065
F-1.020294581589793
F-0.53291828742896319
tp20
sS'z'
F-0.53291828742896319
sbsS'pos'
p21
I0
sS'sign'
p22
S''
sS'ring_id'
p23
(lp24
sS'rotation_index'
p25
I0
sS'resName'
p26
S'UMP'
p27
sS'record_name'
p28
S'HETATM'
p29
sS'serial'
p30
S'    1'
p31
sS'id'
p32
I140420533115072
sS'bonded'
p33
(lp34
(ielbow.chemistry.AtomClass
AtomClass
p35
(dp36
g7
F20
sg8
I140420532998440
sg9
(I1
tp37
sg11
(ielbow.chemistry.xyzClass
xyzClass
p38
(dp39
g14
I1
sg15
F57.295779513082323
sS'y'
F0
sS'x'
F0
sg16
(F0
F0
F0
tp40
sS'z'
F0
sbsS'smiles_index'
p41
(lp42
I11
asg21
I2
sS'chiral_index'
p43
I1
sg22
S''
sg23
(lp44
sS'aromatic'
p45
I00
sg26
S'UMP'
p46
sS'exclude'
p47
I00
sg30
S'    2'
p48
sS'ring_atom'
p49
I1
sg32
I140420532998440
sg33
(lp50
g5
a(ielbow.chemistry.AtomClass
AtomClass
p51
(dp52
g7
F20
sg8
I140420472209560
sg9
g37
sg11
(ielbow.chemistry.xyzClass
xyzClass
p53
(dp54
g14
I1
sg15
F57.295779513082323
sS'y'
F0
sS'x'
F-0.53012800082685252
sg16
(F-0.53012800082685252
F0
F1.4410341799288695
tp55
sS'z'
F1.4410341799288695
sbsg16
(ielbow.chemistry.xyzClass
xyzClass
p56
(dp57
g14
I1
sg15
F57.295779513082323
sS'y'
F-1.0435748571910499
sS'x'
F1.1653469126112017
sg16
(F1.1653469126112017
F-1.0435748571910499
F0.89606906340281745
tp58
sS'z'
F0.89606906340281745
sbsg21
I7
sg22
S''
sg23
(lp59
sg45
I00
sg26
S'UMP'
p60
sg47
I00
sg30
S'    3'
p61
sg49
I1
sg32
I140420472209560
sg33
(lp62
g35
a(ielbow.chemistry.AtomClass
AtomClass
p63
(dp64
g7
F20
sg8
I140420531018064
sg9
g37
sg11
(ielbow.chemistry.xyzClass
xyzClass
p65
(dp66
g14
I1
sg15
F57.295779513082323
sS'y'
F1.2197185219461415
sS'x'
F-0.99743996531170676
sg16
(F-0.99743996531170676
F1.2197185219461415
F1.6451056937494304
tp67
sS'z'
F1.6451056937494304
sbsg41
(lp68
I6
asg21
I9
sg43
I2
sg22
S''
sg23
(lp69
sg45
I00
sg26
S'UMP'
p70
sg47
I00
sg30
S'    4'
p71
sg49
I1
sg32
I140420531018064
sg33
(lp72
g51
a(ielbow.chemistry.AtomClass
AtomClass
p73
(dp74
g7
F20
sg8
I140420642033536
sg9
g10
sg11
(ielbow.chemistry.xyzClass
xyzClass
p75
(dp76
g14
I1
sg15
F57.295779513082323
sS'y'
F1.7835270219835271
sS'x'
F-1.4354483889043521
sg16
(F-1.4354483889043521
F1.7835270219835271
F0.16443301128341692
tp77
sS'z'
F0.16443301128341692
sbsg16
(ielbow.chemistry.xyzClass
xyzClass
p78
(dp79
g14
I1
sg15
F57.295779513082323
sS'y'
F0.73891243060018263
sS'x'
F0.26105494764390036
sg16
(F0.26105494764390036
F0.73891243060018263
F-0.39514703882889141
tp80
sS'z'
F-0.39514703882889141
sbsg21
I15
sg22
S''
sg23
(lp81
sg45
I00
sg26
S'UMP'
p82
sg47
I00
sg30
S'    5'
p83
sg49
I1
sg32
I140420642033536
sg33
(lp84
(ielbow.chemistry.AtomClass
AtomClass
p85
(dp86
g7
F20
sg8
I140420472175864
sg9
g37
sg11
(ielbow.chemistry.xyzClass
xyzClass
p87
(dp88
g14
I1
sg15
F57.295779513082323
sS'y'
F1.335257022445147
sS'x'
F-0.54727563976074312
sg16
(F-0.54727563976074312
F1.335257022445147
F-0.65588145483208815
tp89
sS'z'
F-0.65588145483208815
sbsg41
(lp90
I9
asg21
I17
sg43
I3
sg22
S''
sg23
(lp91
sg45
I00
sg26
S'UMP'
p92
sg47
I00
sg30
S'    6'
p93
sg49
I1
sg32
I140420472175864
sg33
(lp94
g73
a(ielbow.chemistry.AtomClass
AtomClass
p95
(dp96
g7
F20
sg8
I140420642032456
sg9
g37
sg11
(ielbow.chemistry.xyzClass
xyzClass
p97
(dp98
g14
I1
sg15
F57.295779513082323
sS'y'
F1.0300687089612355
sS'x'
F-1.192101060578618
sg16
(F-1.192101060578618
F1.0300687089612355
F-2.0211292032523955
tp99
sS'z'
F-2.0211292032523955
sbsg16
(ielbow.chemistry.xyzClass
xyzClass
p100
(dp101
g14
I1
sg15
F57.295779513082323
sS'y'
F0.002470166131482765
sS'x'
F0.55369252029546701
sg16
(F0.55369252029546701
F0.002470166131482765
F-2.5861608311285011
tp102
sS'z'
F-2.5861608311285011
sbsg21
I23
sg22
S''
sg23
(lp103
sg25
I6
sg26
S'UMP'
p104
sg28
g29
sg30
S'    7'
p105
sg32
I140420642032456
sg33
(lp106
g85
a(ielbow.chemistry.AtomClass
AtomClass
p107
(dp108
g9
g10
sg11
(ielbow.chemistry.xyzClass
xyzClass
p109
(dp110
g14
I1
sg15
F57.295779513082323
sS'y'
F2.2157991865748015
sS'x'
F-1.2372528150438544
sg16
(F-1.2372528150438544
F2.2157991865748015
F-2.7617178066471175
tp111
sS'z'
F-2.7617178066471175
sbsg16
(ielbow.chemistry.xyzClass
xyzClass
p112
(dp113
g14
I1
sg15
F57.295779513082323
sS'y'
F1.2109949653484959
sS'x'
F0.10029915814360946
sg16
(F0.10029915814360946
F1.2109949653484959
F-3.1381057922741808
tp114
sS'z'
F-3.1381057922741808
sbsg21
I24
sg23
(lp115
sg25
I7
sS'hydrogenised'
p116
I01
sS'occupancy'
p117
F1
sS'charge'
p118
I0
sS'input_index'
p119
I7
sS'unique_residue_key'
p120
S'UMP:1:A:'
p121
sS'unique_residue_key_altloc'
p122
S'UMP:1:A:???'
p123
sg28
g29
sS'cif_index'
p124
I7
sS'number'
p125
I8
sS'original_serial'
p126
S'    8'
p127
sS'cif_energy_type'
p128
S'O2'
p129
sS'name'
p130
S' O08'
p131
sS'resSeq'
p132
I1
sS'original_index'
p133
I8
sS'iCode'
p134
S' '
sS'x'
F0.10029915814360946
sS'z'
F-3.1381057922741808
sg7
F20
sg8
I140420533092864
sg22
S''
sg41
(lp135
I13
asg26
S'UMP'
p136
sg30
S'    8'
p137
sg32
I140420533092864
sg33
(lp138
g95
a(ielbow.chemistry.AtomClass
AtomClass
p139
(dp140
g9
(I1
I2
tp141
sg11
(ielbow.chemistry.xyzClass
xyzClass
p142
(dp143
g14
I1
sg15
F57.295779513082323
sS'y'
F2.124884546042642
sS'x'
F-1.0828745759118039
sg16
(F-1.0828745759118039
F2.124884546042642
F-4.3999375510728154
tp144
sS'z'
F-4.3999375510728154
sbsg16
(ielbow.chemistry.xyzClass
xyzClass
p145
(dp146
g14
I1
sg15
F57.295779513082323
sS'y'
F1.2281308657311978
sS'x'
F-0.35082028427492817
sg16
(F-0.35082028427492817
F1.2281308657311978
F-4.7330136471213837
tp147
sS'z'
F-4.7330136471213837
sbsg21
I25
sg23
(lp148
sg25
I8
sg116
I01
sg117
F1
sg118
I0
sg119
I8
sg120
S'UMP:1:A:'
p149
sg122
S'UMP:1:A:???'
p150
sg28
g29
sg124
I8
sg125
I15
sg126
S'    9'
p151
sg128
S'P'
sg130
S' P09'
p152
sg132
I1
sg133
I9
sg134
S' '
sS'x'
F-0.35082028427492817
sS'z'
F-4.7330136471213837
sg7
F20
sg8
I140420532732344
sg22
S''
sg41
(lp153
I14
asg26
S'UMP'
p154
sg30
S'    9'
p155
sg32
I140420532732344
sg33
(lp156
g107
a(ielbow.chemistry.AtomClass
AtomClass
p157
(dp158
g9
g10
sg11
(ielbow.chemistry.xyzClass
xyzClass
p159
(dp160
g14
I0
sg15
F57.295779513082323
sS'y'
F3.4015239802934145
sS'x'
F-1.5926604957756743
sg16
(F-1.5926604957756743
F3.4015239802934145
F-5.0251621366507386
tp161
sS'z'
F-5.0251621366507386
sbsg16
(ielbow.chemistry.xyzClass
xyzClass
p162
(dp163
g14
I1
sg15
F57.295779513082323
sS'y'
F2.5056520227805867
sS'x'
F-1.0945842313238954
sg16
(F-1.0945842313238954
F2.5056520227805867
F-5.0351306406127456
tp164
sS'z'
F-5.0351306406127456
sbsg21
I27
sg23
(lp165
sg25
I9
sg116
I01
sg117
F1
sg118
I-1
sg119
I9
sg120
S'UMP:1:A:'
p166
sg122
S'UMP:1:A:???'
p167
sg28
g29
sg124
I9
sg125
I8
sg126
S'   10'
p168
sg128
S'OP'
p169
sg130
S' O10'
p170
sg132
I1
sg133
I10
sg134
S' '
sS'x'
F-1.0945842313238954
sS'z'
F-5.0351306406127456
sg7
F20
sg8
I140420533002112
sg22
S''
sg41
(lp171
I15
asg26
S'UMP'
p172
sg30
S'   10'
p173
sg32
I140420533002112
sg33
(lp174
g139
asS'index'
p175
I10
sS'pre_pdb_write_index'
p176
NsS'ph_removed_hydrogen'
p177
I01
sS'cip_done'
p178
S'140420470288064_4'
p179
sS'ring_id_backup'
p180
(lp181
sS'chainID'
p182
S'A'
sS'cif_name'
p183
g170
sS'symbol'
p184
S'O'
sS'segID'
p185
S'A'
sS'old_xyz'
p186
g162
sS'randomised'
p187
I01
sS'chiral'
p188
S''
sS'element'
p189
S'O'
sS'mass'
p190
F15.9994
sS'y'
F2.5056520227805867
sba(ielbow.chemistry.AtomClass
AtomClass
p191
(dp192
g9
g10
sg11
(ielbow.chemistry.xyzClass
xyzClass
p193
(dp194
g14
I0
sg15
F57.295779513082323
sS'y'
F0.9556347424050633
sS'x'
F-1.8859161001501392
sg16
(F-1.8859161001501392
F0.9556347424050633
F-4.9170113117162968
tp195
sS'z'
F-4.9170113117162968
sbsg16
(ielbow.chemistry.xyzClass
xyzClass
p196
(dp197
g14
I1
sg15
F57.295779513082323
sS'y'
F0.050460245040317542
sS'x'
F-1.2463965577867806
sg16
(F-1.2463965577867806
F0.050460245040317542
F-5.014775293266486
tp198
sS'z'
F-5.014775293266486
sbsg21
I30
sg23
(lp199
sg25
I10
sg116
I01
sg117
F1
sg118
I-1
sg119
I10
sg120
S'UMP:1:A:'
p200
sg122
S'UMP:1:A:???'
p201
sg28
g29
sg124
I10
sg125
I8
sg126
S'   11'
p202
sg128
S'OP'
p203
sg130
S' O11'
p204
sg132
I1
sg133
I11
sg134
S' '
sS'x'
F-1.2463965577867806
sS'z'
F-5.014775293266486
sg7
F20
sg8
I140420532014400
sg22
S''
sg41
(lp205
I16
asg26
S'UMP'
p206
sg30
S'   11'
p207
sg32
I140420532014400
sg33
(lp208
g139
asg175
I11
sg176
Nsg177
I01
sg178
g179
sg180
(lp209
sg182
S'A'
sg183
g204
sg184
S'O'
sg185
S'A'
sg186
g196
sg187
I01
sg188
S''
sg189
S'O'
sg190
F15.9994
sS'y'
F0.050460245040317542
sba(ielbow.chemistry.AtomClass
AtomClass
p210
(dp211
g9
g10
sg11
(ielbow.chemistry.xyzClass
xyzClass
p212
(dp213
g14
I0
sg15
F57.295779513082323
sS'y'
F1.934512149186481
sS'x'
F0.37158166969630169
sg16
(F0.37158166969630169
F1.934512149186481
F-4.7586913168640734
tp214
sS'z'
F-4.7586913168640734
sbsg16
(ielbow.chemistry.xyzClass
xyzClass
p215
(dp216
g14
I1
sg15
F57.295779513082323
sS'y'
F1.1444033480003621
sS'x'
F0.87745077245044423
sg16
(F0.87745077245044423
F1.1444033480003621
F-5.6010972590784522
tp217
sS'z'
F-5.6010972590784522
sbsg21
I33
sg23
(lp218
sg25
I11
sg116
I01
sg117
F1
sg118
I0
sg119
I11
sg120
S'UMP:1:A:'
p219
sg122
S'UMP:1:A:???'
p220
sg28
g29
sg124
I11
sg125
I8
sg126
S'   12'
p221
sg128
S'O'
sg130
S' O12'
p222
sg132
I1
sg133
I12
sg134
S' '
sS'x'
F0.87745077245044423
sS'z'
F-5.6010972590784522
sg7
F20
sg8
I140420533000312
sg22
S''
sg41
(lp223
I17
asg26
S'UMP'
p224
sg30
S'   12'
p225
sg32
I140420533000312
sg33
(lp226
g139
asg175
I12
sg176
Nsg178
g179
sg180
(lp227
sg182
S'A'
sg183
g222
sg184
S'O'
sg185
S'A'
sg186
g215
sg187
I01
sg188
S''
sg189
S'O'
sg190
F15.9994
sS'y'
F1.1444033480003621
sbasg175
I9
sg176
Nsg178
S'140420470288064_4'
p228
sg180
(lp229
sg182
S'A'
sg183
g152
sg184
S'P'
sg185
S'A'
sg186
g145
sg187
I01
sg188
S''
sg189
S'P'
sg190
F30.973759999999999
sS'y'
F1.2281308657311978
sbasg175
I8
sg176
Nsg178
S'140420470288064_4'
p230
sg180
(lp231
sg182
S'A'
sg183
g131
sg184
S'O'
sg185
S'A'
sg186
g112
sg187
I01
sg188
S''
sg189
S'O'
sg190
F15.9994
sS'y'
F1.2109949653484959
sba(ielbow.chemistry.AtomClass
AtomClass
p232
(dp233
g180
(lp234
sg182
S'A'
sg183
S'H071'
p235
sg9
Nsg124
I27
sg7
F20
sg11
(ielbow.chemistry.xyzClass
xyzClass
p236
(dp237
g14
I0
sg15
F57.295779513082323
sS'y'
F0.29270545609451482
sS'x'
F-0.59893403002262824
sg16
(F-0.59893403002262824
F0.29270545609451482
F-2.548392606746511
tp238
sS'z'
F-2.548392606746511
sbsg16
(ielbow.chemistry.xyzClass
xyzClass
p239
(dp240
g14
I1
sg15
F57.295779513082323
sS'y'
F-0.44354518322027303
sS'x'
F1.3155303460996668
sg16
(F1.3155303460996668
F-0.44354518322027303
F-3.246912471446008
tp241
sS'z'
F-3.246912471446008
sbsg125
I1
sg22
S''
sg23
(lp242
sg8
I140419951981200
sg25
I27
sg120
S'UMP:1:A:'
p243
sg26
S'UMP'
p244
sg28
g29
sg30
S'   28'
p245
sg185
S'A'
sg186
g239
sg32
I140419951981200
sg33
(lp246
g95
asg188
S''
sg175
I28
sg176
Nsg128
S'HCH2'
p247
sg187
I01
sg130
g235
sg132
I1
sg133
I28
sg116
I01
sg117
F1
sg189
S'H'
sg118
I0
sg134
S' '
sg190
F1.0079
sg119
I27
sS'y'
F-0.44354518322027303
sS'x'
F1.3155303460996668
sg126
S'   28'
p248
sS'z'
F-3.246912471446008
sg184
S'H'
sg122
S'UMP:1:A:???'
p249
sba(ielbow.chemistry.AtomClass
AtomClass
p250
(dp251
g180
(lp252
sg182
S'A'
sg183
S'H072'
p253
sg9
Nsg124
I28
sg7
F20
sg11
(ielbow.chemistry.xyzClass
xyzClass
p254
(dp255
g14
I0
sg15
F57.295779513082323
sS'y'
F0.6530018674571112
sS'x'
F-2.1969788973024342
sg16
(F-2.1969788973024342
F0.6530018674571112
F-1.8741614524348518
tp256
sS'z'
F-1.8741614524348518
sbsg16
(ielbow.chemistry.xyzClass
xyzClass
p257
(dp258
g14
I1
sg15
F57.295779513082323
sS'y'
F-0.67290036260213482
sS'x'
F-0.26726810042541405
sg16
(F-0.26726810042541405
F-0.67290036260213482
F-2.4757297260147588
tp259
sS'z'
F-2.4757297260147588
sbsg125
I1
sg22
S''
sg23
(lp260
sg8
I140419951984296
sg25
I28
sg120
S'UMP:1:A:'
p261
sg26
S'UMP'
p262
sg28
g29
sg30
S'   29'
p263
sg185
S'A'
sg186
g257
sg32
I140419951984296
sg33
(lp264
g95
asg188
S''
sg175
I29
sg176
Nsg128
g247
sg187
I01
sg130
g253
sg132
I1
sg133
I29
sg116
I01
sg117
F1
sg189
S'H'
sg118
I0
sg134
S' '
sg190
F1.0079
sg119
I28
sS'y'
F-0.67290036260213482
sS'x'
F-0.26726810042541405
sg126
S'   29'
p265
sS'z'
F-2.4757297260147588
sg184
S'H'
sg122
S'UMP:1:A:???'
p266
sbasg175
I7
sg176
NsS'cip_priority'
p267
I2
sg116
I01
sg117
F1
sg118
I0
sg119
I6
sg178
S'140420470288064_4'
p268
sg41
(lp269
I12
asg122
S'UMP:1:A:???'
p270
sg180
(lp271
sS'junk'
p272
(ielbow.chemistry.xyzClass
xyzClass
p273
(dp274
g14
I1
sg15
F57.295779513082323
sS'y'
F1.1543153374079191
sS'x'
F-0.74415853588647529
sg16
(F-0.74415853588647529
F1.1543153374079191
F-1.0379713321149975
tp275
sS'z'
F-1.0379713321149975
sbsg182
S'A'
sg183
S' C07'
p276
sg124
I6
sg184
S'C'
sg125
I6
sg185
S'A'
sg126
S'    7'
p277
sg120
S'UMP:1:A:'
p278
sg128
S'CH2'
p279
sg186
g100
sg130
g276
sg187
I01
sg188
S''
sg132
I1
sg133
I7
sg189
S'C'
sg134
S' '
sg190
F12.010999999999999
sS'y'
F0.002470166131482765
sS'x'
F0.55369252029546701
sS'z'
F-2.5861608311285011
sS'cip_levels'
p280
g1
(celbow.chemistry.CIPMixins
PriorityClass
p281
g3
(lp282
I6
a(lp283
I8
aa(lp284
I15
aa(lp285
I8
aI8
aI8
aI8
aa(lp286
a(lp287
a(lp288
atRp289
sbag35
a(ielbow.chemistry.AtomClass
AtomClass
p290
(dp291
g7
F20
sg8
I140420649306880
sg9
Nsg11
(ielbow.chemistry.xyzClass
xyzClass
p292
(dp293
g14
I1
sg15
F57.295779513082323
sS'y'
F2.0537904977761734
sS'x'
F0.25595201532542233
sg16
(F0.25595201532542233
F2.0537904977761734
F-0.76585130713033078
tp294
sS'z'
F-0.76585130713033078
sbsg41
(lp295
I10
asg125
I1
sg22
S''
sg23
(lp296
sg25
I22
sg26
S'UMP'
p297
sg28
g29
sg30
S'   23'
p298
sg32
I140420649306880
sg33
(lp299
g85
asg175
I23
sg176
Nsg267
I0
sg116
I01
sg117
F1
sg118
I0
sg119
I22
sg178
S'140420470288064_2'
p300
sg16
(ielbow.chemistry.xyzClass
xyzClass
p301
(dp302
g14
I1
sg15
F57.295779513082323
sS'y'
F1.0312476997617785
sS'x'
F1.9783517324279514
sg16
(F1.9783517324279514
F1.0312476997617785
F-1.3010192790489699
tp303
sS'z'
F-1.3010192790489699
sbsg122
S'UMP:1:A:???'
p304
sg180
(lp305
sg272
(ielbow.chemistry.xyzClass
xyzClass
p306
(dp307
g14
I1
sg15
F57.295779513082323
sS'y'
F-0.048148397064269322
sS'x'
F-0.013971180322136401
sg16
(F-0.013971180322136401
F-0.048148397064269322
F-0.048909762907438703
tp308
sS'z'
F-0.048909762907438703
sbsg182
S'A'
sg183
S'H061'
p309
sS'original_hydrogen'
p310
I01
sg124
I22
sg184
S'H'
sg185
S'A'
sg126
S'   23'
p311
sg120
S'UMP:1:A:'
p312
sg128
S'HCR5'
p313
sg186
g301
sg130
g309
sg187
I01
sg188
S''
sg132
I1
sg133
I23
sS'added_for_chiral'
p314
I01
sg189
S'H'
sg134
S' '
sg190
F1.0079
sS'y'
F1.0312476997617785
sS'x'
F1.9783517324279514
sS'z'
F-1.3010192790489699
sg280
g1
(g281
g3
(lp315
I1
a(lp316
a(lp317
a(lp318
a(lp319
a(lp320
a(lp321
atRp322
sbasg175
I6
sg176
Nsg267
I2
sg116
I01
sS'overlap'
p323
I01
sg118
I0
sg132
I1
sg119
I5
sg16
(ielbow.chemistry.xyzClass
xyzClass
p324
(dp325
g14
I1
sg15
F57.295779513082323
sS'y'
F0.29977547449983377
sS'x'
F1.1712635268792866
sg16
(F1.1712635268792866
F0.29977547449983377
F-1.2091907287976311
tp326
sS'z'
F-1.2091907287976311
sbsg117
F1
sg180
(lp327
sg272
(ielbow.chemistry.xyzClass
xyzClass
p328
(dp329
g14
I1
sg15
F57.295779513082323
sS'y'
F-0.048148535237831434
sS'x'
F-0.013971235142165002
sg16
(F-0.013971235142165002
F-0.048148535237831434
F-0.04890984761531627
tp330
sS'z'
F-0.04890984761531627
sbsg182
S'A'
sg183
S' C06'
p331
sS'bond_symbol'
p332
S'-'
sg124
I5
sg28
g29
sg184
S'C'
sS'bond_order'
p333
I1
sg125
I6
sg185
S'A'
sg126
S'    6'
p334
sg120
S'UMP:1:A:'
p335
sg128
S'CR15'
p336
sg186
g324
sg130
g331
sg187
I01
sg188
S'@'
sS'alternating_ring_index'
p337
I0
sS'ring_bonded'
p338
(lp339
g73
ag35
asS'ring_index'
p340
I1
sg189
S'C'
sg134
S' '
sg190
F12.010999999999999
sg122
S'UMP:1:A:???'
p341
sS'ring_indices_list'
p342
(lp343
I0
asS'y'
F0.29977547449983377
sS'x'
F1.1712635268792866
sS'z'
F-1.2091907287976311
sg280
g1
(g281
g3
(ltRp344
sg133
I6
sg25
I5
sbag63
asg175
I5
sg176
Nsg267
I3
sg116
I01
sg323
I01
sg118
I0
sg132
I1
sg119
I4
sg178
S'140420470288064_3'
p345
sg41
(lp346
I8
asg117
F1
sg180
(lp347
sg272
(ielbow.chemistry.xyzClass
xyzClass
p348
(dp349
g14
I1
sg15
F57.295779513082323
sS'y'
F-0.36193106314169304
sS'x'
F-0.72536695079415048
sg16
(F-0.72536695079415048
F-0.36193106314169304
F1.4124936316954388
tp350
sS'z'
F1.4124936316954388
sbsg182
S'A'
sg183
S' O05'
p351
sg124
I4
sg28
g29
sg184
S'O'
sg125
I8
sg185
S'A'
sg126
S'    5'
p352
sg120
S'UMP:1:A:'
p353
sg128
S'O'
sg186
g78
sg130
g351
sg187
I01
sg188
S''
sg337
I1
sg338
(lp354
g63
ag85
asg340
I1
sg189
S'O'
sg134
S' '
sg190
F15.9994
sg122
S'UMP:1:A:???'
p355
sg342
(lp356
I0
asS'y'
F0.73891243060018263
sS'x'
F0.26105494764390036
sS'z'
F-0.39514703882889141
sg280
g1
(g281
g3
(lp357
I8
a(lp358
I6
aa(lp359
I7
aI6
aI1
aa(lp360
I6
aI6
aI6
aa(lp361
I6
aI8
aI8
aI7
aI8
aI1
aa(lp362
I6
aI1
aa(lp363
I8
aI8
aatRp364
sg133
I5
sg25
I4
sba(ielbow.chemistry.AtomClass
AtomClass
p365
(dp366
g7
F20
sg8
I140420532547952
sg9
(I1
I2
tp367
sg11
(ielbow.chemistry.xyzClass
xyzClass
p368
(dp369
g14
I1
sg15
F57.295779513082323
sS'y'
F1.1736922629651259
sS'x'
F-2.1237344266158757
sg16
(F-2.1237344266158757
F1.1736922629651259
F2.5022828388914458
tp370
sS'z'
F2.5022828388914458
sbsg41
(lp371
I27
asg21
I35
sg22
S''
sg23
(lp372
sg45
I01
sg26
S'UMP'
p373
sg47
I00
sg30
S'   13'
p374
sg49
I2
sg32
I140420532547952
sg33
(lp375
g63
a(ielbow.chemistry.AtomClass
AtomClass
p376
(dp377
g7
F20
sg8
I140420532012600
sg9
g37
sg11
(ielbow.chemistry.xyzClass
xyzClass
p378
(dp379
g14
I1
sg15
F57.295779513082323
sS'y'
F0.14530240208220091
sS'x'
F-2.9508052283520456
sg16
(F-2.9508052283520456
F0.14530240208220091
F2.4218359555145805
tp380
sS'z'
F2.4218359555145805
sbsg16
(ielbow.chemistry.xyzClass
xyzClass
p381
(dp382
g14
I1
sg15
F57.295779513082323
sS'y'
F-0.27655743167142743
sS'x'
F-0.29277189860934638
sg16
(F-0.29277189860934638
F-0.27655743167142743
F3.1953221316979845
tp383
sS'z'
F3.1953221316979845
sbsg21
I37
sg22
S''
sg23
(lp384
sg45
I01
sg26
S'UMP'
p385
sg47
I00
sg30
S'   14'
p386
sg49
I2
sg32
I140420532012600
sg33
(lp387
g365
a(ielbow.chemistry.AtomClass
AtomClass
p388
(dp389
g7
F20
sg8
I140420533173064
sg9
g37
sg11
(ielbow.chemistry.xyzClass
xyzClass
p390
(dp391
g14
I1
sg15
F57.295779513082323
sS'y'
F0.096001158465542524
sS'x'
F-4.0297592352800784
sg16
(F-4.0297592352800784
F0.096001158465542524
F3.2893890226366165
tp392
sS'z'
F3.2893890226366165
sbsg16
(ielbow.chemistry.xyzClass
xyzClass
p393
(dp394
g14
I1
sg15
F57.295779513082323
sS'y'
F-0.25100733792908048
sS'x'
F-1.3873221464513441
sg16
(F-1.3873221464513441
F-0.25100733792908048
F4.0335966750670904
tp395
sS'z'
F4.0335966750670904
sbsg21
I38
sg22
S''
sg23
(lp396
sg45
I01
sg26
S'UMP'
p397
sg47
I00
sg30
S'   15'
p398
sg49
I2
sg32
I140420533173064
sg33
(lp399
g376
a(ielbow.chemistry.AtomClass
AtomClass
p400
(dp401
g7
F20
sg8
I140420533002040
sg9
g37
sg11
(ielbow.chemistry.xyzClass
xyzClass
p402
(dp403
g14
I1
sg15
F57.295779513082323
sS'y'
F1.1286836882886098
sS'x'
F-4.1880150108051755
sg16
(F-4.1880150108051755
F1.1286836882886098
F4.1992183576330362
tp404
sS'z'
F4.1992183576330362
sbsg16
(ielbow.chemistry.xyzClass
xyzClass
p405
(dp406
g14
I1
sg15
F57.295779513082323
sS'y'
F0.18072793490169903
sS'x'
F-2.6035561915717191
sg16
(F-2.6035561915717191
F0.18072793490169903
F3.5163430225435146
tp407
sS'z'
F3.5163430225435146
sbsg21
I39
sg22
S''
sg23
(lp408
sg45
I01
sg26
S'UMP'
p409
sg47
I00
sg30
S'   16'
p410
sg49
I2
sg32
I140420533002040
sg33
(lp411
g388
a(ielbow.chemistry.AtomClass
AtomClass
p412
(dp413
g9
g10
sg11
(ielbow.chemistry.xyzClass
xyzClass
p414
(dp415
g14
I0
sg15
F57.295779513082323
sS'y'
F1.1174347316712185
sS'x'
F-5.0988865203196161
sg16
(F-5.0988865203196161
F1.1174347316712185
F4.9568661074156459
tp416
sS'z'
F4.9568661074156459
sbsg16
(ielbow.chemistry.xyzClass
xyzClass
p417
(dp418
g14
I1
sg15
F57.295779513082323
sS'y'
F0.35844681747240026
sS'x'
F-3.529226980383807
sg16
(F-3.529226980383807
F0.35844681747240026
F4.2483346146324807
tp419
sS'z'
F4.2483346146324807
sbsg21
I42
sg23
(lp420
sg25
I16
sg116
I01
sg117
F1
sg118
I0
sg119
I16
sg120
S'UMP:1:A:'
p421
sg122
S'UMP:1:A:???'
p422
sg28
g29
sg124
I16
sg125
I8
sg126
S'   17'
p423
sg128
S'O'
sg130
S' O17'
p424
sg132
I1
sg133
I17
sg134
S' '
sS'x'
F-3.529226980383807
sS'z'
F4.2483346146324807
sg7
F20
sg8
I140420532035168
sg22
S''
sg41
(lp425
I23
asg26
S'UMP'
p426
sg30
S'   17'
p427
sg32
I140420532035168
sg33
(lp428
g400
asg175
I17
sg176
Nsg178
S'140420470288064_0'
p429
sg180
(lp430
sg182
S'A'
sg183
g424
sg184
S'O'
sg185
S'A'
sg186
g417
sg187
I01
sg188
S''
sg189
S'O'
sg190
F15.9994
sS'y'
F0.35844681747240026
sba(ielbow.chemistry.AtomClass
AtomClass
p431
(dp432
g7
F20
sg8
I140420532034808
sg9
g367
sg11
(ielbow.chemistry.xyzClass
xyzClass
p433
(dp434
g14
I1
sg15
F57.295779513082323
sS'y'
F2.1254791893901075
sS'x'
F-3.3206162418281746
sg16
(F-3.3206162418281746
F2.1254791893901075
F4.2220759097367457
tp435
sS'z'
F4.2220759097367457
sbsg41
(lp436
I24
asg21
I45
sg22
S''
sg23
(lp437
sg45
I01
sg26
S'UMP'
p438
sg47
I00
sg30
S'   18'
p439
sg49
I2
sg32
I140420532034808
sg33
(lp440
g400
a(ielbow.chemistry.AtomClass
AtomClass
p441
(dp442
g7
F20
sg8
I140420532034736
sg9
g37
sg11
(ielbow.chemistry.xyzClass
xyzClass
p443
(dp444
g14
I1
sg15
F57.295779513082323
sS'y'
F2.1438344567748762
sS'x'
F-2.3014398215065315
sg16
(F-2.3014398215065315
F2.1438344567748762
F3.3813554540874322
tp445
sS'z'
F3.3813554540874322
sbsg41
(lp446
I19
aI26
asg21
I48
sg22
S''
sg23
(lp447
sg45
I01
sg26
S'UMP'
p448
sg47
I00
sg30
S'   19'
p449
sg49
I2
sg32
I140420532034736
sg33
(lp450
g431
a(ielbow.chemistry.AtomClass
AtomClass
p451
(dp452
g9
g10
sg11
(ielbow.chemistry.xyzClass
xyzClass
p453
(dp454
g14
I0
sg15
F57.295779513082323
sS'y'
F3.0617515097736128
sS'x'
F-1.5530786122025317
sg16
(F-1.5530786122025317
F3.0617515097736128
F3.3941418197761957
tp455
sS'z'
F3.3941418197761957
sbsg16
(ielbow.chemistry.xyzClass
xyzClass
p456
(dp457
g14
I1
sg15
F57.295779513082323
sS'y'
F0.96091360103979362
sS'x'
F-1.6850540742301758
sg16
(F-1.6850540742301758
F0.96091360103979362
F0.36022433641567297
tp458
sS'z'
F0.36022433641567297
sbsg21
I51
sg23
(lp459
sg25
I19
sg116
I01
sg117
F1
sg118
I0
sg119
I19
sg120
S'UMP:1:A:'
p460
sg122
S'UMP:1:A:???'
p461
sg28
g29
sg124
I19
sg125
I8
sg126
S'   20'
p462
sg128
S'O'
sg130
S' O20'
p463
sg132
I1
sg133
I20
sg134
S' '
sS'x'
F-1.6850540742301758
sS'z'
F0.36022433641567297
sg7
F20
sg8
I140420532033800
sg22
S''
sg41
(lp464
I28
asg26
S'UMP'
p465
sg30
S'   20'
p466
sg32
I140420532033800
sg33
(lp467
g441
asg175
I20
sg176
Nsg178
S'140420470288064_3'
p468
sg180
(lp469
sg182
S'A'
sg183
g463
sg184
S'O'
sg185
S'A'
sg186
g456
sg187
I01
sg188
S''
sg189
S'O'
sg190
F15.9994
sS'y'
F0.96091360103979362
sbag365
asg175
I19
sg176
NsS'double_bond'
p470
I01
sg116
I01
sg323
I01
sg118
I0
sg132
I1
sg119
I18
sg178
S'140420470288064_3'
p471
sg16
(ielbow.chemistry.xyzClass
xyzClass
p472
(dp473
g14
I1
sg15
F57.295779513082323
sS'y'
F0.51487923444555017
sS'x'
F-1.6157140902592988
sg16
(F-1.6157140902592988
F0.51487923444555017
F1.4765855389026714
tp474
sS'z'
F1.4765855389026714
sbsg117
F1
sg180
(lp475
sg182
S'A'
sg183
S' C19'
p476
sg332
S'-'
sg124
I18
sg28
g29
sg184
S'c'
sg333
I1
sg125
I6
sg185
S'A'
sg126
S'   19'
p477
sg120
S'UMP:1:A:'
p478
sg128
S'CR6'
p479
sg186
g472
sg130
g476
sg187
I01
sg188
S''
sg337
I1
sg338
(lp480
g431
ag365
asg340
I2
sg189
S'C'
sg134
S' '
sg190
F12.010999999999999
sS'zmatrix_index'
p481
I6
sg342
(lp482
I0
asS'y'
F0.51487923444555017
sS'x'
F-1.6157140902592988
sS'z'
F1.4765855389026714
sg133
I19
sg122
S'UMP:1:A:???'
p483
sg25
I18
sba(ielbow.chemistry.AtomClass
AtomClass
p484
(dp485
g9
Nsg11
(ielbow.chemistry.xyzClass
xyzClass
p486
(dp487
g14
I0
sg15
F57.295779513082323
sS'y'
F2.8707496224589932
sS'x'
F-3.4363679666185156
sg16
(F-3.4363679666185156
F2.8707496224589932
F4.8799772767374359
tp488
sS'z'
F4.8799772767374359
sbsg41
(lp489
I25
asg125
I1
sg23
(lp490
sg25
I23
sg116
I01
sg117
F1
sg118
I0
sg119
I23
sg120
S'UMP:1:A:'
p491
sg122
S'UMP:1:A:???'
p492
sg28
g29
sg124
I23
sg126
S'   24'
p493
sg128
S'HNR6'
p494
sg130
S'H181'
p495
sg132
I1
sg133
I24
sg314
I01
sg134
S' '
sS'x'
F-3.5609642186428405
sS'z'
F1.8868330690699584
sg16
(ielbow.chemistry.xyzClass
xyzClass
p496
(dp497
g14
I1
sg15
F57.295779513082323
sS'y'
F0.86068129646328462
sS'x'
F-3.5609642186428405
sg16
(F-3.5609642186428405
F0.86068129646328462
F1.8868330690699584
tp498
sS'z'
F1.8868330690699584
sbsg7
F20
sg8
I140420532706336
sg22
S''
sg26
S'UMP'
p499
sg30
S'   24'
p500
sg32
I140420532706336
sg33
(lp501
g431
asg175
I24
sg176
Nsg178
S'140420470288064_0'
p502
sg180
(lp503
sg182
S'A'
sg183
g495
sg310
I01
sg184
S'H'
sg185
S'A'
sg186
g496
sg187
I01
sg188
S''
sg189
S'H'
sg190
F1.0079
sS'y'
F0.86068129646328462
sbasg175
I18
sg176
Nsg116
I01
sg323
I01
sg118
I0
sg132
I1
sg119
I17
sg178
g468
sg16
(ielbow.chemistry.xyzClass
xyzClass
p504
(dp505
g14
I1
sg15
F57.295779513082323
sS'y'
F0.55073540081055605
sS'x'
F-2.6852670769934233
sg16
(F-2.6852670769934233
F0.55073540081055605
F2.2563506551746695
tp506
sS'z'
F2.2563506551746695
sbsg117
F1
sg180
(lp507
sg182
S'A'
sg183
S' N18'
p508
sg124
I17
sg28
g29
sg184
S'n'
sg125
I7
sg185
S'A'
sg126
S'   18'
p509
sg120
S'UMP:1:A:'
p510
sg128
S'NR16'
p511
sg186
g504
sg130
g508
sg187
I01
sg188
S''
sg337
I0
sg338
(lp512
g400
ag441
asg340
I2
sg189
S'N'
sg134
S' '
sg190
F14.0067
sg481
I5
sg342
(lp513
I0
asS'y'
F0.55073540081055605
sS'x'
F-2.6852670769934233
sS'z'
F2.2563506551746695
sg133
I18
sg122
S'UMP:1:A:???'
p514
sg25
I17
sbasg175
I16
sg176
Nsg470
I01
sg116
I01
sg323
I01
sg118
I0
sg132
I1
sg119
I15
sg178
g502
sg41
(lp515
I22
asg117
F1
sg180
(lp516
sg182
S'A'
sg183
S' C16'
p517
sg124
I15
sg28
g29
sg184
S'c'
sg125
I6
sg185
S'A'
sg126
S'   16'
p518
sg120
S'UMP:1:A:'
p519
sg128
g479
sg186
g405
sg130
g517
sg187
I01
sg188
S''
sg337
I1
sg338
(lp520
g388
ag431
asg340
I2
sg189
S'C'
sg134
S' '
sg190
F12.010999999999999
sg481
I4
sg342
(lp521
I0
asS'y'
F0.18072793490169903
sS'x'
F-2.6035561915717191
sS'z'
F3.5163430225435146
sg133
I16
sg122
S'UMP:1:A:???'
p522
sg25
I15
sba(ielbow.chemistry.AtomClass
AtomClass
p523
(dp524
g180
(lp525
sg182
S'A'
sg183
S'H151'
p526
sg9
Nsg124
I30
sg7
F20
sg11
(ielbow.chemistry.xyzClass
xyzClass
p527
(dp528
g14
I0
sg15
F57.295779513082323
sS'y'
F-0.72866395195965861
sS'x'
F-4.7315057077567619
sg16
(F-4.7315057077567619
F-0.72866395195965861
F3.257175151479597
tp529
sS'z'
F3.257175151479597
sbsg16
(ielbow.chemistry.xyzClass
xyzClass
p530
(dp531
g14
I1
sg15
F57.295779513082323
sS'y'
F-0.56033456498240564
sS'x'
F-1.3019387871979462
sg16
(F-1.3019387871979462
F-0.56033456498240564
F5.0728926049468841
tp532
sS'z'
F5.0728926049468841
sbsg125
I1
sg22
S''
sg23
(lp533
sg8
I140419951984368
sg25
I30
sg120
S'UMP:1:A:'
p534
sg26
S'UMP'
p535
sg28
g29
sg30
S'   31'
p536
sg185
S'A'
sg186
g530
sg32
I140419951984368
sg33
(lp537
g388
asg188
S''
sg175
I31
sg176
Nsg128
S'HCR6'
p538
sg187
I01
sg130
g526
sg132
I1
sg133
I31
sg116
I01
sg117
F1
sg189
S'H'
sg118
I0
sg134
S' '
sg190
F1.0079
sg119
I32
sS'y'
F-0.56033456498240564
sS'x'
F-1.3019387871979462
sg126
S'   31'
p539
sS'z'
F5.0728926049468841
sg184
S'H'
sg122
S'UMP:1:A:???'
p540
sbasg175
I15
sg176
Nsg116
I01
sg323
I01
sg118
I0
sg132
I1
sg119
I14
sg178
g468
sg41
(lp541
I21
asg117
F1
sg180
(lp542
sg182
S'A'
sg183
S' C15'
p543
sg124
I14
sg28
g29
sg184
S'c'
sg125
I6
sg185
S'A'
sg126
S'   15'
p544
sg120
S'UMP:1:A:'
p545
sg128
S'CR16'
p546
sg186
g393
sg130
g543
sg187
I01
sg188
S''
sg337
I0
sg338
(lp547
g376
ag400
asg340
I2
sg189
S'C'
sg134
S' '
sg190
F12.010999999999999
sg481
I3
sg342
(lp548
I0
asS'y'
F-0.25100733792908048
sS'x'
F-1.3873221464513441
sS'z'
F4.0335966750670904
sg133
I15
sg122
S'UMP:1:A:???'
p549
sg25
I14
sba(ielbow.chemistry.AtomClass
AtomClass
p550
(dp551
g180
(lp552
sg182
S'A'
sg183
S'H141'
p553
sg9
Nsg124
I29
sg7
F20
sg11
(ielbow.chemistry.xyzClass
xyzClass
p554
(dp555
g14
I0
sg15
F57.295779513082323
sS'y'
F-0.64073410759802885
sS'x'
F-2.788601148500141
sg16
(F-2.788601148500141
F-0.64073410759802885
F1.6942407167931339
tp556
sS'z'
F1.6942407167931339
sbsg16
(ielbow.chemistry.xyzClass
xyzClass
p557
(dp558
g14
I1
sg15
F57.295779513082323
sS'y'
F-0.60632801770647216
sS'x'
F0.67506777856633704
sg16
(F0.67506777856633704
F-0.60632801770647216
F3.5587701424743825
tp559
sS'z'
F3.5587701424743825
sbsg125
I1
sg22
S''
sg23
(lp560
sg8
I140419951983936
sg25
I29
sg120
S'UMP:1:A:'
p561
sg26
S'UMP'
p562
sg28
g29
sg30
S'   30'
p563
sg185
S'A'
sg186
g557
sg32
I140419951983936
sg33
(lp564
g376
asg188
S''
sg175
I30
sg176
Nsg128
g538
sg187
I01
sg130
g553
sg132
I1
sg133
I30
sg116
I01
sg117
F1
sg189
S'H'
sg118
I0
sg134
S' '
sg190
F1.0079
sg119
I31
sS'y'
F-0.60632801770647216
sS'x'
F0.67506777856633704
sg126
S'   30'
p565
sS'z'
F3.5587701424743825
sg184
S'H'
sg122
S'UMP:1:A:???'
p566
sbasg175
I14
sg176
Nsg116
I01
sg323
I01
sg118
I0
sg132
I1
sg119
I13
sg178
g471
sg41
(lp567
I20
asg117
F1
sg180
(lp568
sg182
S'A'
sg183
S' C14'
p569
sg124
I13
sg28
g29
sg184
S'c'
sg125
I6
sg185
S'A'
sg126
S'   14'
p570
sg120
S'UMP:1:A:'
p571
sg128
g546
sg186
g381
sg130
g569
sg187
I01
sg188
S''
sg337
I1
sg338
(lp572
g365
ag388
asg340
I2
sg189
S'C'
sg134
S' '
sg190
F12.010999999999999
sg481
I2
sg342
(lp573
I0
asS'y'
F-0.27655743167142743
sS'x'
F-0.29277189860934638
sS'z'
F3.1953221316979845
sg133
I14
sg122
S'UMP:1:A:???'
p574
sg25
I13
sbag441
asg175
I13
sg176
Nsg267
I2
sg116
I01
sg323
I01
sg118
I0
sg132
I1
sg119
I12
sg178
g345
sg16
(ielbow.chemistry.xyzClass
xyzClass
p575
(dp576
g14
I1
sg15
F57.295779513082323
sS'y'
F0.10991044162939789
sS'x'
F-0.44899956111925832
sg16
(F-0.44899956111925832
F0.10991044162939789
F1.9397347070683812
tp577
sS'z'
F1.9397347070683812
sbsg117
F1
sg180
(lp578
sg272
(ielbow.chemistry.xyzClass
xyzClass
p579
(dp580
g14
I1
sg15
F57.295779513082323
sS'y'
F1.0057049300710217
sS'x'
F-0.35468358604752442
sg16
(F-0.35468358604752442
F1.0057049300710217
F-0.52001860360543706
tp581
sS'z'
F-0.52001860360543706
sbsg182
S'A'
sg183
S' N13'
p582
sg332
S'-'
sg124
I12
sg28
g29
sg184
S'n'
sg333
I1
sg125
I7
sg185
S'A'
sg126
S'   13'
p583
sg120
S'UMP:1:A:'
p584
sg128
S'NR6'
p585
sg186
g575
sg130
g582
sg187
I01
sg188
S''
sg337
I0
sg338
(lp586
g441
ag376
asg340
I2
sg189
S'N'
sg134
S' '
sg190
F14.0067
sg481
I1
sg342
(lp587
I0
asS'y'
F0.10991044162939789
sS'x'
F-0.44899956111925832
sS'z'
F1.9397347070683812
sg280
g1
(g281
g3
(lp588
I7
a(lp589
I6
aI6
aa(lp590
I6
aI8
aI8
aI7
aa(lp591
I6
aI1
aa(lp592
I8
aI8
aa(lp593
a(lp594
atRp595
sg133
I13
sg122
S'UMP:1:A:???'
p596
sg25
I12
sba(ielbow.chemistry.AtomClass
AtomClass
p597
(dp598
g7
F20
sg8
I140420532643240
sg9
Nsg11
(ielbow.chemistry.xyzClass
xyzClass
p599
(dp600
g14
I1
sg15
F57.295779513082323
sS'y'
F1.8485361943896239
sS'x'
F-0.2236097562481878
sg16
(F-0.2236097562481878
F1.8485361943896239
F2.0685835938156223
tp601
sS'z'
F2.0685835938156223
sbsg41
(lp602
I7
asg125
I1
sg22
S''
sg23
(lp603
sg25
I21
sg26
S'UMP'
p604
sg28
g29
sg30
S'   22'
p605
sg32
I140420532643240
sg33
(lp606
g63
asg175
I22
sg176
Nsg267
I0
sg116
I01
sg117
F1
sg118
I0
sg119
I21
sg178
g345
sg16
(ielbow.chemistry.xyzClass
xyzClass
p607
(dp608
g14
I1
sg15
F57.295779513082323
sS'y'
F0.82427723735288083
sS'x'
F1.471200821756196
sg16
(F1.471200821756196
F0.82427723735288083
F1.5473115767039625
tp609
sS'z'
F1.5473115767039625
sbsg122
S'UMP:1:A:???'
p610
sg180
(lp611
sg272
(ielbow.chemistry.xyzClass
xyzClass
p612
(dp613
g14
I1
sg15
F57.295779513082323
sS'y'
F-1.0239854113396512
sS'x'
F-0.47428903163593922
sg16
(F-0.47428903163593922
F-1.0239854113396512
F-0.6846794840347139
tp614
sS'z'
F-0.6846794840347139
sbsg182
S'A'
sg183
S'H041'
p615
sg310
I01
sg124
I21
sg184
S'H'
sg185
S'A'
sg126
S'   22'
p616
sg120
S'UMP:1:A:'
p617
sg128
g313
sg186
g607
sg130
g615
sg187
I01
sg188
S''
sg132
I1
sg133
I22
sg314
I01
sg189
S'H'
sg134
S' '
sg190
F1.0079
sS'y'
F0.82427723735288083
sS'x'
F1.471200821756196
sS'z'
F1.5473115767039625
sg280
g1
(g281
g3
(lp618
I1
a(lp619
a(lp620
a(lp621
a(lp622
a(lp623
a(lp624
atRp625
sbasg175
I4
sg176
Nsg116
I01
sg323
I01
sg118
I0
sg132
I1
sg119
I3
sg178
S'140420470288064_3'
p626
sg16
(ielbow.chemistry.xyzClass
xyzClass
p627
(dp628
g14
I1
sg15
F57.295779513082323
sS'y'
F0.17004789104905482
sS'x'
F0.68534682965390892
sg16
(F0.68534682965390892
F0.17004789104905482
F1.0978287799146162
tp629
sS'z'
F1.0978287799146162
sbsg117
F1
sg180
(lp630
sg272
(ielbow.chemistry.xyzClass
xyzClass
p631
(dp632
g14
I1
sg15
F57.295779513082323
sS'y'
F0.11231539286721313
sS'x'
F0.00051918067877903867
sg16
(F0.00051918067877903867
F0.11231539286721313
F-0.014463742406091587
tp633
sS'z'
F-0.014463742406091587
sbsg182
S'A'
sg183
S' C04'
p634
sg124
I3
sg28
g29
sg184
S'C'
sg125
I6
sg185
S'A'
sg126
S'    4'
p635
sg120
S'UMP:1:A:'
p636
sg128
g336
sg186
g627
sg130
g634
sg187
I01
sg188
S'@'
sg337
I0
sg338
(lp637
g51
ag73
asg340
I1
sg189
S'C'
sg134
S' '
sg190
F12.010999999999999
sg122
S'UMP:1:A:???'
p638
sg342
(lp639
I0
asS'y'
F0.17004789104905482
sS'x'
F0.68534682965390892
sS'z'
F1.0978287799146162
sg280
g1
(g281
g3
(ltRp640
sg133
I4
sg25
I3
sba(ielbow.chemistry.AtomClass
AtomClass
p641
(dp642
g180
(lp643
sg182
S'A'
sg183
S'H031'
p644
sg9
Nsg124
I25
sg7
F20
sg11
(ielbow.chemistry.xyzClass
xyzClass
p645
(dp646
g14
I1
sg15
F57.295779513082323
sS'y'
F-0.72737844947300156
sS'x'
F-1.326023553438052
sg16
(F-1.326023553438052
F-0.72737844947300156
F1.5460544163453127
tp647
sS'z'
F1.5460544163453127
sbsg16
(ielbow.chemistry.xyzClass
xyzClass
p648
(dp649
g14
I1
sg15
F57.295779513082323
sS'y'
F-1.7990830468904702
sS'x'
F0.35192969093590198
sg16
(F0.35192969093590198
F-1.7990830468904702
F0.99126097444192607
tp650
sS'z'
F0.99126097444192607
sbsg125
I1
sg22
S''
sg23
(lp651
sg8
I140419951983432
sg25
I25
sg120
S'UMP:1:A:'
p652
sg26
S'UMP'
p653
sg28
g29
sg30
S'   26'
p654
sg185
S'A'
sg186
g648
sg32
I140419951983432
sg33
(lp655
g51
asg188
S''
sg175
I26
sg176
Nsg128
g247
sg187
I01
sg130
g644
sg132
I1
sg133
I26
sg116
I01
sg117
F1
sg189
S'H'
sg118
I0
sg134
S' '
sg190
F1.0079
sg119
I25
sS'y'
F-1.7990830468904702
sS'x'
F0.35192969093590198
sg126
S'   26'
p656
sS'z'
F0.99126097444192607
sg184
S'H'
sg122
S'UMP:1:A:???'
p657
sba(ielbow.chemistry.AtomClass
AtomClass
p658
(dp659
g180
(lp660
sg182
S'A'
sg183
S'H032'
p661
sg9
Nsg124
I26
sg7
F20
sg11
(ielbow.chemistry.xyzClass
xyzClass
p662
(dp663
g14
I1
sg15
F57.295779513082323
sS'y'
F-0.21256912797026867
sS'x'
F0.27429366463635463
sg16
(F0.27429366463635463
F-0.21256912797026867
F2.1347765957060512
tp664
sS'z'
F2.1347765957060512
sbsg16
(ielbow.chemistry.xyzClass
xyzClass
p665
(dp666
g14
I1
sg15
F57.295779513082323
sS'y'
F-1.2517492743220699
sS'x'
F1.9735822233685769
sg16
(F1.9735822233685769
F-1.2517492743220699
F1.6099917897846585
tp667
sS'z'
F1.6099917897846585
sbsg125
I1
sg22
S''
sg23
(lp668
sg8
I140419951981488
sg25
I26
sg120
S'UMP:1:A:'
p669
sg26
S'UMP'
p670
sg28
g29
sg30
S'   27'
p671
sg185
S'A'
sg186
g665
sg32
I140419951981488
sg33
(lp672
g51
asg188
S''
sg175
I27
sg176
Nsg128
g247
sg187
I01
sg130
g661
sg132
I1
sg133
I27
sg116
I01
sg117
F1
sg189
S'H'
sg118
I0
sg134
S' '
sg190
F1.0079
sg119
I26
sS'y'
F-1.2517492743220699
sS'x'
F1.9735822233685769
sg126
S'   27'
p673
sS'z'
F1.6099917897846585
sg184
S'H'
sg122
S'UMP:1:A:???'
p674
sbasg175
I3
sg176
Nsg267
I1
sg116
I01
sg323
I01
sg118
I0
sg132
I1
sg119
I2
sg178
S'140420470288064_3'
p675
sg41
(lp676
I5
asg117
F1
sg180
(lp677
sg272
(ielbow.chemistry.xyzClass
xyzClass
p678
(dp679
g14
I1
sg15
F57.295779513082323
sS'y'
F0.10140387567105004
sS'x'
F1.529971448516863
sg16
(F1.529971448516863
F0.10140387567105004
F-0.01293376220890842
tp680
sS'z'
F-0.01293376220890842
sbsg182
S'A'
sg183
S' C03'
p681
sg124
I2
sg28
g29
sg184
S'C'
sg125
I6
sg185
S'A'
sg126
S'    3'
p682
sg120
S'UMP:1:A:'
p683
sg128
g279
sg186
g56
sg130
g681
sg187
I01
sg188
S''
sg337
I1
sg338
(lp684
g35
ag63
asg340
I1
sg189
S'C'
sg134
S' '
sg190
F12.010999999999999
sg122
S'UMP:1:A:???'
p685
sg342
(lp686
I0
asS'y'
F-1.0435748571910499
sS'x'
F1.1653469126112017
sS'z'
F0.89606906340281745
sg280
g1
(g281
g3
(lp687
I6
a(lp688
I6
aa(lp689
I8
aI6
aI1
aa(lp690
I8
aI6
aI1
aa(lp691
I8
aa(lp692
I15
aa(lp693
I8
aI8
aI8
aI8
aatRp694
sg133
I3
sg25
I2
sbag85
a(ielbow.chemistry.AtomClass
AtomClass
p695
(dp696
g7
F20
sg8
I140420532068296
sg9
Nsg11
(ielbow.chemistry.xyzClass
xyzClass
p697
(dp698
g14
I1
sg15
F57.295779513082323
sS'y'
F-0.86113578852902029
sS'x'
F-0.3798581477846813
sg16
(F-0.3798581477846813
F-0.86113578852902029
F-0.53638729548442332
tp699
sS'z'
F-0.53638729548442332
sbsg16
(ielbow.chemistry.xyzClass
xyzClass
p700
(dp701
g14
I1
sg15
F57.295779513082323
sS'y'
F-1.8999856045781076
sS'x'
F1.3550576372960847
sg16
(F1.3550576372960847
F-1.8999856045781076
F-1.0994802714825322
tp702
sS'z'
F-1.0994802714825322
sbsg125
I1
sg22
S''
sg23
(lp703
sg25
I20
sg26
S'UMP'
p704
sg28
g29
sg30
S'   21'
p705
sg32
I140420532068296
sg33
(lp706
g35
asg175
I21
sg176
Nsg267
I0
sg116
I01
sg117
F1
sg118
I0
sg119
I20
sg178
g675
sg41
(lp707
I3
asg122
S'UMP:1:A:???'
p708
sg180
(lp709
sg272
(ielbow.chemistry.xyzClass
xyzClass
p710
(dp711
g14
I1
sg15
F57.295779513082323
sS'y'
F-1.181784497650008
sS'x'
F-0.51485661071685429
sg16
(F-0.51485661071685429
F-1.181784497650008
F-0.58187937058043293
tp712
sS'z'
F-0.58187937058043293
sbsg182
S'A'
sg183
S'H021'
p713
sg310
I01
sg124
I20
sg184
S'H'
sg185
S'A'
sg126
S'   21'
p714
sg120
S'UMP:1:A:'
p715
sg128
g313
sg186
g700
sg130
g713
sg187
I01
sg188
S''
sg132
I1
sg133
I21
sg314
I01
sg189
S'H'
sg134
S' '
sg190
F1.0079
sS'y'
F-1.8999856045781076
sS'x'
F1.3550576372960847
sS'z'
F-1.0994802714825322
sg280
g1
(g281
g3
(lp716
I1
a(lp717
a(lp718
a(lp719
a(lp720
a(lp721
a(lp722
atRp723
sbasg175
I2
sg176
Nsg267
I1
sg116
I01
sg323
I01
sg118
I0
sg132
I1
sg119
I1
sg178
S'140420470288064_3'
p724
sg16
(ielbow.chemistry.xyzClass
xyzClass
p725
(dp726
g14
I1
sg15
F57.295779513082323
sS'y'
F-1.0334683015214872
sS'x'
F1.7205469819716659
sg16
(F1.7205469819716659
F-1.0334683015214872
F-0.55115800648593416
tp727
sS'z'
F-0.55115800648593416
sbsg117
F1
sg180
(lp728
sg272
(ielbow.chemistry.xyzClass
xyzClass
p729
(dp730
g14
I1
sg15
F57.295779513082323
sS'y'
F-0.33371227890652466
sS'x'
F1.6882099021449271
sg16
(F1.6882099021449271
F-0.33371227890652466
F-0.18855051507428403
tp731
sS'z'
F-0.18855051507428403
sbsg182
S'A'
sg183
S' C02'
p732
sg332
S'-'
sg124
I1
sg28
g29
sg184
S'C'
sg333
I1
sg125
I6
sg185
S'A'
sg126
S'    2'
p733
sg120
S'UMP:1:A:'
p734
sg128
g336
sg186
g725
sg130
g732
sg187
I01
sg188
S'@@'
p735
sg337
I0
sg338
(lp736
g85
ag51
asg340
I1
sg189
S'C'
sg134
S' '
sg190
F12.010999999999999
sg122
S'UMP:1:A:???'
p737
sg342
(lp738
I0
asS'y'
F-1.0334683015214872
sS'x'
F1.7205469819716659
sS'z'
F-0.55115800648593416
sg280
g1
(g281
g3
(lp739
I6
a(lp740
I8
aI6
aI1
aa(lp741
I6
aa(lp742
I8
aI7
aI1
aa(lp743
a(lp744
I6
aI8
aI8
aI7
aa(lp745
I6
aI6
aatRp746
sg133
I2
sg25
I1
sba(ielbow.chemistry.AtomClass
AtomClass
p747
(dp748
g180
(lp749
sg182
S'A'
sg183
S'H011'
p750
sg9
Nsg124
I24
sg7
F20
sg11
(ielbow.chemistry.xyzClass
xyzClass
p751
(dp752
g14
I1
sg15
F57.295779513082323
sS'y'
F-0.85422415418157738
sS'x'
F1.65347199429278
sg16
(F1.65347199429278
F-0.85422415418157738
F-0.24592611633869504
tp753
sS'z'
F-0.24592611633869504
sbsg16
(ielbow.chemistry.xyzClass
xyzClass
p754
(dp755
g14
I1
sg15
F57.295779513082323
sS'y'
F-1.8838385088540837
sS'x'
F3.3724823165223827
sg16
(F3.3724823165223827
F-1.8838385088540837
F-0.76761040922623058
tp756
sS'z'
F-0.76761040922623058
sbsg125
I1
sg22
S''
sg23
(lp757
sg8
I140419951983360
sg25
I24
sg120
S'UMP:1:A:'
p758
sg26
S'UMP'
p759
sg28
g29
sg30
S'   25'
p760
sg185
S'A'
sg186
g754
sg32
I140419951983360
sg33
(lp761
g5
asg188
S''
sg175
I25
sg176
Nsg128
S'HOH1'
p762
sg187
I01
sg130
g750
sg132
I1
sg133
I25
sg116
I01
sg117
F1
sg189
S'H'
sg118
I0
sg134
S' '
sg190
F1.0079
sg119
I24
sS'y'
F-1.8838385088540837
sS'x'
F3.3724823165223827
sg126
S'   25'
p763
sS'z'
F-0.76761040922623058
sg184
S'H'
sg122
S'UMP:1:A:???'
p764
sbasg175
I1
sg176
Nsg267
I3
sg116
I01
sg117
F1
sg118
I0
sg119
I0
sg178
g675
sg41
(lp765
I1
asg122
S'UMP:1:A:???'
p766
sg180
(lp767
sg272
(ielbow.chemistry.xyzClass
xyzClass
p768
(dp769
g14
I1
sg15
F57.295779513082323
sS'y'
F0.070185309304919452
sS'x'
F1.4014841270766578
sg16
(F1.4014841270766578
F0.070185309304919452
F0.12115675024120588
tp770
sS'z'
F0.12115675024120588
sbsg182
S'A'
sg183
S' O01'
p771
sg124
I0
sg184
S'O'
sg125
I8
sg185
S'A'
sg126
S'    1'
p772
sg120
S'UMP:1:A:'
p773
sg128
S'OH1'
p774
sg186
g18
sg130
g771
sg187
I01
sg188
S''
sg132
I1
sg133
I1
sg189
S'O'
sg134
S' '
sg190
F15.9994
sS'y'
F-1.020294581589793
sS'x'
F3.0416800026476065
sS'z'
F-0.53291828742896319
sg280
g1
(g281
g3
(lp775
I8
a(lp776
a(lp777
a(lp778
a(lp779
a(lp780
a(lp781
atRp782
sbag35
ag51
ag63
ag73
ag85
ag95
ag107
ag139
ag157
ag191
ag210
ag365
ag376
ag388
ag400
ag412
ag431
ag441
ag451
ag695
ag597
ag290
ag484
ag747
ag641
ag658
ag232
ag250
ag550
ag523
atRp783
(dp784
S'ring_closure_atoms'
p785
(lp786
g35
ag85
ag365
ag441
asS'CIF_ligand_type'
p787
S'ligand'
p788
sS'original_ring_class'
p789
(lp790
g1
(celbow.chemistry.RingClass
RingClass
p791
g3
(lp792
(lp793
(ielbow.chemistry.RingClass
empty
p794
(dp795
g11
(ielbow.chemistry.xyzClass
xyzClass
p796
(dp797
g14
I0
sg15
F57.295779513082323
sS'y'
F-1.1011055363769386
sS'x'
F0.80000000000000004
sg16
(F0.80000000000000004
F-1.1011055363769386
F0
tp798
sS'z'
F0
sbsg175
I2
sg184
S'C'
sg16
(ielbow.chemistry.xyzClass
xyzClass
p799
(dp800
g14
I1
sg15
F57.295779513082323
sS'y'
F1.6653345369377348e-16
sS'x'
F1.6000000000000001
sg16
(F0
F0
I0
tp801
sS'z'
I0
sbsba(ielbow.chemistry.RingClass
empty
p802
(dp803
g11
(ielbow.chemistry.xyzClass
xyzClass
p804
(dp805
g14
I0
sg15
F57.295779513082323
sS'y'
F0.42058488969530705
sS'x'
F1.2944271909999159
sg16
(F1.2944271909999159
F0.42058488969530705
F0
tp806
sS'z'
F0
sbsg175
I3
sg184
S'C'
sg16
(ielbow.chemistry.xyzClass
xyzClass
p807
(dp808
g14
I1
sg15
F57.295779513082323
sS'y'
F1.5216904260722459
sS'x'
F2.0944271909999159
sg16
(F1.6000000000000001
F0
I0
tp809
sS'z'
I0
sbsba(ielbow.chemistry.RingClass
empty
p810
(dp811
g11
(ielbow.chemistry.xyzClass
xyzClass
p812
(dp813
g14
I0
sg15
F57.295779513082323
sS'y'
F1.3610412933632641
sS'x'
F-2.2204460492503131e-16
sg16
(F-2.2204460492503131e-16
F1.3610412933632641
F0
tp814
sS'z'
F0
sbsg175
I4
sg184
S'C'
sg16
(ielbow.chemistry.xyzClass
xyzClass
p815
(dp816
g14
I1
sg15
F57.295779513082323
sS'y'
F2.4621468297402029
sS'x'
F0.79999999999999982
sg16
(F1.6000000000000001
F0
I0
tp817
sS'z'
I0
sbsba(ielbow.chemistry.RingClass
empty
p818
(dp819
g11
(ielbow.chemistry.xyzClass
xyzClass
p820
(dp821
g14
I0
sg15
F57.295779513082323
sS'y'
F0.42058488969530683
sS'x'
F-1.2944271909999161
sg16
(F-1.2944271909999161
F0.42058488969530683
F0
tp822
sS'z'
F0
sbsg175
I5
sg184
S'O'
sg16
(ielbow.chemistry.xyzClass
xyzClass
p823
(dp824
g14
I1
sg15
F57.295779513082323
sS'y'
F1.5216904260722457
sS'x'
F-0.49442719099991594
sg16
(F1.6000000000000001
F0
I0
tp825
sS'z'
I0
sbsba(ielbow.chemistry.RingClass
empty
p826
(dp827
g11
(ielbow.chemistry.xyzClass
xyzClass
p828
(dp829
g14
I0
sg15
F57.295779513082323
sS'y'
F-1.1011055363769389
sS'x'
F-0.80000000000000004
sg16
(F-0.80000000000000004
F-1.1011055363769389
F0
tp830
sS'z'
F0
sbsg175
I6
sg184
S'C'
sg16
(ielbow.chemistry.xyzClass
xyzClass
p831
(dp832
g14
I1
sg15
F57.295779513082323
sS'y'
F0
sS'x'
F0
sg16
(F1.6000000000000001
F0
I0
tp833
sS'z'
I0
sbsbaatRp834
(dp835
S'use_cctbx'
p836
I01
sS'RestraintWeights'
p837
(dp838
S'LoopClass'
p839
(dp840
S'angle'
p841
F0.25
sS'bond'
p842
I50
ssS'GetCCTBXRestraints'
p843
(dp844
g841
F1
sg842
F100
ssS'ZMatrixClass'
p845
(dp846
g841
I10
sg842
F100
ssS'AdjustRestraintClass'
p847
(dp848
S'ring_planar'
p849
F0.10000000000000001
sS'aromatic_bond'
p850
F100
sg841
F1.5
sg188
F50
sS'loose_angle'
p851
F0.25
sS'non_ring_planar'
p852
F0.20000000000000001
ssS'RingClass'
p853
(dp854
S'flatness'
p855
F10
sg841
F2
sS'chair_boat'
p856
F1
sS'non_aromatic'
p857
F10
sg842
F200
ssS'ChiralClass'
p858
(dp859
g842
F100
sssS'allow_boat_conformation'
p860
I00
sS'ignore_list'
p861
(lp862
sS'rejected'
p863
(lp864
sS'ignore'
p865
(lp866
sS'edges'
p867
(dp868
sS'coordinates'
p869
(lp870
F0
aF0
aF0
aF0
aF0
aF0
asS'UseRestraintWeights'
p871
I01
sS'UseRestraintValues'
p872
I01
sS'min_iter_rings'
p873
I7
sS'RestraintValues'
p874
(dp875
g853
(dp876
g841
(dp877
I3
F60
sI4
F90
sI5
F106
sI6
F113
ssS'dihedral'
p878
(dp879
I5
(lp880
F25
aI10
asI6
(lp881
F55
aI1
assssbag1
(g791
g3
(lp882
(lp883
(ielbow.chemistry.RingClass
empty
p884
(dp885
g11
(ielbow.chemistry.xyzClass
xyzClass
p886
(dp887
g14
I0
sg15
F57.295779513082323
sS'y'
F-1.3856406460551023
sS'x'
F0.80000000000000082
sg16
(F0.80000000000000082
F-1.3856406460551023
F0
tp888
sS'z'
F0
sbsg175
I13
sg184
S'n'
sg16
(ielbow.chemistry.xyzClass
xyzClass
p889
(dp890
g14
I1
sg15
F57.295779513082323
sS'y'
F0
sS'x'
F1.600000000000001
sg16
(F0
F0
I0
tp891
sS'z'
I0
sbsba(ielbow.chemistry.RingClass
empty
p892
(dp893
g11
(ielbow.chemistry.xyzClass
xyzClass
p894
(dp895
g14
I0
sg15
F57.295779513082323
sS'y'
F4.4408920985006262e-16
sS'x'
F1.6000000000000005
sg16
(F1.6000000000000005
F4.4408920985006262e-16
F0
tp896
sS'z'
F0
sbsg175
I14
sg184
S'c'
sg16
(ielbow.chemistry.xyzClass
xyzClass
p897
(dp898
g14
I1
sg15
F57.295779513082323
sS'y'
F1.3856406460551027
sS'x'
F2.4000000000000008
sg16
(F1.6000000000000001
F0
I0
tp899
sS'z'
I0
sbsba(ielbow.chemistry.RingClass
empty
p900
(dp901
g11
(ielbow.chemistry.xyzClass
xyzClass
p902
(dp903
g14
I0
sg15
F57.295779513082323
sS'y'
F1.3856406460551023
sS'x'
F0.79999999999999971
sg16
(F0.79999999999999971
F1.3856406460551023
F0
tp904
sS'z'
F0
sbsg175
I15
sg184
S'c'
sg16
(ielbow.chemistry.xyzClass
xyzClass
p905
(dp906
g14
I1
sg15
F57.295779513082323
sS'y'
F2.7712812921102046
sS'x'
F1.5999999999999999
sg16
(F1.6000000000000001
F0
I0
tp907
sS'z'
I0
sbsba(ielbow.chemistry.RingClass
empty
p908
(dp909
g11
(ielbow.chemistry.xyzClass
xyzClass
p910
(dp911
g14
I0
sg15
F57.295779513082323
sS'y'
F1.3856406460551018
sS'x'
F-0.8000000000000006
sg16
(F-0.8000000000000006
F1.3856406460551018
F0
tp912
sS'z'
F0
sbsg175
I16
sg184
S'c'
sg16
(ielbow.chemistry.xyzClass
xyzClass
p913
(dp914
g14
I1
sg15
F57.295779513082323
sS'y'
F2.7712812921102041
sS'x'
F-4.4408920985006262e-16
sg16
(F1.6000000000000001
F0
I0
tp915
sS'z'
I0
sbsba(ielbow.chemistry.RingClass
empty
p916
(dp917
g11
(ielbow.chemistry.xyzClass
xyzClass
p918
(dp919
g14
I0
sg15
F57.295779513082323
sS'y'
F-4.4408920985006262e-16
sS'x'
F-1.6000000000000005
sg16
(F-1.6000000000000005
F-4.4408920985006262e-16
F0
tp920
sS'z'
F0
sbsg175
I18
sg184
S'n'
sg16
(ielbow.chemistry.xyzClass
xyzClass
p921
(dp922
g14
I1
sg15
F57.295779513082323
sS'y'
F1.3856406460551018
sS'x'
F-0.80000000000000027
sg16
(F1.6000000000000001
F0
I0
tp923
sS'z'
I0
sbsba(ielbow.chemistry.RingClass
empty
p924
(dp925
g11
(ielbow.chemistry.xyzClass
xyzClass
p926
(dp927
g14
I0
sg15
F57.295779513082323
sS'y'
F-1.3856406460551023
sS'x'
F-0.80000000000000016
sg16
(F-0.80000000000000016
F-1.3856406460551023
F0
tp928
sS'z'
F0
sbsg175
I19
sg184
S'c'
sg16
(ielbow.chemistry.xyzClass
xyzClass
p929
(dp930
g14
I1
sg15
F57.295779513082323
sS'y'
F0
sS'x'
F0
sg16
(F1.6000000000000001
F0
I0
tp931
sS'z'
I0
sbsbaatRp932
(dp933
g836
I01
sg837
(dp934
g839
(dp935
g841
F0.25
sg842
I50
ssg843
(dp936
g841
F1
sg842
F100
ssg845
(dp937
g841
I10
sg842
F100
ssg847
(dp938
g849
F0.10000000000000001
sg850
F100
sg841
F1.5
sg188
F50
sg851
F0.25
sg852
F0.20000000000000001
ssg853
(dp939
g855
F10
sg841
F2
sg856
F1
sg857
F10
sg842
F200
ssg858
(dp940
g842
F100
sssg860
I00
sg861
(lp941
sg863
(lp942
sg865
(lp943
sg867
(dp944
sg869
(lp945
F0
aF0
aF0
aF0
aF0
aF0
asg871
I01
sg872
I01
sg873
I7
sg874
(dp946
g853
(dp947
g841
(dp948
I3
F60
sI4
F90
sI5
F106
sI6
F113
ssg878
(dp949
I5
(lp950
F25
aI10
asI6
(lp951
F55
aI1
assssbasS'energy'
p952
F878.54016871818419
sS'chiral_restraint'
p953
(dp954
I1
g1
(celbow.cctbx_api.RestraintClass
RestraintClass
p955
c__builtin__
dict
p956
(dp957
I1
(F-2.2765483771452475
F2.4009494564331693
F1.5069884430888327
tp958
sI2
(F-1.6890821678313814
F1.2973694082547043
F0.97133257599907208
tp959
s(I2
I6
tp960
(lp961
F1.527126
aF100
as(I21
I2
I1
tp962
(lp963
F109.47122063449069
aF1
asI6
(F-0.4795637316501894
F1.2317703712230736
F1.323238957499127
tp964
s(I3
I2
I1
tp965
(lp966
F109.47122063449069
aF1
as(I21
I2
tp967
(lp968
F1.0833090000000001
aF100
as(I2
I1
tp969
(lp970
F1.398717
aF100
as(I21
I2
I6
tp971
(lp972
F109.47122063449069
aF1
asI3
(F-1.6651772651325869
F1.3943664165037868
F-0.49794699385870972
tp973
s(I2
I3
tp974
(lp975
F1.527126
aF100
asI21
(F-2.2725869219683386
F0.29851547210195278
F1.3099401351450932
tp976
s(I21
I2
I3
tp977
(lp978
F109.47122063449069
aF1
as(I6
I2
I3
tp979
(lp980
F109.47122063449069
aF1
as(I6
I2
I1
tp981
(lp982
F109.47122063449069
aF1
astRp983
(dp984
S'link'
p985
(dp986
I1
I0
sI2
I1
sI3
I2
sI21
I4
sI6
I3
ssS'hydrogens'
p987
(lp988
sS'chiral_weights'
p989
(lp990
F50
asS'restraint_type'
p991
(dp992
sS'type'
p993
NsS'chirals'
p994
(lp995
(lp996
(lp997
(lp998
g35
ag5
ag85
ag51
aa(lp999
F2.5110833783732081
aI01
aF1
aaaasS'overwrite'
p1000
I00
sbsI2
g1
(g955
g956
(dp1001
(I22
I4
I13
tp1002
(lp1003
F109.47122063449069
aF1
asI3
(F0.8316792492350803
F-0.12663896673314617
F1.6999975063200532
tp1004
sI4
(F0.80232847792073336
F-0.84531423110921955
F-0.1832445263400253
tp1005
sI22
(F-0.1612823622999946
F2.612063806664692
F-1.6235278522345593
tp1006
s(I13
I4
I3
tp1007
(lp1008
F109.47122063449069
aF1
as(I4
I5
tp1009
(lp1010
F1.398717
aF100
asI13
(F0.35894644422657884
F0.58945915259645609
F-1.4146434672318238
tp1011
s(I4
I13
tp1012
(lp1013
F1.451533
aF100
as(I22
I4
tp1014
(lp1015
F1.0833090000000001
aF100
as(I4
I3
tp1016
(lp1017
F1.527126
aF100
as(I5
I4
I3
tp1018
(lp1019
F109.47122063449069
aF1
as(I22
I4
I3
tp1020
(lp1021
F109.47122063449069
aF1
as(I22
I4
I5
tp1022
(lp1023
F109.47122063449069
aF1
as(I13
I4
I5
tp1024
(lp1025
F109.47122063449069
aF1
asI5
(F0.33182167196613011
F-0.18514162174112037
F-0.97718137526694082
tp1026
stRp1027
(dp1028
g985
(dp1029
I3
I0
sI4
I1
sI5
I2
sI22
I4
sI13
I3
ssg987
(lp1030
sg989
(lp1031
F50
asg991
(dp1032
sg993
Nsg994
(lp1033
(lp1034
(lp1035
(lp1036
g63
ag51
ag73
ag365
aa(lp1037
F-2.386784318687651
aI01
aF1
aaaasg1000
I00
sbsI3
g1
(g955
g956
(dp1038
(I5
I6
I2
tp1039
(lp1040
F109.47122063449069
aF1
asI2
(F-0.48833881389050726
F0.99316348705430635
F-0.68312223297608288
tp1041
s(I6
I7
tp1042
(lp1043
F1.527126
aF100
asI5
(F1.3984222731401676
F1.0392902605883558
F-1.6020805800461293
tp1044
sI6
(F1.340491421115579
F-0.3643870358041042
F1.3302410692190965
tp1045
sI7
(F-0.06599091525731815
F-0.14041267496354992
F1.4270461102651291
tp1046
s(I7
I6
I2
tp1047
(lp1048
F109.47122063449069
aF1
as(I23
I6
I5
tp1049
(lp1050
F109.47122063449069
aF1
as(I23
I6
I7
tp1051
(lp1052
F109.47122063449069
aF1
as(I6
I2
tp1053
(lp1054
F1.527126
aF100
asI23
(F-0.32426620734058065
F1.8144616888122551
F2.4174501482811759
tp1055
s(I23
I6
I2
tp1056
(lp1057
F109.47122063449069
aF1
as(I7
I6
I5
tp1058
(lp1059
F109.47122063449069
aF1
as(I23
I6
tp1060
(lp1061
F1.0833090000000001
aF100
as(I6
I5
tp1062
(lp1063
F1.398717
aF100
astRp1064
(dp1065
g985
(dp1066
I2
I0
sI7
I3
sI5
I1
sI6
I2
sI23
I4
ssg987
(lp1067
sg989
(lp1068
F50
asg991
(dp1069
sg993
Nsg994
(lp1070
(lp1071
(lp1072
(lp1073
g85
ag73
ag35
ag95
aa(lp1074
F-2.5110833783732081
aI01
aF1
aaaasg1000
I00
sbssS'ring_atom_lists'
p1075
(lp1076
sS'OutputHeaderData'
p1077
(dp1078
S'smiles'
p1079
S'O[C@H]1C[C@@H](O[C@@H]1COP(O)(O)=O)n1ccc(=O)[nH]c1=O'
p1080
sS'qm_method'
p1081
S'uhf'
p1082
sS'random_seed'
p1083
S'3628800'
p1084
sS'qm_basis'
p1085
S'am1'
p1086
ssS'OriginalFormat'
p1087
g1
(celbow.formats.FormatClass
FormatClass
p1088
g956
(dp1089
S'atom_names'
p1090
I00
sg1079
I01
sS'bond_orders'
p1091
I01
sS'bond_connections'
p1092
I01
sS'xyz_coordinates'
p1093
I00
stRp1094
(dp1095
S'format'
p1096
S'SMILES'
p1097
sbsS'WriteCIF2String_defaults'
p1098
(lp1099
I00
aI01
aS'UMP'
p1100
aS''
ag1080
aI01
aI00
aS'retain'
p1101
aI00
aI01
aI01
a(I4
I3
I2
tp1102
aI00
aI00
aNaI01
a(lp1103
a(lp1104
a(lp1105
a(lp1106
aI00
aI00
asS'chiral_class'
p1107
(dp1108
I1
g1
(celbow.chemistry.ChiralClass
ChiralClass
p1109
g3
(lp1110
g695
ag35
ag5
ag85
ag51
atRp1111
(dp1112
S'rs_priority'
p1113
(lp1114
g695
ag51
ag85
ag5
asS'id_tag'
p1115
I140420508704624
sS'equil'
p1116
F2.5110833783732081
sS'parent'
p1117
g783
sS'bonds'
p1118
g1
(celbow.chemistry.InternalCoordinateListClass
InternalCoordinateListClass
p1119
g3
(lp1120
g1
(celbow.chemistry.BondClass
BondClass
p1121
g3
(lp1122
g35
ag5
atRp1123
(dp1124
S'symbols'
p1125
(lp1126
sS'restrain'
p1127
I00
sg1116
F1.398717
sS'max_atoms'
p1128
I2
sg184
S'-'
sS'input_order'
p1129
I1
sS'order'
p1130
I1
sbag1
(g1121
g3
(lp1131
g51
ag35
atRp1132
(dp1133
g1125
g1126
sg1127
I00
sg1116
F1.527126
sg1128
I2
sg184
S'-'
sg1129
I1
sg1130
I1
sbag1
(g1121
g3
(lp1134
g63
ag51
atRp1135
(dp1136
g1125
g1126
sg1127
I00
sg1116
F1.527126
sg1128
I2
sg184
S'-'
sg1129
I1
sg1130
I1
sbag1
(g1121
g3
(lp1137
g85
ag73
atRp1138
(dp1139
g1125
g1126
sg1127
I00
sg1116
F1.398717
sg1128
I2
sg184
S'-'
sg1129
I1
sg1130
I1
sbag1
(g1121
g3
(lp1140
g95
ag85
atRp1141
(dp1142
g1125
g1126
sg1127
I00
sg1116
F1.527126
sg1128
I2
sg184
S'-'
sg1129
I1
sg1130
I1
sbag1
(g1121
g3
(lp1143
g107
ag95
atRp1144
(dp1145
g1125
g1126
sg1127
I00
sg1116
F1.398717
sg1128
I2
sg184
S'-'
sg1129
I1
sg1130
I1
sbag1
(g1121
g3
(lp1146
g139
ag107
atRp1147
(dp1148
g1125
g1126
sg1127
I00
sg1116
F1.6482159999999999
sg1128
I2
sg184
S'-'
sg1129
I1
sg1130
I1
sbag1
(g1121
g3
(lp1149
g157
ag139
atRp1150
(dp1151
g1116
F1.51
sg1128
I2
sg184
S'-'
sg1125
g1126
sg1127
I01
sS'deloc'
p1152
I01
sg1129
I1
sg1130
I1
sbag1
(g1121
g3
(lp1153
g191
ag139
atRp1154
(dp1155
g1116
F1.51
sg1128
I2
sg184
S'-'
sg1125
g1126
sg1127
I01
sg1152
I01
sg1129
I1
sg1130
I1
sbag1
(g1121
g3
(lp1156
g210
ag139
atRp1157
(dp1158
g1116
F1.51
sg1128
I2
sg184
S'='
sg1125
g1126
sg1127
I01
sg1152
I01
sg1129
I2
sg1130
I2
sbag1
(g1121
g3
(lp1159
g73
ag63
atRp1160
(dp1161
g1125
g1126
sg1127
I00
sg1116
F1.398717
sg1128
I2
sg184
S'-'
sg1129
I1
sg1130
I1
sbag1
(g1121
g3
(lp1162
g365
ag63
atRp1163
(dp1164
g1125
g1126
sg1127
I00
sg1116
F1.451533
sg1128
I2
sg184
S'-'
sg1129
I1
sg1130
I1
sbag1
(g1121
g3
(lp1165
g376
ag365
atRp1166
(dp1167
g1125
g1126
sS'order_conect'
p1168
I1
sg1127
I00
sg1116
F1.321345
sg1128
I2
sg184
S':'
sg1129
I1
sg1130
F1.5
sbag1
(g1121
g3
(lp1169
g388
ag376
atRp1170
(dp1171
g1125
g1126
sg1168
I2
sg1127
I00
sg1116
F1.385372
sg1128
I2
sg184
S':'
sg1129
I1
sg1130
F1.5
sbag1
(g1121
g3
(lp1172
g400
ag388
atRp1173
(dp1174
g1125
g1126
sg1168
I1
sg1127
I00
sg1116
F1.385372
sg1128
I2
sg184
S':'
sg1129
I1
sg1130
F1.5
sbag1
(g1121
g3
(lp1175
g412
ag400
atRp1176
(dp1177
g1125
g1126
sg1127
I00
sg1116
F1.184607
sg1128
I2
sg184
S'='
sg1129
I2
sg1130
I2
sbag1
(g1121
g3
(lp1178
g431
ag400
atRp1179
(dp1180
g1125
g1126
sg1168
I2
sg1127
I00
sg1116
F1.321345
sg1128
I2
sg184
S':'
sg1129
I1
sg1130
F1.5
sbag1
(g1121
g3
(lp1181
g441
ag431
atRp1182
(dp1183
g1125
g1126
sg1168
I1
sg1127
I00
sg1116
F1.321345
sg1128
I2
sg184
S':'
sg1129
I1
sg1130
F1.5
sbag1
(g1121
g3
(lp1184
g451
ag441
atRp1185
(dp1186
g1125
g1126
sg1127
I00
sg1116
F1.184607
sg1128
I2
sg184
S'='
sg1129
I2
sg1130
I2
sbag1
(g1121
g3
(lp1187
g35
ag85
atRp1188
(dp1189
g1125
g1126
sg1127
I00
sg1116
F1.527126
sg1128
I2
sg184
S'-'
sg1129
I1
sg1130
I1
sbag1
(g1121
g3
(lp1190
g365
ag441
atRp1191
(dp1192
g1125
g1126
sg1168
I2
sg1127
I00
sg1116
F1.321345
sg1128
I2
sg184
S':'
sg1129
I1
sg1130
F1.5
sbag1
(g1121
g3
(lp1193
g695
ag35
atRp1194
(dp1195
g1125
g1126
sg1127
I00
sg1116
F1.0833090000000001
sg1128
I2
sg184
S'-'
sg1129
I1
sg1130
I1
sbag1
(g1121
g3
(lp1196
g597
ag63
atRp1197
(dp1198
g1125
g1126
sg1127
I00
sg1116
F1.0833090000000001
sg1128
I2
sg184
S'-'
sg1129
I1
sg1130
I1
sbag1
(g1121
g3
(lp1199
g290
ag85
atRp1200
(dp1201
g1125
g1126
sg1127
I00
sg1116
F1.0833090000000001
sg1128
I2
sg184
S'-'
sg1129
I1
sg1130
I1
sbag1
(g1121
g3
(lp1202
g484
ag431
atRp1203
(dp1204
g1125
g1126
sg1127
I00
sg1116
F1.0008300000000001
sg1128
I2
sg184
S'-'
sg1129
I1
sg1130
I1
sbag1
(g1121
g3
(lp1205
g747
ag5
atRp1206
(dp1207
g1125
g1126
sg1127
I00
sg1116
F0.94288300000000003
sg1128
I2
sg184
S'-'
sg1129
I1
sg1130
I1
sbag1
(g1121
g3
(lp1208
g641
ag51
atRp1209
(dp1210
g1125
g1126
sg1127
I00
sg1116
F1.0833090000000001
sg1128
I2
sg184
S'-'
sg1129
I1
sg1130
I1
sbag1
(g1121
g3
(lp1211
g658
ag51
atRp1212
(dp1213
g1125
g1126
sg1127
I00
sg1116
F1.0833090000000001
sg1128
I2
sg184
S'-'
sg1129
I1
sg1130
I1
sbag1
(g1121
g3
(lp1214
g232
ag95
atRp1215
(dp1216
g1125
g1126
sg1127
I00
sg1116
F1.0833090000000001
sg1128
I2
sg184
S'-'
sg1129
I1
sg1130
I1
sbag1
(g1121
g3
(lp1217
g250
ag95
atRp1218
(dp1219
g1125
g1126
sg1127
I00
sg1116
F1.0833090000000001
sg1128
I2
sg184
S'-'
sg1129
I1
sg1130
I1
sbag1
(g1121
g3
(lp1220
g550
ag376
atRp1221
(dp1222
g1125
g1126
sg1127
I00
sg1116
F1.0833090000000001
sg1128
I2
sg184
S'-'
sg1129
I1
sg1130
I1
sbag1
(g1121
g3
(lp1223
g523
ag388
atRp1224
(dp1225
g1125
g1126
sg1127
I00
sg1116
F1.0833090000000001
sg1128
I2
sg184
S'-'
sg1129
I1
sg1130
I1
sbatRp1226
sS'skip'
p1227
(lp1228
I2
asS'get_bond_by_atoms_lookup'
p1229
(dp1230
S'c14:n13'
p1231
g1166
sS'c15:c14'
p1232
g1170
sS'c15:c16'
p1233
g1173
sS'C4:O5'
p1234
g1160
sS'O10:P9'
p1235
g1150
sS'C3:C4'
p1236
g1135
sS' C02: O01'
p1237
g1123
sS'C7:O8'
p1238
g1144
sS'C2:C6'
p1239
g1188
sS'n13:C4'
p1240
g1163
sS'O20:c19'
p1241
g1185
sS'C4:C3'
p1242
g1135
sS'C6:H23'
p1243
g1200
sS'P9:O11'
p1244
g1154
sS'P9:O10'
p1245
g1150
sS'n18:H24'
p1246
g1203
sS'P9:O12'
p1247
g1157
sS'C2:H21'
p1248
g1194
sS'C6:C7'
p1249
g1141
sS'O11:P9'
p1250
g1154
sS'C4:H22'
p1251
g1197
sS'H22:C4'
p1252
g1197
sS'C7:C6'
p1253
g1141
sS'c19:O20'
p1254
g1185
sS'C6:O5'
p1255
g1138
sS'O8:P9'
p1256
g1147
sS'H23:C6'
p1257
g1200
sS'C4:n13'
p1258
g1163
sS'O5:C6'
p1259
g1138
sS'n13:c19'
p1260
g1191
sS'O5:C4'
p1261
g1160
sS'c16:n18'
p1262
g1179
sS'O8:C7'
p1263
g1144
sS'H24:n18'
p1264
g1203
sS'c16:c15'
p1265
g1173
sS'c19:n13'
p1266
g1191
sS' C02: C03'
p1267
g1132
sS'C2:C3'
p1268
g1132
sS'n18:c16'
p1269
g1179
sS'c16:O17'
p1270
g1176
sS' C02: C06'
p1271
g1188
sS'O12:P9'
p1272
g1157
sS'n18:c19'
p1273
g1182
sS'n13:c14'
p1274
g1166
sS'P9:O8'
p1275
g1147
sS'c14:c15'
p1276
g1170
sS'c19:n18'
p1277
g1182
ssS'axis_atom'
p1278
g695
sS'angles'
p1279
g1
(g1119
g3
(lp1280
g1
(celbow.chemistry.AngleClass
AngleClass
p1281
g3
(lp1282
g51
ag35
ag5
atRp1283
(dp1284
g1125
(lp1285
S'-'
aS'-'
asg1127
I01
sg1116
F109.47122063449069
sbag1
(g1281
g3
(lp1286
g85
ag35
ag5
atRp1287
(dp1288
g1125
(lp1289
S'-'
aS'-'
asg1127
I01
sg1116
F109.47122063449069
sbag1
(g1281
g3
(lp1290
g695
ag35
ag5
atRp1291
(dp1292
g1125
(lp1293
S'-'
aS'-'
asg1127
I01
sg1116
F109.47122063449069
sbag1
(g1281
g3
(lp1294
g63
ag51
ag35
atRp1295
(dp1296
g1125
(lp1297
S'-'
aS'-'
asg1127
I01
sg1116
F103
sbag1
(g1281
g3
(lp1298
g73
ag85
ag35
atRp1299
(dp1300
g1125
(lp1301
S'-'
aS'-'
asg1127
I01
sg1116
F109.47122063449069
sbag1
(g1281
g3
(lp1302
g95
ag85
ag35
atRp1303
(dp1304
g1125
(lp1305
S'-'
aS'-'
asg1127
I01
sg1116
F109.47122063449069
sbag1
(g1281
g3
(lp1306
g290
ag85
ag35
atRp1307
(dp1308
g1125
(lp1309
S'-'
aS'-'
asg1127
I01
sg1116
F109.47122063449069
sbag1
(g1281
g3
(lp1310
g85
ag35
ag51
atRp1311
(dp1312
g1125
(lp1313
S'-'
aS'-'
asg1127
I01
sg1116
F109.47122063449069
sbag1
(g1281
g3
(lp1314
g695
ag35
ag51
atRp1315
(dp1316
g1125
(lp1317
S'-'
aS'-'
asg1127
I01
sg1116
F109.47122063449069
sbag1
(g1281
g3
(lp1318
g73
ag63
ag51
atRp1319
(dp1320
g1125
(lp1321
S'-'
aS'-'
asg1127
I01
sg1116
F109.47122063449069
sbag1
(g1281
g3
(lp1322
g365
ag63
ag51
atRp1323
(dp1324
g1125
(lp1325
S'-'
aS'-'
asg1127
I01
sg1116
F109.47122063449069
sbag1
(g1281
g3
(lp1326
g597
ag63
ag51
atRp1327
(dp1328
g1125
(lp1329
S'-'
aS'-'
asg1127
I01
sg1116
F109.47122063449069
sbag1
(g1281
g3
(lp1330
g85
ag73
ag63
atRp1331
(dp1332
g1125
(lp1333
S'-'
aS'-'
asg1127
I01
sg1116
F103
sbag1
(g1281
g3
(lp1334
g376
ag365
ag63
atRp1335
(dp1336
g1125
(lp1337
S'-'
aS'-'
asg1127
I01
sg1116
F120
sbag1
(g1281
g3
(lp1338
g441
ag365
ag63
atRp1339
(dp1340
g1125
(lp1341
S'-'
aS'-'
asg1127
I01
sg1116
F120
sbag1
(g1281
g3
(lp1342
g95
ag85
ag73
atRp1343
(dp1344
g1125
(lp1345
S'-'
aS'-'
asg1127
I01
sg1116
F109.47122063449069
sbag1
(g1281
g3
(lp1346
g290
ag85
ag73
atRp1347
(dp1348
g1125
(lp1349
S'-'
aS'-'
asg1127
I01
sg1116
F109.47122063449069
sbag1
(g1281
g3
(lp1350
g365
ag63
ag73
atRp1351
(dp1352
g1125
(lp1353
S'-'
aS'-'
asg1127
I01
sg1116
F109.47122063449069
sbag1
(g1281
g3
(lp1354
g597
ag63
ag73
atRp1355
(dp1356
g1125
(lp1357
S'-'
aS'-'
asg1127
I01
sg1116
F109.47122063449069
sbag1
(g1281
g3
(lp1358
g107
ag95
ag85
atRp1359
(dp1360
g1125
(lp1361
S'-'
aS'-'
asg1127
I01
sg1116
F108.129
sbag1
(g1281
g3
(lp1362
g695
ag35
ag85
atRp1363
(dp1364
g1125
(lp1365
S'-'
aS'-'
asg1127
I01
sg1116
F109.47122063449069
sbag1
(g1281
g3
(lp1366
g290
ag85
ag95
atRp1367
(dp1368
g1125
(lp1369
S'-'
aS'-'
asg1127
I01
sg1116
F109.47122063449069
sbag1
(g1281
g3
(lp1370
g139
ag107
ag95
atRp1371
(dp1372
g1125
(lp1373
S'-'
aS'-'
asg1127
I01
sg1116
F118.45999999999999
sbag1
(g1281
g3
(lp1374
g157
ag139
ag107
atRp1375
(dp1376
g1125
(lp1377
S'-'
aS'-'
asg1127
I01
sg1116
F120
sbag1
(g1281
g3
(lp1378
g191
ag139
ag107
atRp1379
(dp1380
g1125
(lp1381
S'-'
aS'-'
asg1127
I01
sg1116
F120
sbag1
(g1281
g3
(lp1382
g210
ag139
ag107
atRp1383
(dp1384
g1125
(lp1385
S'='
aS'-'
asg1127
I01
sg1116
F120
sbag1
(g1281
g3
(lp1386
g191
ag139
ag157
atRp1387
(dp1388
g1125
(lp1389
S'-'
aS'-'
asg1127
I01
sg1116
F120
sbag1
(g1281
g3
(lp1390
g210
ag139
ag157
atRp1391
(dp1392
g1125
(lp1393
S'='
aS'-'
asg1127
I01
sg1116
F120
sbag1
(g1281
g3
(lp1394
g210
ag139
ag191
atRp1395
(dp1396
g1125
(lp1397
S'='
aS'-'
asg1127
I01
sg1116
F120
sbag1
(g1281
g3
(lp1398
g597
ag63
ag365
atRp1399
(dp1400
g1125
(lp1401
S'-'
aS'-'
asg1127
I01
sg1116
F109.47122063449069
sbag1
(g1281
g3
(lp1402
g388
ag376
ag365
atRp1403
(dp1404
g1125
(lp1405
S'-'
aS'-'
asg1127
I01
sg1116
F120
sbag1
(g1281
g3
(lp1406
g431
ag441
ag365
atRp1407
(dp1408
g1125
(lp1409
S'-'
aS'-'
asg1127
I01
sg1116
F120
sbag1
(g1281
g3
(lp1410
g451
ag441
ag365
atRp1411
(dp1412
g1125
(lp1413
S'='
aS'-'
asg1127
I01
sg1116
F120
sbag1
(g1281
g3
(lp1414
g441
ag365
ag376
atRp1415
(dp1416
g1125
(lp1417
S'-'
aS'-'
asg1127
I01
sg1116
F120
sbag1
(g1281
g3
(lp1418
g400
ag388
ag376
atRp1419
(dp1420
g1125
(lp1421
S'-'
aS'-'
asg1127
I01
sg1116
F120
sbag1
(g1281
g3
(lp1422
g412
ag400
ag388
atRp1423
(dp1424
g1125
(lp1425
S'='
aS'-'
asg1127
I01
sg1116
F120
sbag1
(g1281
g3
(lp1426
g431
ag400
ag388
atRp1427
(dp1428
g1125
(lp1429
S'-'
aS'-'
asg1127
I01
sg1116
F120
sbag1
(g1281
g3
(lp1430
g441
ag431
ag400
atRp1431
(dp1432
g1125
(lp1433
S'-'
aS'-'
asg1127
I01
sg1116
F120
sbag1
(g1281
g3
(lp1434
g484
ag431
ag400
atRp1435
(dp1436
g1125
(lp1437
S'-'
aS'-'
asg1127
I01
sg1116
F120
sbag1
(g1281
g3
(lp1438
g431
ag400
ag412
atRp1439
(dp1440
g1125
(lp1441
S'-'
aS'='
asg1127
I01
sg1116
F120
sbag1
(g1281
g3
(lp1442
g451
ag441
ag431
atRp1443
(dp1444
g1125
(lp1445
S'='
aS'-'
asg1127
I01
sg1116
F120
sbag1
(g1281
g3
(lp1446
g484
ag431
ag441
atRp1447
(dp1448
g1125
(lp1449
S'-'
aS'-'
asg1127
I01
sg1116
F120
sbatRp1450
sS'dihedrals'
p1451
g1
(g1119
g3
(lp1452
g1
(celbow.chemistry.DihedralClass
DihedralClass
p1453
g3
(lp1454
g63
ag51
ag35
ag5
atRp1455
(dp1456
g1125
(lp1457
S'-'
aS'-'
aS'-'
asg1127
I00
sbag1
(g1453
g3
(lp1458
g73
ag85
ag35
ag5
atRp1459
(dp1460
g1125
(lp1461
S'-'
aS'-'
aS'-'
asg1127
I00
sbag1
(g1453
g3
(lp1462
g95
ag85
ag35
ag5
atRp1463
(dp1464
g1125
(lp1465
S'-'
aS'-'
aS'-'
asg1127
I00
sbag1
(g1453
g3
(lp1466
g290
ag85
ag35
ag5
atRp1467
(dp1468
g1125
(lp1469
S'-'
aS'-'
aS'-'
asg1127
I00
sbag1
(g1453
g3
(lp1470
g73
ag63
ag51
ag35
atRp1471
(dp1472
g1125
(lp1473
S'-'
aS'-'
aS'-'
asg1127
I00
sbag1
(g1453
g3
(lp1474
g365
ag63
ag51
ag35
atRp1475
(dp1476
g1125
(lp1477
S'-'
aS'-'
aS'-'
asg1127
I00
sbag1
(g1453
g3
(lp1478
g597
ag63
ag51
ag35
atRp1479
(dp1480
g1125
(lp1481
S'-'
aS'-'
aS'-'
asg1127
I00
sbag1
(g1453
g3
(lp1482
g63
ag73
ag85
ag35
atRp1483
(dp1484
g1125
(lp1485
S'-'
aS'-'
aS'-'
asg1127
I00
sbag1
(g1453
g3
(lp1486
g107
ag95
ag85
ag35
atRp1487
(dp1488
g1125
(lp1489
S'-'
aS'-'
aS'-'
asg1127
I00
sbag1
(g1453
g3
(lp1490
g73
ag85
ag35
ag51
atRp1491
(dp1492
g1125
(lp1493
S'-'
aS'-'
aS'-'
asg1127
I00
sbag1
(g1453
g3
(lp1494
g95
ag85
ag35
ag51
atRp1495
(dp1496
g1125
(lp1497
S'-'
aS'-'
aS'-'
asg1127
I00
sbag1
(g1453
g3
(lp1498
g290
ag85
ag35
ag51
atRp1499
(dp1500
g1125
(lp1501
S'-'
aS'-'
aS'-'
asg1127
I00
sbag1
(g1453
g3
(lp1502
g85
ag73
ag63
ag51
atRp1503
(dp1504
g1125
(lp1505
S'-'
aS'-'
aS'-'
asg1127
I00
sbag1
(g1453
g3
(lp1506
g376
ag365
ag63
ag51
atRp1507
(dp1508
g1125
(lp1509
S'-'
aS'-'
aS'-'
asg1127
I00
sbag1
(g1453
g3
(lp1510
g441
ag365
ag63
ag51
atRp1511
(dp1512
g1125
(lp1513
S'-'
aS'-'
aS'-'
asg1127
I00
sbag1
(g1453
g3
(lp1514
g85
ag35
ag51
ag63
atRp1515
(dp1516
g1125
(lp1517
S'-'
aS'-'
aS'-'
asg1127
I00
sbag1
(g1453
g3
(lp1518
g695
ag35
ag51
ag63
atRp1519
(dp1520
g1125
(lp1521
S'-'
aS'-'
aS'-'
asg1127
I00
sbag1
(g1453
g3
(lp1522
g95
ag85
ag73
ag63
atRp1523
(dp1524
g1125
(lp1525
S'-'
aS'-'
aS'-'
asg1127
I00
sbag1
(g1453
g3
(lp1526
g290
ag85
ag73
ag63
atRp1527
(dp1528
g1125
(lp1529
S'-'
aS'-'
aS'-'
asg1127
I00
sbag1
(g1453
g3
(lp1530
g388
ag376
ag365
ag63
atRp1531
(dp1532
g1125
(lp1533
S'-'
aS'-'
aS'-'
asg1127
I00
sbag1
(g1453
g3
(lp1534
g431
ag441
ag365
ag63
atRp1535
(dp1536
g1125
(lp1537
S'-'
aS'-'
aS'-'
asg1127
I00
sbag1
(g1453
g3
(lp1538
g451
ag441
ag365
ag63
atRp1539
(dp1540
g1125
(lp1541
S'='
aS'-'
aS'-'
asg1127
I00
sbag1
(g1453
g3
(lp1542
g107
ag95
ag85
ag73
atRp1543
(dp1544
g1125
(lp1545
S'-'
aS'-'
aS'-'
asg1127
I00
sbag1
(g1453
g3
(lp1546
g695
ag35
ag85
ag73
atRp1547
(dp1548
g1125
(lp1549
S'-'
aS'-'
aS'-'
asg1127
I00
sbag1
(g1453
g3
(lp1550
g376
ag365
ag63
ag73
atRp1551
(dp1552
g1125
(lp1553
S'-'
aS'-'
aS'-'
asg1127
I00
sbag1
(g1453
g3
(lp1554
g441
ag365
ag63
ag73
atRp1555
(dp1556
g1125
(lp1557
S'-'
aS'-'
aS'-'
asg1127
I00
sbag1
(g1453
g3
(lp1558
g365
ag63
ag73
ag85
atRp1559
(dp1560
g1125
(lp1561
S'-'
aS'-'
aS'-'
asg1127
I00
sbag1
(g1453
g3
(lp1562
g597
ag63
ag73
ag85
atRp1563
(dp1564
g1125
(lp1565
S'-'
aS'-'
aS'-'
asg1127
I00
sbag1
(g1453
g3
(lp1566
g139
ag107
ag95
ag85
atRp1567
(dp1568
g1125
(lp1569
S'-'
aS'-'
aS'-'
asg1127
I00
sbag1
(g1453
g3
(lp1570
g695
ag35
ag85
ag95
atRp1571
(dp1572
g1125
(lp1573
S'-'
aS'-'
aS'-'
asg1127
I00
sbag1
(g1453
g3
(lp1574
g157
ag139
ag107
ag95
atRp1575
(dp1576
g1125
(lp1577
S'-'
aS'-'
aS'-'
asg1127
I00
sbag1
(g1453
g3
(lp1578
g191
ag139
ag107
ag95
atRp1579
(dp1580
g1125
(lp1581
S'-'
aS'-'
aS'-'
asg1127
I00
sbag1
(g1453
g3
(lp1582
g210
ag139
ag107
ag95
atRp1583
(dp1584
g1125
(lp1585
S'='
aS'-'
aS'-'
asg1127
I00
sbag1
(g1453
g3
(lp1586
g290
ag85
ag95
ag107
atRp1587
(dp1588
g1125
(lp1589
S'-'
aS'-'
aS'-'
asg1127
I00
sbag1
(g1453
g3
(lp1590
g400
ag388
ag376
ag365
atRp1591
(dp1592
g1125
(lp1593
S'-'
aS'-'
aS'-'
asg1127
I00
sbag1
(g1453
g3
(lp1594
g400
ag431
ag441
ag365
atRp1595
(dp1596
g1125
(lp1597
S'-'
aS'-'
aS'-'
asg1127
I00
sbag1
(g1453
g3
(lp1598
g484
ag431
ag441
ag365
atRp1599
(dp1600
g1125
(lp1601
S'-'
aS'-'
aS'-'
asg1127
I01
sg1116
F180
sbag1
(g1453
g3
(lp1602
g597
ag63
ag365
ag376
atRp1603
(dp1604
g1125
(lp1605
S'-'
aS'-'
aS'-'
asg1127
I00
sbag1
(g1453
g3
(lp1606
g431
ag441
ag365
ag376
atRp1607
(dp1608
g1125
(lp1609
S'-'
aS'-'
aS'-'
asg1127
I00
sbag1
(g1453
g3
(lp1610
g451
ag441
ag365
ag376
atRp1611
(dp1612
g1125
(lp1613
S'='
aS'-'
aS'-'
asg1127
I00
sbag1
(g1453
g3
(lp1614
g412
ag400
ag388
ag376
atRp1615
(dp1616
g1125
(lp1617
S'='
aS'-'
aS'-'
asg1127
I00
sbag1
(g1453
g3
(lp1618
g431
ag400
ag388
ag376
atRp1619
(dp1620
g1125
(lp1621
S'-'
aS'-'
aS'-'
asg1127
I00
sbag1
(g1453
g3
(lp1622
g441
ag365
ag376
ag388
atRp1623
(dp1624
g1125
(lp1625
S'-'
aS'-'
aS'-'
asg1127
I00
sbag1
(g1453
g3
(lp1626
g441
ag431
ag400
ag388
atRp1627
(dp1628
g1125
(lp1629
S'-'
aS'-'
aS'-'
asg1127
I00
sbag1
(g1453
g3
(lp1630
g484
ag431
ag400
ag388
atRp1631
(dp1632
g1125
(lp1633
S'-'
aS'-'
aS'-'
asg1127
I01
sg1116
F180
sbag1
(g1453
g3
(lp1634
g451
ag441
ag431
ag400
atRp1635
(dp1636
g1125
(lp1637
S'='
aS'-'
aS'-'
asg1127
I00
sbag1
(g1453
g3
(lp1638
g441
ag431
ag400
ag412
atRp1639
(dp1640
g1125
(lp1641
S'-'
aS'-'
aS'='
asg1127
I00
sbag1
(g1453
g3
(lp1642
g484
ag431
ag400
ag412
atRp1643
(dp1644
g1125
(lp1645
S'-'
aS'-'
aS'='
asg1127
I00
sbag1
(g1453
g3
(lp1646
g597
ag63
ag365
ag441
atRp1647
(dp1648
g1125
(lp1649
S'-'
aS'-'
aS'-'
asg1127
I00
sbag1
(g1453
g3
(lp1650
g484
ag431
ag441
ag451
atRp1651
(dp1652
g1125
(lp1653
S'-'
aS'-'
aS'='
asg1127
I00
sbag1
(g1453
g3
(lp1654
g290
ag85
ag35
ag695
atRp1655
(dp1656
g1125
(lp1657
S'-'
aS'-'
aS'-'
asg1127
I00
sbatRp1658
sg836
I01
sg837
(dp1659
g839
(dp1660
g841
F0.25
sg842
I50
ssg843
(dp1661
g841
F1
sg842
F100
ssg845
(dp1662
g841
I10
sg842
F100
ssg847
(dp1663
g849
F0.10000000000000001
sg850
F100
sg841
F1.5
sg188
F50
sg851
F0.25
sg852
F0.20000000000000001
ssg853
(dp1664
g855
F10
sg841
F2
sg857
F10
sg856
F1
sg842
F200
ssg858
(dp1665
g842
F100
sssS'input_volume'
p1666
NsS'CIF_three_letter_code'
p1667
S'UMP'
p1668
sg871
I01
sS'chiral_atom'
p1669
g35
sS'zmatrix_class'
p1670
g1
(celbow.chemistry.ZMatrixClass
ZMatrixClass
p1671
g3
(lp1672
g1
(celbow.chemistry.ZMatrixClass
ZMatrixLine
p1673
g3
(lp1674
g35
atRp1675
(dp1676
S'added_atom'
p1677
I00
sS'variable_set'
p1678
I01
sS'angle_index'
p1679
I4
sS'bond_index'
p1680
I2
sS'dihedral_index'
p1681
I6
sS'variable'
p1682
(lp1683
I00
aI00
aI00
asS'ring'
p1684
I01
sg1116
Nsbag1
(g1673
g3
(lp1685
g5
ag35
aF1.339068127579383
atRp1686
(dp1687
g1677
I00
sg1678
I01
sg1679
I4
sg1680
I2
sg1681
I6
sg1682
(lp1688
I00
aI00
aI00
asg1684
I00
sg1116
F1.339068127579383
sbag1
(g1673
g3
(lp1689
g51
ag35
aF1.5354527687245689
ag5
aF110.19757163355088
atRp1690
(dp1691
g1677
I00
sg1678
I01
sg1679
I4
sg1680
I2
sg1681
I6
sg1682
(lp1692
I00
aI00
aI00
asg1684
I01
sg1116
F1.5354527687245689
sbag1
(g1673
g3
(lp1693
g85
ag35
aF1.5851190569346099
ag5
aF110.19756911519856
ag51
aF116.1603815811463
atRp1694
(dp1695
g1677
I00
sg1678
I01
sg1679
I4
sg1680
I2
sg1681
I6
sg1682
(lp1696
I00
aI00
aI00
asg1684
I01
sg1116
F1.5851190569346099
sbag1
(g1673
g3
(lp1697
g695
ag35
aF1.0833090000000001
ag5
aF110.52684261904795
ag51
aF-121.91809839027351
atRp1698
(dp1699
g1677
I00
sg1678
I01
sg1679
I4
sg1680
I2
sg1681
I6
sg1682
(lp1700
I00
aI00
aI00
asg1684
I00
sg1116
F1.0833090000000001
sbatRp1701
(dp1702
g836
I01
sg837
g1659
sg1117
g1111
sg1118
g1226
sg871
I01
sS'atoms'
p1703
(lp1704
g35
ag5
ag51
ag85
ag695
asS'restraint_class'
p1705
g983
sg1279
g1450
sS'use_parent_energise'
p1706
I01
sg1451
g1658
sbsg1705
g983
sS'original_order'
p1707
(lp1708
g695
ag35
ag5
ag85
ag51
asbsI2
g1
(g1109
g3
(lp1709
g597
ag63
ag51
ag73
ag365
atRp1710
(dp1711
g1113
(lp1712
g597
ag51
ag365
ag73
asg1115
I140419965866592
sg1116
F-2.386784318687651
sg1117
g783
sg1118
g1226
sg1227
(lp1713
I4
asg1229
(dp1714
S'c14:n13'
p1715
g1166
sS'c15:c14'
p1716
g1170
sS'c15:c16'
p1717
g1173
sS'C4:O5'
p1718
g1160
sS'O10:P9'
p1719
g1150
sS'C3:C2'
p1720
g1132
sS'H23:C6'
p1721
g1200
sS'c16:n18'
p1722
g1179
sS'C7:O8'
p1723
g1144
sS'C2:C6'
p1724
g1188
sS' C04: C03'
p1725
g1135
sS'O20:c19'
p1726
g1185
sS'C6:H23'
p1727
g1200
sS'H21:C2'
p1728
g1194
sS'P9:O11'
p1729
g1154
sS'P9:O10'
p1730
g1150
sS'n18:H24'
p1731
g1203
sS'P9:O12'
p1732
g1157
sS'C2:H21'
p1733
g1194
sS'C6:C7'
p1734
g1141
sS'O11:P9'
p1735
g1154
sS'C6:C2'
p1736
g1188
sS'C7:C6'
p1737
g1141
sS' C04: O05'
p1738
g1160
sS'c19:O20'
p1739
g1185
sS'C6:O5'
p1740
g1138
sS'O8:P9'
p1741
g1147
sS'C4:H22'
p1742
g1197
sS'C4:n13'
p1743
g1163
sS'O5:C6'
p1744
g1138
sS'n13:c19'
p1745
g1191
sS'c19:n18'
p1746
g1182
sS'O8:C7'
p1747
g1144
sS'O17:c16'
p1748
g1176
sS'H24:n18'
p1749
g1203
sS'c16:c15'
p1750
g1173
sS'c19:n13'
p1751
g1191
sS'C2:C3'
p1752
g1132
sS'n18:c16'
p1753
g1179
sS'c16:O17'
p1754
g1176
sS'O12:P9'
p1755
g1157
sS'c14:c15'
p1756
g1170
sS'O1:C2'
p1757
g1123
sS'n18:c19'
p1758
g1182
sS'n13:c14'
p1759
g1166
sS'P9:O8'
p1760
g1147
sS' C04: N13'
p1761
g1163
sS'C2:O1'
p1762
g1123
ssg1278
g597
sg1279
g1450
sg1451
g1658
sg836
I01
sg837
g1659
sg1666
Nsg1667
g1668
sg871
I01
sg1669
g63
sg1670
g1
(g1671
g3
(lp1763
g1
(g1673
g3
(lp1764
g63
atRp1765
(dp1766
g1680
I2
sg1681
I6
sg1678
I00
sg1682
(lp1767
I00
aI00
aI00
asg1684
I01
sg1679
I4
sg1116
Nsbag1
(g1673
g3
(lp1768
g51
ag63
aF1.527126
atRp1769
(dp1770
g1680
I2
sg1681
I6
sg1678
I00
sg1682
(lp1771
I00
aI00
aI00
asg1684
I01
sg1679
I4
sg1116
F1.527126
sbag1
(g1673
g3
(lp1772
g73
ag63
aF1.398717
ag51
aF109.47122063449069
atRp1773
(dp1774
g1680
I2
sg1681
I6
sg1678
I00
sg1682
(lp1775
I00
aI00
aI00
asg1684
I01
sg1679
I4
sg1116
F1.398717
sbag1
(g1673
g3
(lp1776
g365
ag63
aF1.4161250962517582
ag51
aF110.15657978899962
ag73
aF119.00179106000603
atRp1777
(dp1778
g1677
I00
sg1678
I01
sg1679
I4
sg1680
I2
sg1681
I6
sg1682
(lp1779
I00
aI00
aI00
asg1684
I01
sg1116
F1.4161250962517582
sbag1
(g1673
g3
(lp1780
g597
ag63
aF1.0833090000000001
ag51
aF110.08319829897361
ag73
aF-118.88451730995051
atRp1781
(dp1782
g1677
I00
sg1678
I01
sg1679
I4
sg1680
I2
sg1681
I6
sg1682
(lp1783
I00
aI00
aI00
asg1684
I00
sg1116
F1.0833090000000001
sbatRp1784
(dp1785
g836
I01
sg837
g1659
sg1117
g1710
sg1118
g1226
sg871
I01
sg1703
(lp1786
g63
ag51
ag73
ag365
ag597
asg1705
g1027
sg1279
g1450
sg1706
I01
sg1451
g1658
sbsg1705
g1027
sg1707
(lp1787
g597
ag63
ag51
ag73
ag365
asbsI3
g1
(g1109
g3
(lp1788
g290
ag85
ag73
ag35
ag95
atRp1789
(dp1790
g1113
(lp1791
g290
ag35
ag95
ag73
asg1115
I140420470288064
sg1116
F-2.5110833783732081
sg1117
g783
sg1118
g1226
sg1227
(lp1792
I6
asg1229
(dp1793
S'c14:n13'
p1794
g1166
sS'c15:c14'
p1795
g1170
sS'c15:c16'
p1796
g1173
sS'C4:O5'
p1797
g1160
sS'O10:P9'
p1798
g1150
sS'C3:C2'
p1799
g1132
sS'C3:C4'
p1800
g1135
sS'c16:n18'
p1801
g1179
sS'n18:c19'
p1802
g1182
sS'C2:C3'
p1803
g1132
sS'C7:O8'
p1804
g1144
sS'n13:C4'
p1805
g1163
sS'O20:c19'
p1806
g1185
sS'C4:C3'
p1807
g1135
sS'H21:C2'
p1808
g1194
sS'P9:O11'
p1809
g1154
sS'P9:O10'
p1810
g1150
sS'n18:H24'
p1811
g1203
sS'P9:O12'
p1812
g1157
sS'C2:H21'
p1813
g1194
sS'C6:C7'
p1814
g1141
sS'O11:P9'
p1815
g1154
sS'C6:C2'
p1816
g1188
sS'H22:C4'
p1817
g1197
sS'c16:c15'
p1818
g1173
sS'c19:O20'
p1819
g1185
sS' C06: O05'
p1820
g1138
sS'C4:H22'
p1821
g1197
sS'C4:n13'
p1822
g1163
sS'c14:c15'
p1823
g1170
sS'n13:c19'
p1824
g1191
sS'O5:C4'
p1825
g1160
sS'c19:n18'
p1826
g1182
sS'O8:C7'
p1827
g1144
sS'C6:H23'
p1828
g1200
sS'c19:n13'
p1829
g1191
sS'O8:P9'
p1830
g1147
sS'n18:c16'
p1831
g1179
sS'c16:O17'
p1832
g1176
sS'O12:P9'
p1833
g1157
sS' C06: C07'
p1834
g1141
sS'O1:C2'
p1835
g1123
sS' C06: C02'
p1836
g1188
sS'n13:c14'
p1837
g1166
sS'P9:O8'
p1838
g1147
sS'C2:O1'
p1839
g1123
ssg1278
g290
sg1279
g1450
sg1451
g1658
sg836
I01
sg837
g1659
sg1666
Nsg1667
g1668
sg871
I01
sg1669
g85
sg1670
g1
(g1671
g3
(lp1840
g1
(g1673
g3
(lp1841
g85
atRp1842
(dp1843
g1680
I2
sg1681
I6
sg1678
I00
sg1682
(lp1844
I00
aI00
aI00
asg1684
I01
sg1679
I4
sg1116
Nsbag1
(g1673
g3
(lp1845
g35
ag85
aF1.527126
atRp1846
(dp1847
g1680
I2
sg1681
I6
sg1678
I00
sg1682
(lp1848
I00
aI00
aI00
asg1684
I01
sg1679
I4
sg1116
F1.527126
sbag1
(g1673
g3
(lp1849
g73
ag85
aF1.398717
ag35
aF109.47122063449069
atRp1850
(dp1851
g1680
I2
sg1681
I6
sg1678
I00
sg1682
(lp1852
I00
aI00
aI00
asg1684
I01
sg1679
I4
sg1116
F1.398717
sbag1
(g1673
g3
(lp1853
g95
ag85
aF1.5404029163133983
ag35
aF110.14277496324667
ag73
aF-118.84675252488782
atRp1854
(dp1855
g1677
I00
sg1678
I01
sg1679
I4
sg1680
I2
sg1681
I6
sg1682
(lp1856
I00
aI00
aI00
asg1684
I00
sg1116
F1.5404029163133983
sbag1
(g1673
g3
(lp1857
g290
ag85
aF1.0833090000000001
ag35
aF110.1655218244793
ag73
aF118.88287288150029
atRp1858
(dp1859
g1677
I00
sg1678
I01
sg1679
I4
sg1680
I2
sg1681
I6
sg1682
(lp1860
I00
aI00
aI00
asg1684
I00
sg1116
F1.0833090000000001
sbatRp1861
(dp1862
g836
I01
sg837
g1659
sg1117
g1789
sg1118
g1226
sg871
I01
sg1703
(lp1863
g85
ag35
ag73
ag95
ag290
asg1705
g1064
sg1279
g1450
sg1706
I01
sg1451
g1658
sbsg1705
g1064
sg1707
(lp1864
g290
ag85
ag73
ag35
ag95
asbssS'ring_angles'
p1865
(lp1866
sS'invisible_plane'
p1867
g1
(celbow.chemistry.PeptideClass
PeptideClass
p1868
g3
(ltRp1869
(dp1870
g1705
g1
(g955
g956
(dtRp1871
(dp1872
g993
Nsg985
(dp1873
sg1000
I00
sg987
(lp1874
sg991
(dp1875
sbsS'dihedral_const_var_type'
p1876
(lp1877
sbsS'rotation_step'
p1878
I10
sg837
g1659
sS'CIF_name'
p1879
S'Unknown'
p1880
sS'EnergyTerms'
p1881
Nsg1667
g1668
sS'RotationSubUnits'
p1882
(dp1883
(I7
I6
tp1884
(lp1885
(ielbow.utilities.sets
Set
p1886
(dp1887
S'dict'
p1888
(dp1889
g250
I1
sg232
I1
sg157
I1
sg191
I1
sg139
I1
sg107
I1
sg210
I1
ssba(ielbow.utilities.sets
Set
p1890
(dp1891
g1888
(dp1892
g431
I1
sg63
I1
sg412
I1
sg400
I1
sg747
I1
sg365
I1
sg5
I1
sg484
I1
sg550
I1
sg523
I1
sg290
I1
sg376
I1
sg597
I1
sg658
I1
sg51
I1
sg441
I1
sg641
I1
sg388
I1
sg73
I1
sg35
I1
sg695
I1
sg451
I1
ssbas(I9
I8
tp1893
(lp1894
(ielbow.utilities.sets
Set
p1895
(dp1896
g1888
(dp1897
g157
I1
sg191
I1
sg210
I1
ssba(ielbow.utilities.sets
Set
p1898
(dp1899
g1888
(dp1900
g431
I1
sg63
I1
sg85
I1
sg484
I1
sg412
I1
sg400
I1
sg747
I1
sg365
I1
sg5
I1
sg232
I1
sg550
I1
sg250
I1
sg95
I1
sg523
I1
sg290
I1
sg376
I1
sg597
I1
sg658
I1
sg51
I1
sg441
I1
sg641
I1
sg388
I1
sg73
I1
sg35
I1
sg695
I1
sg451
I1
ssbas(I13
I4
tp1901
(lp1902
(ielbow.utilities.sets
Set
p1903
(dp1904
g1888
(dp1905
g523
I1
sg388
I1
sg431
I1
sg451
I1
sg484
I1
sg376
I1
sg412
I1
sg550
I1
sg400
I1
sg441
I1
ssba(ielbow.utilities.sets
Set
p1906
(dp1907
g1888
(dp1908
g641
I1
sg95
I1
sg191
I1
sg5
I1
sg73
I1
sg35
I1
sg290
I1
sg85
I1
sg232
I1
sg157
I1
sg695
I1
sg658
I1
sg250
I1
sg747
I1
sg139
I1
sg107
I1
sg51
I1
sg597
I1
sg210
I1
ssbas(I8
I7
tp1909
(lp1910
(ielbow.utilities.sets
Set
p1911
(dp1912
g1888
(dp1913
g139
I1
sg157
I1
sg191
I1
sg210
I1
ssba(ielbow.utilities.sets
Set
p1914
(dp1915
g1888
(dp1916
g431
I1
sg63
I1
sg85
I1
sg484
I1
sg412
I1
sg400
I1
sg747
I1
sg365
I1
sg5
I1
sg232
I1
sg550
I1
sg250
I1
sg523
I1
sg290
I1
sg376
I1
sg597
I1
sg658
I1
sg51
I1
sg441
I1
sg641
I1
sg388
I1
sg73
I1
sg35
I1
sg695
I1
sg451
I1
ssbassg116
I01
sS'ring_restraint'
p1917
g1
(celbow.chemistry.RingTopologyMixins
empty_dict
p1918
g956
(dp1919
I1
g1
(g955
g956
(dp1920
(I5
I4
tp1921
(lp1922
F1.398717
aF200
asI3
(F1.9561088085792502
F-0.4515506572417739
F1.2931893710811921
tp1923
sI4
(F1.1822197156612126
F-1.597079496952891
F0.51577916668274526
tp1924
sI5
(F0.05673945719363474
F-1.0059943447202986
F-0.027377049666074724
tp1925
sI6
(F0.29849409349974398
F0.36911868253155372
F-0.089950639587858774
tp1926
sI2
(F1.4170270833908372
F0.64296185867390132
F0.96968738441236579
tp1927
s(I4
I3
I2
tp1928
(lp1929
F106
aF10
as(I3
I2
tp1930
(lp1931
F1.527126
aF200
as(I3
I2
I6
tp1932
(lp1933
F106
aF10
as(I3
I2
I6
I5
tp1934
(lp1935
F25
aF1
aI10
a(F-55
tp1936
as(I5
I4
I3
I2
tp1937
(lp1938
F25
aF1
aI10
ag1936
as(I4
I3
I2
I6
tp1939
(lp1940
F25
aF1
aI10
ag1936
as(I6
I5
tp1941
(lp1942
F1.398717
aF200
as(I2
I6
I5
I4
tp1943
(lp1944
F25
aF1
aI10
ag1936
as(I2
I6
tp1945
(lp1946
F1.527126
aF200
as(I6
I5
I4
I3
tp1947
(lp1948
F25
aF1
aI10
ag1936
as(I2
I6
I5
tp1949
(lp1950
F106
aF10
as(I4
I3
tp1951
(lp1952
F1.527126
aF200
as(I6
I5
I4
tp1953
(lp1954
F106
aF10
as(I5
I4
I3
tp1955
(lp1956
F106
aF10
astRp1957
(dp1958
g993
Nsg985
(dp1959
I2
I0
sI3
I1
sI4
I2
sI5
I3
sI6
I4
ssg1000
I00
sg987
(lp1960
sg991
(dp1961
sbsI2
g1
(g955
g956
(dp1962
(I16
I15
I14
I13
tp1963
(lp1964
F0
aF10
aI0
as(I15
I14
I13
I19
tp1965
(lp1966
F0
aF10
aI0
asI13
(F1.9998780553722026
F-2.0424025718336649
F-0.61751597172199157
tp1967
sI14
(F1.4605536592280253
F-1.6732609430308854
F-1.7392438673746484
tp1968
sI15
(F2.2392170760649126
F-0.93509708084879972
F-2.6326973709652628
tp1969
sI16
(F3.5971962422894883
F-0.61588002599768865
F-2.2894031090423881
tp1970
sI18
(F4.0918450167425959
F-1.0193726154072906
F-1.1120280651403307
tp1971
sI19
(F3.3429614213227423
F-1.7007455755399539
F-0.31088576434025211
tp1972
s(I14
I13
tp1973
(lp1974
F1.321345
aF200
as(I14
I13
I19
I18
tp1975
(lp1976
F0
aF10
aI0
as(I13
I19
tp1977
(lp1978
F1.321345
aF200
as(I15
I14
tp1979
(lp1980
F1.385372
aF200
as(I18
I16
I15
I14
tp1981
(lp1982
F0
aF10
aI0
as(I19
I18
tp1983
(lp1984
F1.321345
aF200
as(I19
I18
I16
I15
tp1985
(lp1986
F0
aF10
aI0
as(I13
I19
I18
tp1987
(lp1988
F121.12229726750903
aF2
as(I16
I15
I14
tp1989
(lp1990
F118.27403714578351
aF2
as(I19
I18
I16
tp1991
(lp1992
F120.37858244966462
aF2
as(I14
I13
I19
tp1993
(lp1994
F121.83553809374231
aF2
as(I18
I16
I15
tp1995
(lp1996
F119.90097799014607
aF2
as(I18
I16
tp1997
(lp1998
F1.321345
aF200
as(I15
I14
I13
tp1999
(lp2000
F118.48856705315448
aF2
as(I16
I15
tp2001
(lp2002
F1.385372
aF200
as(I13
I19
I18
I16
tp2003
(lp2004
F0
aF10
aI0
astRp2005
(dp2006
g993
Nsg985
(dp2007
I13
I0
sI14
I1
sI15
I2
sI16
I3
sI18
I4
sI19
I5
ssg1000
I00
sg987
(lp2008
sg991
(dp2009
sbstRp2010
sS'loop_class'
p2011
(lp2012
sS'CIF_id'
p2013
S'UMP'
p2014
sg118
I-2
sS'residue_name'
p2015
g1100
sS'temp_pdb'
p2016
S'/tmp/tmpURZM7H'
p2017
sS'ring_dihedrals'
p2018
(lp2019
g1
(g1453
g3
(lp2020
g73
ag63
ag51
ag35
atRp2021
(dp2022
g1125
(lp2023
S'-'
aS'-'
aS'-'
asg1127
I00
sg1116
F0
sbag1
(g1453
g3
(lp2024
g85
ag73
ag63
ag51
atRp2025
(dp2026
g1125
(lp2027
S'-'
aS'-'
aS'-'
asg1127
I00
sg1116
F0
sbag1
(g1453
g3
(lp2028
g35
ag85
ag73
ag63
atRp2029
(dp2030
g1125
(lp2031
S'-'
aS'-'
aS'-'
asg1127
I00
sg1116
F0
sbag1
(g1453
g3
(lp2032
g51
ag35
ag85
ag73
atRp2033
(dp2034
g1125
(lp2035
S'-'
aS'-'
aS'-'
asg1127
I00
sg1116
F0
sbag1
(g1453
g3
(lp2036
g63
ag51
ag35
ag85
atRp2037
(dp2038
g1125
(lp2039
S'-'
aS'-'
aS'-'
asg1127
I00
sg1116
F0
sbag1
(g1453
g3
(lp2040
g400
ag388
ag376
ag365
atRp2041
(dp2042
g1125
(lp2043
S':'
aS':'
aS':'
asg1127
I00
sg1116
F0
sbag1
(g1453
g3
(lp2044
g431
ag400
ag388
ag376
atRp2045
(dp2046
g1125
(lp2047
S':'
aS':'
aS':'
asg1127
I00
sg1116
F0
sbag1
(g1453
g3
(lp2048
g441
ag431
ag400
ag388
atRp2049
(dp2050
g1125
(lp2051
S':'
aS':'
aS':'
asg1127
I00
sg1116
F0
sbag1
(g1453
g3
(lp2052
g365
ag441
ag431
ag400
atRp2053
(dp2054
g1125
(lp2055
S':'
aS':'
aS':'
asg1127
I00
sg1116
F0
sbag1
(g1453
g3
(lp2056
g376
ag365
ag441
ag431
atRp2057
(dp2058
g1125
(lp2059
S':'
aS':'
aS':'
asg1127
I00
sg1116
F0
sbag1
(g1453
g3
(lp2060
g388
ag376
ag365
ag441
atRp2061
(dp2062
g1125
(lp2063
S':'
aS':'
aS':'
asg1127
I00
sg1116
F0
sbasS'maximum_bond_length'
p2064
F3
sS'peptide_class'
p2065
g1
(g1868
g3
(ltRp2066
(dp2067
g1705
g1
(g955
g956
(dtRp2068
(dp2069
g993
Nsg985
(dp2070
sg1000
I00
sg987
(lp2071
sg991
(dp2072
sbsg1876
(lp2073
sbsg874
(dp2074
g853
(dp2075
g841
(dp2076
I3
F60
sI4
F90
sI5
F106
sI6
F113
ssg878
(dp2077
I5
(lp2078
F25
aI10
asI6
(lp2079
F55
aI1
assssS'molecule_number'
p2080
I0
sS'ring_zmatrix'
p2081
(dp2082
I1
g1
(g1671
g3
(lp2083
g1
(g1673
g3
(lp2084
g35
atRp2085
(dp2086
g1680
I2
sg1681
I6
sg1678
I00
sg1682
(lp2087
I00
aI00
aI00
asg1684
I01
sg1679
I4
sg1116
Nsbag1
(g1673
g3
(lp2088
g51
ag35
aF1.6000000000000001
atRp2089
(dp2090
g1680
I2
sg1681
I6
sg1678
I00
sg1682
(lp2091
I00
aI00
aI00
asg1684
I01
sg1679
I4
sg1116
F1.6000000000000001
sbag1
(g1673
g3
(lp2092
g63
ag51
aF1.3220207743005361
ag35
aF105.48072382379803
ag5
aF106.79413268121884
atRp2093
(dp2094
g1677
I00
sg1678
I01
sg1679
I4
sg1680
I2
sg1681
I6
sg1682
(lp2095
I00
aI00
aI00
asg1684
I01
sg1116
F1.3220207743005361
sbag1
(g1673
g3
(lp2096
g73
ag63
aF1.6438135528257518
ag51
aF105.75900670791322
ag35
aF27.074166996174835
atRp2097
(dp2098
g1677
I00
sg1678
I01
sg1679
I4
sg1680
I2
sg1681
I6
sg1682
(lp2099
I00
aI00
aI00
asg1684
I01
sg1116
F1.6438135528257518
sbag1
(g1673
g3
(lp2100
g85
ag35
aF1.6000000000000001
ag51
aF108
ag63
aF0
atRp2101
(dp2102
g1680
I2
sg1681
I6
sg1678
I00
sg1682
(lp2103
I00
aI00
aI00
asg1684
I01
sg1679
I4
sg1116
F1.6000000000000001
sbatRp2104
(dp2105
g836
I01
sg837
g1659
sg1117
g783
sg1118
g1226
sg871
I01
sg1703
(lp2106
g35
ag51
ag63
ag73
ag85
asg1705
g1
(g955
g956
(dp2107
(I5
I4
tp2108
(lp2109
F1.398717
aF200
asI3
(F-1.6651772651325869
F1.3943664165037868
F-0.49794699385870972
tp2110
sI4
(F-0.21833347031322226
F1.6794841804104876
F-0.86212383316405417
tp2111
sI5
(F0.33622857910330173
F1.9708785127860378
F0.19482225423534444
tp2112
sI6
(F-0.4795637316501894
F1.2317703712230736
F1.323238957499127
tp2113
sI2
(F-1.6890821678313814
F1.2973694082547043
F0.97133257599907208
tp2114
s(I4
I3
I2
tp2115
(lp2116
F106
aF10
as(I3
I2
tp2117
(lp2118
F1.527126
aF200
as(I3
I2
I6
tp2119
(lp2120
F106
aF10
as(I3
I2
I6
I5
tp2121
(lp2122
F25
aF1
aI10
ag1936
as(I5
I4
I3
I2
tp2123
(lp2124
F25
aF1
aI10
ag1936
as(I4
I3
I2
I6
tp2125
(lp2126
F25
aF1
aI10
ag1936
as(I6
I5
tp2127
(lp2128
F1.398717
aF200
as(I2
I6
I5
I4
tp2129
(lp2130
F25
aF1
aI10
ag1936
as(I2
I6
tp2131
(lp2132
F1.527126
aF200
as(I6
I5
I4
I3
tp2133
(lp2134
F25
aF1
aI10
ag1936
as(I2
I6
I5
tp2135
(lp2136
F106
aF10
as(I4
I3
tp2137
(lp2138
F1.527126
aF200
as(I6
I5
I4
tp2139
(lp2140
F106
aF10
as(I5
I4
I3
tp2141
(lp2142
F106
aF10
astRp2143
(dp2144
g993
Nsg985
(dp2145
I2
I0
sI3
I1
sI4
I2
sI5
I3
sI6
I4
ssg1000
I00
sg987
(lp2146
sg991
(dp2147
sbsg1279
g1450
sg1706
I01
sg1451
g1658
sbsI2
g1
(g1671
g3
(lp2148
g1
(g1673
g3
(lp2149
g365
atRp2150
(dp2151
g1680
I2
sg1681
I6
sg1678
I00
sg1682
(lp2152
I00
aI00
aI00
asg1684
I01
sg1679
I4
sg1116
Nsbag1
(g1673
g3
(lp2153
g376
ag365
aF1.3221586584432157
ag63
aF119.07600527644964
ag51
aF-34.843783096295603
atRp2154
(dp2155
g1677
I01
sg1678
I01
sg1679
I4
sg1680
I2
sg1681
I6
sg1682
(lp2156
I00
aI00
aI00
asg1684
I01
sg1116
F1.3221586584432157
sbag1
(g1673
g3
(lp2157
g388
ag376
aF1.3853594067826078
ag365
aF118.47456554847466
ag63
aI180
atRp2158
(dp2159
g1677
I01
sg1678
I01
sg1679
I4
sg1680
I2
sg1681
I6
sg1682
(lp2160
I00
aI00
aI00
asg1684
I01
sg1116
F1.3853594067826078
sbag1
(g1673
g3
(lp2161
g400
ag388
aF1.3853763087005815
ag376
aF118.27533303981681
ag365
aI0
atRp2162
(dp2163
g1677
I01
sg1678
I01
sg1679
I4
sg1680
I2
sg1681
I6
sg1682
(lp2164
I00
aI00
aI00
asg1684
I01
sg1116
F1.3853763087005815
sbag1
(g1673
g3
(lp2165
g431
ag400
aF1.3215537685342873
ag388
aF119.90877209397674
ag376
aI0
atRp2166
(dp2167
g1677
I01
sg1678
I01
sg1679
I4
sg1680
I2
sg1681
I6
sg1682
(lp2168
I00
aI00
aI00
asg1684
I01
sg1116
F1.3215537685342873
sbag1
(g1673
g3
(lp2169
g441
ag365
aF1.3211827074143645
ag376
aF121.83608362490695
ag388
aI0
atRp2170
(dp2171
g1677
I01
sg1678
I01
sg1679
I4
sg1680
I2
sg1681
I6
sg1682
(lp2172
I00
aI00
aI00
asg1684
I01
sg1116
F1.3211827074143645
sbatRp2173
(dp2174
g836
I01
sg837
g1659
sg1117
g783
sg1118
g1226
sg871
I01
sg1703
(lp2175
g365
ag376
ag388
ag400
ag431
ag441
asg1705
g1
(g955
g956
(dp2176
(I16
I15
I14
I13
tp2177
(lp2178
F0
aF10
aI0
as(I15
I14
I13
I19
tp2179
(lp2180
F0
aF10
aI0
asI13
(F0.35894644422657884
F0.58945915259645609
F-1.4146434672318238
tp2181
sI14
(F0.058070466567297085
F-0.61630844223819703
F-0.965251506446962
tp2182
sI15
(F0.67053921539685657
F-1.7053583983718243
F-1.4872808626578922
tp2183
sI16
(F1.5909080359052883
F-1.5577945211259614
F-2.4694974778669789
tp2184
sI18
(F1.8906341674972613
F-0.35147706809498636
F-2.9177462918370964
tp2185
sI19
(F1.2783972162753821
F0.73579407042893008
F-2.3957604364826812
tp2186
s(I14
I13
tp2187
(lp2188
F1.321345
aF200
as(I14
I13
I19
I18
tp2189
(lp2190
F0
aF10
aI0
as(I13
I19
tp2191
(lp2192
F1.321345
aF200
as(I15
I14
tp2193
(lp2194
F1.385372
aF200
as(I18
I16
I15
I14
tp2195
(lp2196
F0
aF10
aI0
as(I19
I18
tp2197
(lp2198
F1.321345
aF200
as(I19
I18
I16
I15
tp2199
(lp2200
F0
aF10
aI0
as(I13
I19
I18
tp2201
(lp2202
F121.12229726750903
aF2
as(I16
I15
I14
tp2203
(lp2204
F118.27403714578351
aF2
as(I19
I18
I16
tp2205
(lp2206
F120.37858244966462
aF2
as(I14
I13
I19
tp2207
(lp2208
F121.83553809374231
aF2
as(I18
I16
I15
tp2209
(lp2210
F119.90097799014607
aF2
as(I18
I16
tp2211
(lp2212
F1.321345
aF200
as(I15
I14
I13
tp2213
(lp2214
F118.48856705315448
aF2
as(I16
I15
tp2215
(lp2216
F1.385372
aF200
as(I13
I19
I18
I16
tp2217
(lp2218
F0
aF10
aI0
astRp2219
(dp2220
g993
Nsg985
(dp2221
I13
I0
sI14
I1
sI15
I2
sI16
I3
sI18
I4
sI19
I5
ssg1000
I00
sg987
(lp2222
sg991
(dp2223
sbsg1279
g1450
sg1706
I01
sg1451
g1658
sbssS'chiral_zmatrix'
p2224
(dp2225
I1
g1701
sI2
g1784
sI3
g1861
ssS'trace'
p2226
(dp2227
I0
(dp2228
S'H'
I1
sssS'filename_preamble'
p2229
S'UMP'
p2230
sS'start_time'
p2231
F1580859915.8906231
sS'old_ring_dihedrals'
p2232
g2019
sS'UseCIFWeights'
p2233
I01
sg863
(lp2234
sS'ring_class'
p2235
(lp2236
g1
(g791
g3
(lp2237
(lp2238
g35
ag51
ag63
ag73
ag85
aatRp2239
(dp2240
g836
I01
sg837
g1659
sg871
I01
sS'random_non_aromatic_angle'
p2241
I00
sg861
(lp2242
sg869
(lp2243
F0
aF0
aF0
aF0
aF0
aF0
asg865
(lp2244
sg1705
g1957
sg867
(dp2245
sg863
(lp2246
sg860
I00
sg872
I01
sg873
I7
sg874
g2074
sS'ideal_ring_angles'
p2247
(lp2248
g1
(celbow.chemistry.RingClass
RingCircle
p2249
g3
(lp2250
(ielbow.chemistry.RingClass
empty
p2251
(dp2252
g175
I2
sg337
I0
sg11
(ielbow.chemistry.xyzClass
xyzClass
p2253
(dp2254
g14
I0
sg15
F57.295779513082323
sS'y'
F-1.1011055363769386
sS'x'
F0.80000000000000004
sg16
g798
sS'z'
F0
sbsg47
I00
sg184
S'C'
sg16
(ielbow.chemistry.xyzClass
xyzClass
p2255
(dp2256
g14
I0
sg15
F57.295779513082323
sS'y'
F2.2204460492503131e-16
sS'x'
F0.00017304587204403088
sg16
(F0.00017304587204403088
F2.2204460492503131e-16
I0
tp2257
sS'z'
I0
sbsg323
I01
sba(ielbow.chemistry.RingClass
empty
p2258
(dp2259
g175
I3
sg337
I1
sg11
(ielbow.chemistry.xyzClass
xyzClass
p2260
(dp2261
g14
I0
sg15
F57.295779513082323
sS'y'
F0.42058488969530705
sS'x'
F1.2944271909999159
sg16
g806
sS'z'
F0
sbsg47
I00
sg184
S'C'
sg16
(ielbow.chemistry.xyzClass
xyzClass
p2262
(dp2263
g14
I0
sg15
F57.295779513082323
sS'y'
I0
sS'x'
F1.527126
sg16
(F1.527126
I0
I0
tp2264
sS'z'
I0
sbsg323
I01
sba(ielbow.chemistry.RingClass
empty
p2265
(dp2266
g175
I4
sg337
I0
sg11
(ielbow.chemistry.xyzClass
xyzClass
p2267
(dp2268
g14
I0
sg15
F57.295779513082323
sS'y'
F1.3610412933632641
sS'x'
F-2.2204460492503131e-16
sg16
g814
sS'z'
F0
sbsg47
I00
sg184
S'C'
sg16
(ielbow.chemistry.xyzClass
xyzClass
p2269
(dp2270
g14
I0
sg15
F57.295779513082323
sS'y'
F1.4766767067336544
sS'x'
F1.916407034300734
sg16
(F1.916407034300734
F1.4766767067336544
I0
tp2271
sS'z'
I0
sbsg323
I01
sba(ielbow.chemistry.RingClass
empty
p2272
(dp2273
g175
I5
sg337
I1
sg11
(ielbow.chemistry.xyzClass
xyzClass
p2274
(dp2275
g14
I0
sg15
F57.295779513082323
sS'y'
F0.42058488969530683
sS'x'
F-1.2944271909999161
sg16
g822
sS'z'
F0
sbsg47
I00
sg184
S'O'
sg16
(ielbow.chemistry.xyzClass
xyzClass
p2276
(dp2277
g14
I0
sg15
F57.295779513082323
sS'y'
F2.2662766023347842
sS'x'
F0.76187628505423399
sg16
(F0.76187628505423399
F2.2662766023347842
I0
tp2278
sS'z'
I0
sbsg323
I01
sba(ielbow.chemistry.RingClass
empty
p2279
(dp2280
g175
I6
sg337
I0
sg11
(ielbow.chemistry.xyzClass
xyzClass
p2281
(dp2282
g14
I0
sg15
F57.295779513082323
sS'y'
F-1.1011055363769389
sS'x'
F-0.80000000000000004
sg16
g830
sS'z'
F0
sbsg47
I00
sg184
S'C'
sg16
(ielbow.chemistry.xyzClass
xyzClass
p2283
(dp2284
g14
I0
sg15
F57.295779513082323
sS'y'
F1.4758819201149311
sS'x'
F-0.39211049667577247
sg16
(F-0.39211049667577247
F1.4758819201149311
I0
tp2285
sS'z'
I0
sbsg323
I01
sbatRp2286
(dp2287
g1118
(lp2288
F1.527126
aF1.527126
aF1.398717
aF1.398717
aF1.527126
asbasbag1
(g791
g3
(lp2289
(lp2290
g365
ag376
ag388
ag400
ag431
ag441
aatRp2291
(dp2292
g836
I01
sg837
g1659
sg860
I00
sg861
(lp2293
sg869
(lp2294
F0
aF0
aF0
aF0
aF0
aF0
asg865
(lp2295
sg1705
g2005
sg867
(dp2296
sg863
(lp2297
sg871
I01
sg872
I01
sg873
I7
sg874
g2074
sg2247
(lp2298
g1
(g2249
g3
(lp2299
(ielbow.chemistry.RingClass
empty
p2300
(dp2301
g175
I13
sg337
I0
sg11
(ielbow.chemistry.xyzClass
xyzClass
p2302
(dp2303
g14
I0
sg15
F57.295779513082323
sS'y'
F-1.3856406460551023
sS'x'
F0.80000000000000082
sg16
g888
sS'z'
F0
sbsg47
I00
sg184
S'n'
sg16
(ielbow.chemistry.xyzClass
xyzClass
p2304
(dp2305
g14
I1
sg15
F57.295779513082323
sS'y'
F1.1102230246251565e-15
sS'x'
F-5.3628094268898252e-05
sg16
(F-5.3628094268898252e-05
F1.1102230246251565e-15
I0
tp2306
sS'z'
I0
sbsg323
I01
sba(ielbow.chemistry.RingClass
empty
p2307
(dp2308
g175
I14
sg337
I1
sg11
(ielbow.chemistry.xyzClass
xyzClass
p2309
(dp2310
g14
I0
sg15
F57.295779513082323
sS'y'
F4.4408920985006262e-16
sS'x'
F1.6000000000000005
sg16
g896
sS'z'
F0
sbsg47
I00
sg184
S'c'
sg16
(ielbow.chemistry.xyzClass
xyzClass
p2311
(dp2312
g14
I1
sg15
F57.295779513082323
sS'y'
I0
sS'x'
F1.321345
sg16
(F1.321345
I0
I0
tp2313
sS'z'
I0
sbsg323
I01
sba(ielbow.chemistry.RingClass
empty
p2314
(dp2315
g175
I15
sg337
I0
sg11
(ielbow.chemistry.xyzClass
xyzClass
p2316
(dp2317
g14
I0
sg15
F57.295779513082323
sS'y'
F1.3856406460551023
sS'x'
F0.79999999999999971
sg16
g904
sS'z'
F0
sbsg47
I00
sg184
S'c'
sg16
(ielbow.chemistry.xyzClass
xyzClass
p2318
(dp2319
g14
I1
sg15
F57.295779513082323
sS'y'
F1.2176205028570568
sS'x'
F1.982144432056451
sg16
(F1.982144432056451
F1.2176205028570568
I0
tp2320
sS'z'
I0
sbsg323
I01
sba(ielbow.chemistry.RingClass
empty
p2321
(dp2322
g175
I16
sg337
I1
sg11
(ielbow.chemistry.xyzClass
xyzClass
p2323
(dp2324
g14
I0
sg15
F57.295779513082323
sS'y'
F1.3856406460551018
sS'x'
F-0.8000000000000006
sg16
g912
sS'z'
F0
sbsg184
S'c'
sg323
I01
sg47
I00
sg16
(ielbow.chemistry.xyzClass
xyzClass
p2325
(dp2326
g14
I1
sg15
F57.295779513082323
sS'y'
F2.376354997372971
sS'x'
F1.2228092296570434
sg16
(F1.2228092296570434
F2.376354997372971
I0
tp2327
sS'z'
I0
sbsg470
I01
sba(ielbow.chemistry.RingClass
empty
p2328
(dp2329
g175
I18
sg337
I0
sg11
(ielbow.chemistry.xyzClass
xyzClass
p2330
(dp2331
g14
I0
sg15
F57.295779513082323
sS'y'
F-4.4408920985006262e-16
sS'x'
F-1.6000000000000005
sg16
g920
sS'z'
F0
sbsg47
I00
sg184
S'n'
sg16
(ielbow.chemistry.xyzClass
xyzClass
p2332
(dp2333
g14
I1
sg15
F57.295779513082323
sS'y'
F2.2994546052052485
sS'x'
F-0.096296125767401319
sg16
(F-0.096296125767401319
F2.2994546052052485
I0
tp2334
sS'z'
I0
sbsg323
I01
sba(ielbow.chemistry.RingClass
empty
p2335
(dp2336
g175
I19
sg337
I1
sg11
(ielbow.chemistry.xyzClass
xyzClass
p2337
(dp2338
g14
I0
sg15
F57.295779513082323
sS'y'
F-1.3856406460551023
sS'x'
F-0.80000000000000016
sg16
g928
sS'z'
F0
sbsg184
S'c'
sg323
I01
sg47
I00
sg16
(ielbow.chemistry.xyzClass
xyzClass
p2339
(dp2340
g14
I1
sg15
F57.295779513082323
sS'y'
F1.1225693656017188
sS'x'
F-0.69704044894352801
sg16
(F-0.69704044894352801
F1.1225693656017188
I0
tp2341
sS'z'
I0
sbsg470
I01
sbatRp2342
(dp2343
g1118
(lp2344
F1.321345
aF1.385372
aF1.385372
aF1.321345
aF1.321345
aF1.321345
asbasbasg1279
g1
(g1119
g3
(lp2345
g1283
ag1287
ag1291
ag1295
ag1299
ag1303
ag1307
ag1311
ag1315
ag1319
ag1323
ag1327
ag1331
ag1335
ag1339
ag1343
ag1347
ag1351
ag1355
ag1359
ag1363
ag1367
ag1371
ag1375
ag1379
ag1383
ag1387
ag1391
ag1395
ag1399
ag1403
ag1407
ag1411
ag1415
ag1419
ag1423
ag1427
ag1431
ag1435
ag1439
ag1443
ag1447
ag1
(g1281
g3
(lp2346
g747
ag5
ag35
atRp2347
(dp2348
g1125
(lp2349
S'-'
aS'-'
asg1127
I01
sg1116
F109.47122063449069
sbag1
(g1281
g3
(lp2350
g641
ag51
ag35
atRp2351
(dp2352
g1125
(lp2353
S'-'
aS'-'
asg1127
I01
sg1116
F109.47122063449069
sbag1
(g1281
g3
(lp2354
g658
ag51
ag35
atRp2355
(dp2356
g1125
(lp2357
S'-'
aS'-'
asg1127
I01
sg1116
F109.47122063449069
sbag1
(g1281
g3
(lp2358
g641
ag51
ag63
atRp2359
(dp2360
g1125
(lp2361
S'-'
aS'-'
asg1127
I01
sg1116
F109.47122063449069
sbag1
(g1281
g3
(lp2362
g658
ag51
ag63
atRp2363
(dp2364
g1125
(lp2365
S'-'
aS'-'
asg1127
I01
sg1116
F109.47122063449069
sbag1
(g1281
g3
(lp2366
g232
ag95
ag85
atRp2367
(dp2368
g1125
(lp2369
S'-'
aS'-'
asg1127
I01
sg1116
F109.47122063449069
sbag1
(g1281
g3
(lp2370
g250
ag95
ag85
atRp2371
(dp2372
g1125
(lp2373
S'-'
aS'-'
asg1127
I01
sg1116
F109.47122063449069
sbag1
(g1281
g3
(lp2374
g232
ag95
ag107
atRp2375
(dp2376
g1125
(lp2377
S'-'
aS'-'
asg1127
I01
sg1116
F109.47122063449069
sbag1
(g1281
g3
(lp2378
g250
ag95
ag107
atRp2379
(dp2380
g1125
(lp2381
S'-'
aS'-'
asg1127
I01
sg1116
F109.47122063449069
sbag1
(g1281
g3
(lp2382
g550
ag376
ag365
atRp2383
(dp2384
g1125
(lp2385
S'-'
aS':'
asg1127
I01
sg1116
F120
sbag1
(g1281
g3
(lp2386
g523
ag388
ag376
atRp2387
(dp2388
g1125
(lp2389
S'-'
aS':'
asg1127
I01
sg1116
F120
sbag1
(g1281
g3
(lp2390
g550
ag376
ag388
atRp2391
(dp2392
g1125
(lp2393
S'-'
aS':'
asg1127
I01
sg1116
F120
sbag1
(g1281
g3
(lp2394
g523
ag388
ag400
atRp2395
(dp2396
g1125
(lp2397
S'-'
aS':'
asg1127
I01
sg1116
F120
sbag1
(g1281
g3
(lp2398
g658
ag51
ag641
atRp2399
(dp2400
g1125
(lp2401
S'-'
aS'-'
asg1127
I01
sg1116
F109.47122063449069
sbag1
(g1281
g3
(lp2402
g250
ag95
ag232
atRp2403
(dp2404
g1125
(lp2405
S'-'
aS'-'
asg1127
I01
sg1116
F109.47122063449069
sbatRp2406
sg1118
g1226
sS'used_auto_bond'
p2407
I00
sg1451
g1
(g1119
g3
(lp2408
g1455
ag1459
ag1463
ag1467
ag1471
ag1475
ag1479
ag1483
ag1487
ag1491
ag1495
ag1499
ag1503
ag1507
ag1511
ag1515
ag1519
ag1523
ag1527
ag1531
ag1535
ag1539
ag1543
ag1547
ag1551
ag1555
ag1559
ag1563
ag1567
ag1571
ag1575
ag1579
ag1583
ag1587
ag1591
ag1595
ag1599
ag1603
ag1607
ag1611
ag1615
ag1619
ag1623
ag1627
ag1631
ag1635
ag1639
ag1643
ag1647
ag1651
ag1655
ag1
(g1453
g3
(lp2409
g641
ag51
ag35
ag5
atRp2410
(dp2411
g1125
(lp2412
S'-'
aS'-'
aS'-'
asg1127
I00
sbag1
(g1453
g3
(lp2413
g658
ag51
ag35
ag5
atRp2414
(dp2415
g1125
(lp2416
S'-'
aS'-'
aS'-'
asg1127
I00
sbag1
(g1453
g3
(lp2417
g232
ag95
ag85
ag35
atRp2418
(dp2419
g1125
(lp2420
S'-'
aS'-'
aS'-'
asg1127
I00
sbag1
(g1453
g3
(lp2421
g250
ag95
ag85
ag35
atRp2422
(dp2423
g1125
(lp2424
S'-'
aS'-'
aS'-'
asg1127
I00
sbag1
(g1453
g3
(lp2425
g747
ag5
ag35
ag51
atRp2426
(dp2427
g1125
(lp2428
S'-'
aS'-'
aS'-'
asg1127
I00
sbag1
(g1453
g3
(lp2429
g550
ag376
ag365
ag63
atRp2430
(dp2431
g1125
(lp2432
S'-'
aS':'
aS'-'
asg1127
I00
sbag1
(g1453
g3
(lp2433
g232
ag95
ag85
ag73
atRp2434
(dp2435
g1125
(lp2436
S'-'
aS'-'
aS'-'
asg1127
I00
sbag1
(g1453
g3
(lp2437
g250
ag95
ag85
ag73
atRp2438
(dp2439
g1125
(lp2440
S'-'
aS'-'
aS'-'
asg1127
I00
sbag1
(g1453
g3
(lp2441
g641
ag51
ag63
ag73
atRp2442
(dp2443
g1125
(lp2444
S'-'
aS'-'
aS'-'
asg1127
I00
sbag1
(g1453
g3
(lp2445
g658
ag51
ag63
ag73
atRp2446
(dp2447
g1125
(lp2448
S'-'
aS'-'
aS'-'
asg1127
I00
sbag1
(g1453
g3
(lp2449
g747
ag5
ag35
ag85
atRp2450
(dp2451
g1125
(lp2452
S'-'
aS'-'
aS'-'
asg1127
I00
sbag1
(g1453
g3
(lp2453
g641
ag51
ag35
ag85
atRp2454
(dp2455
g1125
(lp2456
S'-'
aS'-'
aS'-'
asg1127
I00
sbag1
(g1453
g3
(lp2457
g658
ag51
ag35
ag85
atRp2458
(dp2459
g1125
(lp2460
S'-'
aS'-'
aS'-'
asg1127
I00
sbag1
(g1453
g3
(lp2461
g232
ag95
ag107
ag139
atRp2462
(dp2463
g1125
(lp2464
S'-'
aS'-'
aS'-'
asg1127
I00
sbag1
(g1453
g3
(lp2465
g250
ag95
ag107
ag139
atRp2466
(dp2467
g1125
(lp2468
S'-'
aS'-'
aS'-'
asg1127
I00
sbag1
(g1453
g3
(lp2469
g641
ag51
ag63
ag365
atRp2470
(dp2471
g1125
(lp2472
S'-'
aS'-'
aS'-'
asg1127
I00
sbag1
(g1453
g3
(lp2473
g658
ag51
ag63
ag365
atRp2474
(dp2475
g1125
(lp2476
S'-'
aS'-'
aS'-'
asg1127
I00
sbag1
(g1453
g3
(lp2477
g523
ag388
ag376
ag365
atRp2478
(dp2479
g1125
(lp2480
S'-'
aS':'
aS':'
asg1127
I01
sg1116
F180
sbag1
(g1453
g3
(lp2481
g550
ag376
ag388
ag400
atRp2482
(dp2483
g1125
(lp2484
S'-'
aS':'
aS':'
asg1127
I01
sg1116
F180
sbag1
(g1453
g3
(lp2485
g523
ag388
ag400
ag412
atRp2486
(dp2487
g1125
(lp2488
S'-'
aS':'
aS'='
asg1127
I00
sbag1
(g1453
g3
(lp2489
g523
ag388
ag400
ag431
atRp2490
(dp2491
g1125
(lp2492
S'-'
aS':'
aS':'
asg1127
I00
sbag1
(g1453
g3
(lp2493
g550
ag376
ag365
ag441
atRp2494
(dp2495
g1125
(lp2496
S'-'
aS':'
aS':'
asg1127
I00
sbag1
(g1453
g3
(lp2497
g747
ag5
ag35
ag695
atRp2498
(dp2499
g1125
(lp2500
S'-'
aS'-'
aS'-'
asg1127
I00
sbag1
(g1453
g3
(lp2501
g641
ag51
ag35
ag695
atRp2502
(dp2503
g1125
(lp2504
S'-'
aS'-'
aS'-'
asg1127
I00
sbag1
(g1453
g3
(lp2505
g658
ag51
ag35
ag695
atRp2506
(dp2507
g1125
(lp2508
S'-'
aS'-'
aS'-'
asg1127
I00
sbag1
(g1453
g3
(lp2509
g641
ag51
ag63
ag597
atRp2510
(dp2511
g1125
(lp2512
S'-'
aS'-'
aS'-'
asg1127
I00
sbag1
(g1453
g3
(lp2513
g658
ag51
ag63
ag597
atRp2514
(dp2515
g1125
(lp2516
S'-'
aS'-'
aS'-'
asg1127
I00
sbag1
(g1453
g3
(lp2517
g232
ag95
ag85
ag290
atRp2518
(dp2519
g1125
(lp2520
S'-'
aS'-'
aS'-'
asg1127
I00
sbag1
(g1453
g3
(lp2521
g250
ag95
ag85
ag290
atRp2522
(dp2523
g1125
(lp2524
S'-'
aS'-'
aS'-'
asg1127
I00
sbag1
(g1453
g3
(lp2525
g523
ag388
ag376
ag550
atRp2526
(dp2527
g1125
(lp2528
S'-'
aS':'
aS'-'
asg1127
I00
sbatRp2529
sS'auto_bond_cutoff'
p2530
F3.8024999999999998
sg836
I01
sS'CIFWeights'
p2531
(dp2532
g841
F3
sg878
F30
sS'outer_ring'
p2533
F0.050000000000000003
sS'amine'
p2534
F0.10000000000000001
sS'peptide'
p2535
F0.10000000000000001
sS'inner_ring'
p2536
F0.02
sg842
F0.02
ssS'last'
p2537
g523
sg130
g1080
sS'amine_class'
p2538
g1
(g1868
g3
(ltRp2539
(dp2540
g1705
g1
(g955
g956
(dtRp2541
(dp2542
g993
Nsg985
(dp2543
sg1000
I00
sg987
(lp2544
sg991
(dp2545
sbsg1876
(lp2546
sbsS'G_md5'
p2547
S'de3d8b952379eeaa231b5d498c6703b9'
p2548
sS'files_written'
p2549
g1
(celbow.utilities.Utilities
PushFilename
p2550
g3
(lp2551
S'/home/adrmercurio/XtaLab/git_pyrR/phenix/DS2-refConLigando/eLBOW_17/UMP.pdb'
p2552
aS'/home/adrmercurio/XtaLab/git_pyrR/phenix/DS2-refConLigando/eLBOW_17/UMP.cif'
p2553
atRp2554
sg871
I01
sS'azide_class'
p2555
g1
(g1868
g3
(ltRp2556
(dp2557
g1705
g1
(g955
g956
(dtRp2558
(dp2559
g993
Nsg985
(dp2560
sg1000
I00
sg987
(lp2561
sg991
(dp2562
sbsg1876
(lp2563
sbsS'SubUnitEnergies'
p2564
(dp2565
(I7
I6
I200
tp2566
F879.32145653413227
s(I8
I7
I100
tp2567
F879.67856763345776
s(I7
I6
I90
tp2568
F878.57889446902254
s(I9
I8
I240
tp2569
F878.23747706534277
s(I9
I8
I60
tp2570
F878.27899814926627
s(I9
I8
I100
tp2571
F878.24103252271243
s(I13
I4
I0
tp2572
F878.23744967244647
s(I13
I4
I300
tp2573
F878.02654756303912
s(I9
I8
I190
tp2574
F878.27218953790214
s(I13
I4
I200
tp2575
F878.10873486265359
s(I9
I8
I90
tp2576
F878.25000432551099
s(I7
I6
I20
tp2577
F878.20838361552694
s(I8
I7
I330
tp2578
F878.2018743708627
s(I8
I7
I110
tp2579
F879.88883311484847
s(I8
I7
I240
tp2580
F879.14525281859574
s(I8
I7
I20
tp2581
F878.36503011502907
s(I7
I6
I10
tp2582
F878.21474821006734
s(I9
I8
I260
tp2583
F878.25328707290373
s(I13
I4
I150
tp2584
F878.76086216632734
s(I7
I6
I100
tp2585
F878.65950760191549
s(I7
I6
I300
tp2586
F878.55400770421147
s(I7
I6
I190
tp2587
F879.32396786234563
s(I8
I7
I310
tp2588
F878.28173016433152
s(I9
I8
I40
tp2589
F878.27439674004574
s(I7
I6
I80
tp2590
F878.5004868656888
s(I7
I6
I290
tp2591
F878.6217989001035
s(I7
I6
I330
tp2592
F878.37394191519184
s(I13
I4
I120
tp2593
F878.29325797844524
s(I7
I6
I320
tp2594
F878.43131746500489
s(I8
I7
I250
tp2595
F878.96345907461978
s(I7
I6
I340
tp2596
F878.32047405221169
s(I8
I7
I30
tp2597
F878.45934554158828
s(I8
I7
I160
tp2598
F880.66056260829373
s(I7
I6
I210
tp2599
F879.28712409654963
s(I7
I6
I250
tp2600
F878.96467646732549
s(I9
I8
I180
tp2601
F878.279068469506
s(I9
I8
I80
tp2602
F878.26138456522006
s(I13
I4
I280
tp2603
F877.90712047837326
s(I9
I8
I170
tp2604
F878.27988852858368
s(I7
I6
I0
tp2605
F878.23744967244704
s(I8
I7
I40
tp2606
F878.57429882113195
s(I13
I4
I140
tp2607
F878.59713839823053
s(I9
I8
I30
tp2608
F878.26455848495084
s(I13
I4
I340
tp2609
F878.3986144799677
s(I8
I7
I170
tp2610
F880.52905952184324
s(I13
I4
I130
tp2611
F878.42540257102291
s(I8
I7
I80
tp2612
F879.25470514160133
s(I7
I6
I170
tp2613
F879.23948963574003
s(I8
I7
I340
tp2614
F878.19269190763009
s(I8
I7
I150
tp2615
F880.67332424939684
s(I7
I6
I240
tp2616
F879.05895684309587
s(I13
I4
I60
tp2617
F878.01039580636711
s(I8
I7
I230
tp2618
F879.34569675406794
s(I7
I6
I350
tp2619
F878.27380898527758
s(I8
I7
I90
tp2620
F879.46651489949272
s(I9
I8
I160
tp2621
F878.27445958205146
s(I13
I4
I50
tp2622
F878.00092533989346
s(I8
I7
I0
tp2623
F878.23744967244704
s(I7
I6
I40
tp2624
F878.24967697632599
s(I13
I4
I250
tp2625
F877.87061728640117
s(I9
I8
I20
tp2626
F878.25325490227124
s(I7
I6
I70
tp2627
F878.42531367584797
s(I9
I8
I220
tp2628
F878.24106679371175
s(I7
I6
I60
tp2629
F878.3558975415898
s(I8
I7
I290
tp2630
F878.43676600644221
s(I7
I6
I280
tp2631
F878.69675459668372
s(I9
I8
I10
tp2632
F878.24345753104421
s(I13
I4
I110
tp2633
F878.20080355038908
s(I9
I8
I310
tp2634
F878.27215827966768
s(I13
I4
I320
tp2635
F878.25066835375992
s(I7
I6
I50
tp2636
F878.29601660854917
s(I9
I8
I70
tp2637
F878.27212351233038
s(I8
I7
I70
tp2638
F879.05296135724859
s(I13
I4
I270
tp2639
F877.8804890120756
s(I7
I6
I120
tp2640
F878.82689174422137
s(I8
I7
I300
tp2641
F878.35040902743765
s(I13
I4
I290
tp2642
F877.95406071702143
s(I8
I7
I210
tp2643
F879.773634887345
s(I13
I4
I40
tp2644
F878.0034852188287
s(I13
I4
I240
tp2645
F877.88220839945677
s(I7
I6
I160
tp2646
F879.16721248496776
s(I13
I4
I100
tp2647
F878.13611831318349
s(I9
I8
I0
tp2648
F878.23744967244647
s(I7
I6
I180
tp2649
F879.29465162896895
s(I9
I8
I300
tp2650
F878.27903739760154
s(I9
I8
I210
tp2651
F878.25005060878289
s(I13
I4
I190
tp2652
F878.25961395176409
s(I9
I8
I200
tp2653
F878.26144197498127
s(I13
I4
I90
tp2654
F878.08942233236053
s(I9
I8
I230
tp2655
F878.23658081871929
s(I7
I6
I230
tp2656
F879.14820697343225
s(I8
I7
I220
tp2657
F879.55871848158631
s(I9
I8
I290
tp2658
F878.27985980408801
s(I8
I7
I130
tp2659
F880.3288857641935
s(I13
I4
I260
tp2660
F877.86948073202575
s(I9
I8
I150
tp2661
F878.26461131727206
s(I9
I8
I350
tp2662
F878.23655412510698
s(I7
I6
I270
tp2663
F878.77990595945562
s(I9
I8
I120
tp2664
F878.2374658991273
s(I8
I7
I140
tp2665
F880.5409359198311
s(I8
I7
I50
tp2666
F878.71087350223047
s(I13
I4
I180
tp2667
F878.46264002351847
s(I8
I7
I10
tp2668
F878.29102803207536
s(I13
I4
I80
tp2669
F878.05472145291662
s(I13
I4
I330
tp2670
F878.36042074932436
s(I7
I6
I110
tp2671
F878.74219368434683
s(I9
I8
I280
tp2672
F878.2744355960757
s(I13
I4
I170
tp2673
F878.67993961377135
s(I13
I4
I350
tp2674
F878.3423728396159
s(I9
I8
I140
tp2675
F878.25329585110023
s(I13
I4
I30
tp2676
F878.02308061768258
s(I9
I8
I340
tp2677
F878.24103968645124
s(I13
I4
I230
tp2678
F877.90515060532198
s(I8
I7
I60
tp2679
F878.87039532292158
s(I9
I8
I130
tp2680
F878.24348605569207
s(I9
I8
I330
tp2681
F878.25002221636475
s(I7
I6
I260
tp2682
F878.87022978107268
s(I7
I6
I150
tp2683
F879.08561655387689
s(I8
I7
I280
tp2684
F878.54038081283784
s(I8
I7
I350
tp2685
F878.20457936079254
s(I8
I7
I260
tp2686
F878.80240852611735
s(I7
I6
I220
tp2687
F879.2266903970301
s(I8
I7
I200
tp2688
F879.97885563583884
s(I13
I4
I160
tp2689
F878.80763453011366
s(I9
I8
I50
tp2690
F878.27981935969615
s(I9
I8
I250
tp2691
F878.24348679344723
s(I13
I4
I20
tp2692
F878.06598435306898
s(I8
I7
I270
tp2693
F878.66182255846002
s(I13
I4
I220
tp2694
F877.94403540721726
s(I9
I8
I110
tp2695
F878.23655841569723
s(I8
I7
I180
tp2696
F880.35353971889367
s(I13
I4
I10
tp2697
F878.13783139285385
s(I13
I4
I310
tp2698
F878.127890122336
s(I9
I8
I320
tp2699
F878.26141193025194
s(I13
I4
I210
tp2700
F878.00777106569194
s(I7
I6
I140
tp2701
F878.99993118728719
s(I7
I6
I30
tp2702
F878.21996611876489
s(I8
I7
I120
tp2703
F880.10427175379448
s(I13
I4
I70
tp2704
F878.02871699180821
s(I7
I6
I130
tp2705
F878.91313308179178
s(I9
I8
I270
tp2706
F878.26459415564739
s(I7
I6
I310
tp2707
F878.49117351075381
s(I8
I7
I190
tp2708
F880.17022337315018
s(I8
I7
I320
tp2709
F878.23182424390109
ssS'ALT_dihedrals'
p2710
g1
(g1119
g3
(lp2711
g1
(g1453
g3
(lp2712
g63
ag51
ag35
ag5
atRp2713
(dp2714
g1125
(lp2715
S'-'
aS'-'
aS'-'
asg1127
I00
sbag1
(g1453
g3
(lp2716
g73
ag85
ag35
ag5
atRp2717
(dp2718
g1125
(lp2719
S'-'
aS'-'
aS'-'
asg1127
I00
sbag1
(g1453
g3
(lp2720
g95
ag85
ag35
ag5
atRp2721
(dp2722
g1125
(lp2723
S'-'
aS'-'
aS'-'
asg1127
I00
sbag1
(g1453
g3
(lp2724
g290
ag85
ag35
ag5
atRp2725
(dp2726
g1125
(lp2727
S'-'
aS'-'
aS'-'
asg1127
I00
sbag1
(g1453
g3
(lp2728
g73
ag63
ag51
ag35
atRp2729
(dp2730
g1125
(lp2731
S'-'
aS'-'
aS'-'
asg1127
I00
sbag1
(g1453
g3
(lp2732
g365
ag63
ag51
ag35
atRp2733
(dp2734
g1125
(lp2735
S'-'
aS'-'
aS'-'
asg1127
I00
sbag1
(g1453
g3
(lp2736
g597
ag63
ag51
ag35
atRp2737
(dp2738
g1125
(lp2739
S'-'
aS'-'
aS'-'
asg1127
I00
sbag1
(g1453
g3
(lp2740
g63
ag73
ag85
ag35
atRp2741
(dp2742
g1125
(lp2743
S'-'
aS'-'
aS'-'
asg1127
I00
sbag1
(g1453
g3
(lp2744
g107
ag95
ag85
ag35
atRp2745
(dp2746
g1125
(lp2747
S'-'
aS'-'
aS'-'
asg1127
I00
sbag1
(g1453
g3
(lp2748
g73
ag85
ag35
ag51
atRp2749
(dp2750
g1125
(lp2751
S'-'
aS'-'
aS'-'
asg1127
I00
sbag1
(g1453
g3
(lp2752
g95
ag85
ag35
ag51
atRp2753
(dp2754
g1125
(lp2755
S'-'
aS'-'
aS'-'
asg1127
I00
sbag1
(g1453
g3
(lp2756
g290
ag85
ag35
ag51
atRp2757
(dp2758
g1125
(lp2759
S'-'
aS'-'
aS'-'
asg1127
I00
sbag1
(g1453
g3
(lp2760
g85
ag73
ag63
ag51
atRp2761
(dp2762
g1125
(lp2763
S'-'
aS'-'
aS'-'
asg1127
I00
sbag1
(g1453
g3
(lp2764
g376
ag365
ag63
ag51
atRp2765
(dp2766
g1125
(lp2767
S':'
aS'-'
aS'-'
asg1127
I00
sbag1
(g1453
g3
(lp2768
g441
ag365
ag63
ag51
atRp2769
(dp2770
g1125
(lp2771
S':'
aS'-'
aS'-'
asg1127
I00
sbag1
(g1453
g3
(lp2772
g5
ag35
ag51
ag63
atRp2773
(dp2774
g1125
(lp2775
S'-'
aS'-'
aS'-'
asg1127
I00
sbag1
(g1453
g3
(lp2776
g85
ag35
ag51
ag63
atRp2777
(dp2778
g1125
(lp2779
S'-'
aS'-'
aS'-'
asg1127
I00
sbag1
(g1453
g3
(lp2780
g695
ag35
ag51
ag63
atRp2781
(dp2782
g1125
(lp2783
S'-'
aS'-'
aS'-'
asg1127
I00
sbag1
(g1453
g3
(lp2784
g95
ag85
ag73
ag63
atRp2785
(dp2786
g1125
(lp2787
S'-'
aS'-'
aS'-'
asg1127
I00
sbag1
(g1453
g3
(lp2788
g35
ag85
ag73
ag63
atRp2789
(dp2790
g1125
(lp2791
S'-'
aS'-'
aS'-'
asg1127
I00
sbag1
(g1453
g3
(lp2792
g290
ag85
ag73
ag63
atRp2793
(dp2794
g1125
(lp2795
S'-'
aS'-'
aS'-'
asg1127
I00
sbag1
(g1453
g3
(lp2796
g388
ag376
ag365
ag63
atRp2797
(dp2798
g1125
(lp2799
S':'
aS':'
aS'-'
asg1127
I00
sbag1
(g1453
g3
(lp2800
g431
ag441
ag365
ag63
atRp2801
(dp2802
g1125
(lp2803
S':'
aS':'
aS'-'
asg1127
I00
sbag1
(g1453
g3
(lp2804
g451
ag441
ag365
ag63
atRp2805
(dp2806
g1125
(lp2807
S'='
aS':'
aS'-'
asg1127
I00
sbag1
(g1453
g3
(lp2808
g107
ag95
ag85
ag73
atRp2809
(dp2810
g1125
(lp2811
S'-'
aS'-'
aS'-'
asg1127
I00
sbag1
(g1453
g3
(lp2812
g5
ag35
ag85
ag73
atRp2813
(dp2814
g1125
(lp2815
S'-'
aS'-'
aS'-'
asg1127
I00
sbag1
(g1453
g3
(lp2816
g51
ag35
ag85
ag73
atRp2817
(dp2818
g1125
(lp2819
S'-'
aS'-'
aS'-'
asg1127
I00
sbag1
(g1453
g3
(lp2820
g695
ag35
ag85
ag73
atRp2821
(dp2822
g1125
(lp2823
S'-'
aS'-'
aS'-'
asg1127
I00
sbag1
(g1453
g3
(lp2824
g35
ag51
ag63
ag73
atRp2825
(dp2826
g1125
(lp2827
S'-'
aS'-'
aS'-'
asg1127
I00
sbag1
(g1453
g3
(lp2828
g376
ag365
ag63
ag73
atRp2829
(dp2830
g1125
(lp2831
S':'
aS'-'
aS'-'
asg1127
I00
sbag1
(g1453
g3
(lp2832
g441
ag365
ag63
ag73
atRp2833
(dp2834
g1125
(lp2835
S':'
aS'-'
aS'-'
asg1127
I00
sbag1
(g1453
g3
(lp2836
g51
ag63
ag73
ag85
atRp2837
(dp2838
g1125
(lp2839
S'-'
aS'-'
aS'-'
asg1127
I00
sbag1
(g1453
g3
(lp2840
g365
ag63
ag73
ag85
atRp2841
(dp2842
g1125
(lp2843
S'-'
aS'-'
aS'-'
asg1127
I00
sbag1
(g1453
g3
(lp2844
g597
ag63
ag73
ag85
atRp2845
(dp2846
g1125
(lp2847
S'-'
aS'-'
aS'-'
asg1127
I00
sbag1
(g1453
g3
(lp2848
g139
ag107
ag95
ag85
atRp2849
(dp2850
g1125
(lp2851
S'-'
aS'-'
aS'-'
asg1127
I00
sbag1
(g1453
g3
(lp2852
g63
ag51
ag35
ag85
atRp2853
(dp2854
g1125
(lp2855
S'-'
aS'-'
aS'-'
asg1127
I00
sbag1
(g1453
g3
(lp2856
g63
ag73
ag85
ag95
atRp2857
(dp2858
g1125
(lp2859
S'-'
aS'-'
aS'-'
asg1127
I00
sbag1
(g1453
g3
(lp2860
g5
ag35
ag85
ag95
atRp2861
(dp2862
g1125
(lp2863
S'-'
aS'-'
aS'-'
asg1127
I00
sbag1
(g1453
g3
(lp2864
g51
ag35
ag85
ag95
atRp2865
(dp2866
g1125
(lp2867
S'-'
aS'-'
aS'-'
asg1127
I00
sbag1
(g1453
g3
(lp2868
g695
ag35
ag85
ag95
atRp2869
(dp2870
g1125
(lp2871
S'-'
aS'-'
aS'-'
asg1127
I00
sbag1
(g1453
g3
(lp2872
g157
ag139
ag107
ag95
atRp2873
(dp2874
g1125
(lp2875
S'-'
aS'-'
aS'-'
asg1127
I00
sbag1
(g1453
g3
(lp2876
g191
ag139
ag107
ag95
atRp2877
(dp2878
g1125
(lp2879
S'-'
aS'-'
aS'-'
asg1127
I00
sbag1
(g1453
g3
(lp2880
g210
ag139
ag107
ag95
atRp2881
(dp2882
g1125
(lp2883
S'='
aS'-'
aS'-'
asg1127
I00
sbag1
(g1453
g3
(lp2884
g73
ag85
ag95
ag107
atRp2885
(dp2886
g1125
(lp2887
S'-'
aS'-'
aS'-'
asg1127
I00
sbag1
(g1453
g3
(lp2888
g35
ag85
ag95
ag107
atRp2889
(dp2890
g1125
(lp2891
S'-'
aS'-'
aS'-'
asg1127
I00
sbag1
(g1453
g3
(lp2892
g290
ag85
ag95
ag107
atRp2893
(dp2894
g1125
(lp2895
S'-'
aS'-'
aS'-'
asg1127
I00
sbag1
(g1453
g3
(lp2896
g85
ag95
ag107
ag139
atRp2897
(dp2898
g1125
(lp2899
S'-'
aS'-'
aS'-'
asg1127
I00
sbag1
(g1453
g3
(lp2900
g95
ag107
ag139
ag157
atRp2901
(dp2902
g1125
(lp2903
S'-'
aS'-'
aS'-'
asg1127
I00
sbag1
(g1453
g3
(lp2904
g95
ag107
ag139
ag191
atRp2905
(dp2906
g1125
(lp2907
S'-'
aS'-'
aS'-'
asg1127
I00
sbag1
(g1453
g3
(lp2908
g95
ag107
ag139
ag210
atRp2909
(dp2910
g1125
(lp2911
S'-'
aS'-'
aS'='
asg1127
I00
sbag1
(g1453
g3
(lp2912
g35
ag51
ag63
ag365
atRp2913
(dp2914
g1125
(lp2915
S'-'
aS'-'
aS'-'
asg1127
I00
sbag1
(g1453
g3
(lp2916
g85
ag73
ag63
ag365
atRp2917
(dp2918
g1125
(lp2919
S'-'
aS'-'
aS'-'
asg1127
I00
sbag1
(g1453
g3
(lp2920
g400
ag388
ag376
ag365
atRp2921
(dp2922
g1125
(lp2923
S':'
aS':'
aS':'
asg1127
I00
sbag1
(g1453
g3
(lp2924
g400
ag431
ag441
ag365
atRp2925
(dp2926
g1125
(lp2927
S':'
aS':'
aS':'
asg1127
I00
sbag1
(g1453
g3
(lp2928
g484
ag431
ag441
ag365
atRp2929
(dp2930
g1125
(lp2931
S'-'
aS':'
aS':'
asg1127
I00
sbag1
(g1453
g3
(lp2932
g51
ag63
ag365
ag376
atRp2933
(dp2934
g1125
(lp2935
S'-'
aS'-'
aS':'
asg1127
I00
sbag1
(g1453
g3
(lp2936
g73
ag63
ag365
ag376
atRp2937
(dp2938
g1125
(lp2939
S'-'
aS'-'
aS':'
asg1127
I00
sbag1
(g1453
g3
(lp2940
g597
ag63
ag365
ag376
atRp2941
(dp2942
g1125
(lp2943
S'-'
aS'-'
aS':'
asg1127
I00
sbag1
(g1453
g3
(lp2944
g431
ag441
ag365
ag376
atRp2945
(dp2946
g1125
(lp2947
S':'
aS':'
aS':'
asg1127
I00
sbag1
(g1453
g3
(lp2948
g451
ag441
ag365
ag376
atRp2949
(dp2950
g1125
(lp2951
S'='
aS':'
aS':'
asg1127
I00
sbag1
(g1453
g3
(lp2952
g412
ag400
ag388
ag376
atRp2953
(dp2954
g1125
(lp2955
S'='
aS':'
aS':'
asg1127
I00
sbag1
(g1453
g3
(lp2956
g431
ag400
ag388
ag376
atRp2957
(dp2958
g1125
(lp2959
S':'
aS':'
aS':'
asg1127
I00
sbag1
(g1453
g3
(lp2960
g63
ag365
ag376
ag388
atRp2961
(dp2962
g1125
(lp2963
S'-'
aS':'
aS':'
asg1127
I00
sbag1
(g1453
g3
(lp2964
g441
ag365
ag376
ag388
atRp2965
(dp2966
g1125
(lp2967
S':'
aS':'
aS':'
asg1127
I00
sbag1
(g1453
g3
(lp2968
g441
ag431
ag400
ag388
atRp2969
(dp2970
g1125
(lp2971
S':'
aS':'
aS':'
asg1127
I00
sbag1
(g1453
g3
(lp2972
g484
ag431
ag400
ag388
atRp2973
(dp2974
g1125
(lp2975
S'-'
aS':'
aS':'
asg1127
I00
sbag1
(g1453
g3
(lp2976
g365
ag376
ag388
ag400
atRp2977
(dp2978
g1125
(lp2979
S':'
aS':'
aS':'
asg1127
I00
sbag1
(g1453
g3
(lp2980
g451
ag441
ag431
ag400
atRp2981
(dp2982
g1125
(lp2983
S'='
aS':'
aS':'
asg1127
I00
sbag1
(g1453
g3
(lp2984
g365
ag441
ag431
ag400
atRp2985
(dp2986
g1125
(lp2987
S':'
aS':'
aS':'
asg1127
I00
sbag1
(g1453
g3
(lp2988
g376
ag388
ag400
ag412
atRp2989
(dp2990
g1125
(lp2991
S':'
aS':'
aS'='
asg1127
I00
sbag1
(g1453
g3
(lp2992
g441
ag431
ag400
ag412
atRp2993
(dp2994
g1125
(lp2995
S':'
aS':'
aS'='
asg1127
I00
sbag1
(g1453
g3
(lp2996
g484
ag431
ag400
ag412
atRp2997
(dp2998
g1125
(lp2999
S'-'
aS':'
aS'='
asg1127
I00
sbag1
(g1453
g3
(lp3000
g376
ag388
ag400
ag431
atRp3001
(dp3002
g1125
(lp3003
S':'
aS':'
aS':'
asg1127
I00
sbag1
(g1453
g3
(lp3004
g63
ag365
ag441
ag431
atRp3005
(dp3006
g1125
(lp3007
S'-'
aS':'
aS':'
asg1127
I00
sbag1
(g1453
g3
(lp3008
g376
ag365
ag441
ag431
atRp3009
(dp3010
g1125
(lp3011
S':'
aS':'
aS':'
asg1127
I00
sbag1
(g1453
g3
(lp3012
g388
ag400
ag431
ag441
atRp3013
(dp3014
g1125
(lp3015
S':'
aS':'
aS':'
asg1127
I00
sbag1
(g1453
g3
(lp3016
g412
ag400
ag431
ag441
atRp3017
(dp3018
g1125
(lp3019
S'='
aS':'
aS':'
asg1127
I00
sbag1
(g1453
g3
(lp3020
g51
ag63
ag365
ag441
atRp3021
(dp3022
g1125
(lp3023
S'-'
aS'-'
aS':'
asg1127
I00
sbag1
(g1453
g3
(lp3024
g73
ag63
ag365
ag441
atRp3025
(dp3026
g1125
(lp3027
S'-'
aS'-'
aS':'
asg1127
I00
sbag1
(g1453
g3
(lp3028
g597
ag63
ag365
ag441
atRp3029
(dp3030
g1125
(lp3031
S'-'
aS'-'
aS':'
asg1127
I00
sbag1
(g1453
g3
(lp3032
g388
ag376
ag365
ag441
atRp3033
(dp3034
g1125
(lp3035
S':'
aS':'
aS':'
asg1127
I00
sbag1
(g1453
g3
(lp3036
g400
ag431
ag441
ag451
atRp3037
(dp3038
g1125
(lp3039
S':'
aS':'
aS'='
asg1127
I00
sbag1
(g1453
g3
(lp3040
g484
ag431
ag441
ag451
atRp3041
(dp3042
g1125
(lp3043
S'-'
aS':'
aS'='
asg1127
I00
sbag1
(g1453
g3
(lp3044
g63
ag365
ag441
ag451
atRp3045
(dp3046
g1125
(lp3047
S'-'
aS':'
aS'='
asg1127
I00
sbag1
(g1453
g3
(lp3048
g376
ag365
ag441
ag451
atRp3049
(dp3050
g1125
(lp3051
S':'
aS':'
aS'='
asg1127
I00
sbag1
(g1453
g3
(lp3052
g63
ag51
ag35
ag695
atRp3053
(dp3054
g1125
(lp3055
S'-'
aS'-'
aS'-'
asg1127
I00
sbag1
(g1453
g3
(lp3056
g73
ag85
ag35
ag695
atRp3057
(dp3058
g1125
(lp3059
S'-'
aS'-'
aS'-'
asg1127
I00
sbag1
(g1453
g3
(lp3060
g95
ag85
ag35
ag695
atRp3061
(dp3062
g1125
(lp3063
S'-'
aS'-'
aS'-'
asg1127
I00
sbag1
(g1453
g3
(lp3064
g290
ag85
ag35
ag695
atRp3065
(dp3066
g1125
(lp3067
S'-'
aS'-'
aS'-'
asg1127
I00
sbag1
(g1453
g3
(lp3068
g35
ag51
ag63
ag597
atRp3069
(dp3070
g1125
(lp3071
S'-'
aS'-'
aS'-'
asg1127
I00
sbag1
(g1453
g3
(lp3072
g85
ag73
ag63
ag597
atRp3073
(dp3074
g1125
(lp3075
S'-'
aS'-'
aS'-'
asg1127
I00
sbag1
(g1453
g3
(lp3076
g376
ag365
ag63
ag597
atRp3077
(dp3078
g1125
(lp3079
S':'
aS'-'
aS'-'
asg1127
I00
sbag1
(g1453
g3
(lp3080
g441
ag365
ag63
ag597
atRp3081
(dp3082
g1125
(lp3083
S':'
aS'-'
aS'-'
asg1127
I00
sbag1
(g1453
g3
(lp3084
g63
ag73
ag85
ag290
atRp3085
(dp3086
g1125
(lp3087
S'-'
aS'-'
aS'-'
asg1127
I00
sbag1
(g1453
g3
(lp3088
g107
ag95
ag85
ag290
atRp3089
(dp3090
g1125
(lp3091
S'-'
aS'-'
aS'-'
asg1127
I00
sbag1
(g1453
g3
(lp3092
g5
ag35
ag85
ag290
atRp3093
(dp3094
g1125
(lp3095
S'-'
aS'-'
aS'-'
asg1127
I00
sbag1
(g1453
g3
(lp3096
g51
ag35
ag85
ag290
atRp3097
(dp3098
g1125
(lp3099
S'-'
aS'-'
aS'-'
asg1127
I00
sbag1
(g1453
g3
(lp3100
g695
ag35
ag85
ag290
atRp3101
(dp3102
g1125
(lp3103
S'-'
aS'-'
aS'-'
asg1127
I00
sbag1
(g1453
g3
(lp3104
g388
ag400
ag431
ag484
atRp3105
(dp3106
g1125
(lp3107
S':'
aS':'
aS'-'
asg1127
I00
sbag1
(g1453
g3
(lp3108
g412
ag400
ag431
ag484
atRp3109
(dp3110
g1125
(lp3111
S'='
aS':'
aS'-'
asg1127
I00
sbag1
(g1453
g3
(lp3112
g451
ag441
ag431
ag484
atRp3113
(dp3114
g1125
(lp3115
S'='
aS':'
aS'-'
asg1127
I00
sbag1
(g1453
g3
(lp3116
g365
ag441
ag431
ag484
atRp3117
(dp3118
g1125
(lp3119
S':'
aS':'
aS'-'
asg1127
I00
sbag1
(g1453
g3
(lp3120
g51
ag35
ag5
ag747
atRp3121
(dp3122
g1125
(lp3123
S'-'
aS'-'
aS'-'
asg1127
I00
sbag1
(g1453
g3
(lp3124
g85
ag35
ag5
ag747
atRp3125
(dp3126
g1125
(lp3127
S'-'
aS'-'
aS'-'
asg1127
I00
sbag1
(g1453
g3
(lp3128
g695
ag35
ag5
ag747
atRp3129
(dp3130
g1125
(lp3131
S'-'
aS'-'
aS'-'
asg1127
I00
sbag1
(g1453
g3
(lp3132
g5
ag35
ag51
ag641
atRp3133
(dp3134
g1125
(lp3135
S'-'
aS'-'
aS'-'
asg1127
I00
sbag1
(g1453
g3
(lp3136
g85
ag35
ag51
ag641
atRp3137
(dp3138
g1125
(lp3139
S'-'
aS'-'
aS'-'
asg1127
I00
sbag1
(g1453
g3
(lp3140
g695
ag35
ag51
ag641
atRp3141
(dp3142
g1125
(lp3143
S'-'
aS'-'
aS'-'
asg1127
I00
sbag1
(g1453
g3
(lp3144
g73
ag63
ag51
ag641
atRp3145
(dp3146
g1125
(lp3147
S'-'
aS'-'
aS'-'
asg1127
I00
sbag1
(g1453
g3
(lp3148
g365
ag63
ag51
ag641
atRp3149
(dp3150
g1125
(lp3151
S'-'
aS'-'
aS'-'
asg1127
I00
sbag1
(g1453
g3
(lp3152
g597
ag63
ag51
ag641
atRp3153
(dp3154
g1125
(lp3155
S'-'
aS'-'
aS'-'
asg1127
I00
sbag1
(g1453
g3
(lp3156
g5
ag35
ag51
ag658
atRp3157
(dp3158
g1125
(lp3159
S'-'
aS'-'
aS'-'
asg1127
I00
sbag1
(g1453
g3
(lp3160
g85
ag35
ag51
ag658
atRp3161
(dp3162
g1125
(lp3163
S'-'
aS'-'
aS'-'
asg1127
I00
sbag1
(g1453
g3
(lp3164
g695
ag35
ag51
ag658
atRp3165
(dp3166
g1125
(lp3167
S'-'
aS'-'
aS'-'
asg1127
I00
sbag1
(g1453
g3
(lp3168
g73
ag63
ag51
ag658
atRp3169
(dp3170
g1125
(lp3171
S'-'
aS'-'
aS'-'
asg1127
I00
sbag1
(g1453
g3
(lp3172
g365
ag63
ag51
ag658
atRp3173
(dp3174
g1125
(lp3175
S'-'
aS'-'
aS'-'
asg1127
I00
sbag1
(g1453
g3
(lp3176
g597
ag63
ag51
ag658
atRp3177
(dp3178
g1125
(lp3179
S'-'
aS'-'
aS'-'
asg1127
I00
sbag1
(g1453
g3
(lp3180
g73
ag85
ag95
ag232
atRp3181
(dp3182
g1125
(lp3183
S'-'
aS'-'
aS'-'
asg1127
I00
sbag1
(g1453
g3
(lp3184
g35
ag85
ag95
ag232
atRp3185
(dp3186
g1125
(lp3187
S'-'
aS'-'
aS'-'
asg1127
I00
sbag1
(g1453
g3
(lp3188
g290
ag85
ag95
ag232
atRp3189
(dp3190
g1125
(lp3191
S'-'
aS'-'
aS'-'
asg1127
I00
sbag1
(g1453
g3
(lp3192
g139
ag107
ag95
ag232
atRp3193
(dp3194
g1125
(lp3195
S'-'
aS'-'
aS'-'
asg1127
I00
sbag1
(g1453
g3
(lp3196
g73
ag85
ag95
ag250
atRp3197
(dp3198
g1125
(lp3199
S'-'
aS'-'
aS'-'
asg1127
I00
sbag1
(g1453
g3
(lp3200
g35
ag85
ag95
ag250
atRp3201
(dp3202
g1125
(lp3203
S'-'
aS'-'
aS'-'
asg1127
I00
sbag1
(g1453
g3
(lp3204
g290
ag85
ag95
ag250
atRp3205
(dp3206
g1125
(lp3207
S'-'
aS'-'
aS'-'
asg1127
I00
sbag1
(g1453
g3
(lp3208
g139
ag107
ag95
ag250
atRp3209
(dp3210
g1125
(lp3211
S'-'
aS'-'
aS'-'
asg1127
I00
sbag1
(g1453
g3
(lp3212
g63
ag365
ag376
ag550
atRp3213
(dp3214
g1125
(lp3215
S'-'
aS':'
aS'-'
asg1127
I00
sbag1
(g1453
g3
(lp3216
g441
ag365
ag376
ag550
atRp3217
(dp3218
g1125
(lp3219
S':'
aS':'
aS'-'
asg1127
I00
sbag1
(g1453
g3
(lp3220
g400
ag388
ag376
ag550
atRp3221
(dp3222
g1125
(lp3223
S':'
aS':'
aS'-'
asg1127
I00
sbag1
(g1453
g3
(lp3224
g365
ag376
ag388
ag523
atRp3225
(dp3226
g1125
(lp3227
S':'
aS':'
aS'-'
asg1127
I00
sbag1
(g1453
g3
(lp3228
g550
ag376
ag388
ag523
atRp3229
(dp3230
g1125
(lp3231
S'-'
aS':'
aS'-'
asg1127
I00
sbag1
(g1453
g3
(lp3232
g412
ag400
ag388
ag523
atRp3233
(dp3234
g1125
(lp3235
S'='
aS':'
aS'-'
asg1127
I00
sbag1
(g1453
g3
(lp3236
g431
ag400
ag388
ag523
atRp3237
(dp3238
g1125
(lp3239
S':'
aS':'
aS'-'
asg1127
I00
sbatRp3240
sS'ALT_angles'
p3241
g1
(g1119
g3
(lp3242
g1
(g1281
g3
(lp3243
g51
ag35
ag5
atRp3244
(dp3245
g1125
(lp3246
S'-'
aS'-'
asg1127
I00
sbag1
(g1281
g3
(lp3247
g85
ag35
ag5
atRp3248
(dp3249
g1125
(lp3250
S'-'
aS'-'
asg1127
I00
sbag1
(g1281
g3
(lp3251
g695
ag35
ag5
atRp3252
(dp3253
g1125
(lp3254
S'-'
aS'-'
asg1127
I00
sbag1
(g1281
g3
(lp3255
g63
ag51
ag35
atRp3256
(dp3257
g1125
(lp3258
S'-'
aS'-'
asg1127
I00
sbag1
(g1281
g3
(lp3259
g73
ag85
ag35
atRp3260
(dp3261
g1125
(lp3262
S'-'
aS'-'
asg1127
I00
sbag1
(g1281
g3
(lp3263
g95
ag85
ag35
atRp3264
(dp3265
g1125
(lp3266
S'-'
aS'-'
asg1127
I00
sbag1
(g1281
g3
(lp3267
g290
ag85
ag35
atRp3268
(dp3269
g1125
(lp3270
S'-'
aS'-'
asg1127
I00
sbag1
(g1281
g3
(lp3271
g5
ag35
ag51
atRp3272
(dp3273
g1125
(lp3274
S'-'
aS'-'
asg1127
I00
sbag1
(g1281
g3
(lp3275
g85
ag35
ag51
atRp3276
(dp3277
g1125
(lp3278
S'-'
aS'-'
asg1127
I00
sbag1
(g1281
g3
(lp3279
g695
ag35
ag51
atRp3280
(dp3281
g1125
(lp3282
S'-'
aS'-'
asg1127
I00
sbag1
(g1281
g3
(lp3283
g73
ag63
ag51
atRp3284
(dp3285
g1125
(lp3286
S'-'
aS'-'
asg1127
I00
sbag1
(g1281
g3
(lp3287
g365
ag63
ag51
atRp3288
(dp3289
g1125
(lp3290
S'-'
aS'-'
asg1127
I00
sbag1
(g1281
g3
(lp3291
g597
ag63
ag51
atRp3292
(dp3293
g1125
(lp3294
S'-'
aS'-'
asg1127
I00
sbag1
(g1281
g3
(lp3295
g35
ag51
ag63
atRp3296
(dp3297
g1125
(lp3298
S'-'
aS'-'
asg1127
I00
sbag1
(g1281
g3
(lp3299
g85
ag73
ag63
atRp3300
(dp3301
g1125
(lp3302
S'-'
aS'-'
asg1127
I00
sbag1
(g1281
g3
(lp3303
g376
ag365
ag63
atRp3304
(dp3305
g1125
(lp3306
S':'
aS'-'
asg1127
I00
sbag1
(g1281
g3
(lp3307
g441
ag365
ag63
atRp3308
(dp3309
g1125
(lp3310
S':'
aS'-'
asg1127
I00
sbag1
(g1281
g3
(lp3311
g95
ag85
ag73
atRp3312
(dp3313
g1125
(lp3314
S'-'
aS'-'
asg1127
I00
sbag1
(g1281
g3
(lp3315
g35
ag85
ag73
atRp3316
(dp3317
g1125
(lp3318
S'-'
aS'-'
asg1127
I00
sbag1
(g1281
g3
(lp3319
g290
ag85
ag73
atRp3320
(dp3321
g1125
(lp3322
S'-'
aS'-'
asg1127
I00
sbag1
(g1281
g3
(lp3323
g51
ag63
ag73
atRp3324
(dp3325
g1125
(lp3326
S'-'
aS'-'
asg1127
I00
sbag1
(g1281
g3
(lp3327
g365
ag63
ag73
atRp3328
(dp3329
g1125
(lp3330
S'-'
aS'-'
asg1127
I00
sbag1
(g1281
g3
(lp3331
g597
ag63
ag73
atRp3332
(dp3333
g1125
(lp3334
S'-'
aS'-'
asg1127
I00
sbag1
(g1281
g3
(lp3335
g63
ag73
ag85
atRp3336
(dp3337
g1125
(lp3338
S'-'
aS'-'
asg1127
I00
sbag1
(g1281
g3
(lp3339
g107
ag95
ag85
atRp3340
(dp3341
g1125
(lp3342
S'-'
aS'-'
asg1127
I00
sbag1
(g1281
g3
(lp3343
g5
ag35
ag85
atRp3344
(dp3345
g1125
(lp3346
S'-'
aS'-'
asg1127
I00
sbag1
(g1281
g3
(lp3347
g51
ag35
ag85
atRp3348
(dp3349
g1125
(lp3350
S'-'
aS'-'
asg1127
I00
sbag1
(g1281
g3
(lp3351
g695
ag35
ag85
atRp3352
(dp3353
g1125
(lp3354
S'-'
aS'-'
asg1127
I00
sbag1
(g1281
g3
(lp3355
g73
ag85
ag95
atRp3356
(dp3357
g1125
(lp3358
S'-'
aS'-'
asg1127
I00
sbag1
(g1281
g3
(lp3359
g35
ag85
ag95
atRp3360
(dp3361
g1125
(lp3362
S'-'
aS'-'
asg1127
I00
sbag1
(g1281
g3
(lp3363
g290
ag85
ag95
atRp3364
(dp3365
g1125
(lp3366
S'-'
aS'-'
asg1127
I00
sbag1
(g1281
g3
(lp3367
g139
ag107
ag95
atRp3368
(dp3369
g1125
(lp3370
S'-'
aS'-'
asg1127
I00
sbag1
(g1281
g3
(lp3371
g85
ag95
ag107
atRp3372
(dp3373
g1125
(lp3374
S'-'
aS'-'
asg1127
I00
sbag1
(g1281
g3
(lp3375
g157
ag139
ag107
atRp3376
(dp3377
g1125
(lp3378
S'-'
aS'-'
asg1127
I00
sbag1
(g1281
g3
(lp3379
g191
ag139
ag107
atRp3380
(dp3381
g1125
(lp3382
S'-'
aS'-'
asg1127
I00
sbag1
(g1281
g3
(lp3383
g210
ag139
ag107
atRp3384
(dp3385
g1125
(lp3386
S'='
aS'-'
asg1127
I00
sbag1
(g1281
g3
(lp3387
g95
ag107
ag139
atRp3388
(dp3389
g1125
(lp3390
S'-'
aS'-'
asg1127
I00
sbag1
(g1281
g3
(lp3391
g107
ag139
ag157
atRp3392
(dp3393
g1125
(lp3394
S'-'
aS'-'
asg1127
I00
sbag1
(g1281
g3
(lp3395
g191
ag139
ag157
atRp3396
(dp3397
g1125
(lp3398
S'-'
aS'-'
asg1127
I00
sbag1
(g1281
g3
(lp3399
g210
ag139
ag157
atRp3400
(dp3401
g1125
(lp3402
S'='
aS'-'
asg1127
I00
sbag1
(g1281
g3
(lp3403
g107
ag139
ag191
atRp3404
(dp3405
g1125
(lp3406
S'-'
aS'-'
asg1127
I00
sbag1
(g1281
g3
(lp3407
g157
ag139
ag191
atRp3408
(dp3409
g1125
(lp3410
S'-'
aS'-'
asg1127
I00
sbag1
(g1281
g3
(lp3411
g210
ag139
ag191
atRp3412
(dp3413
g1125
(lp3414
S'='
aS'-'
asg1127
I00
sbag1
(g1281
g3
(lp3415
g107
ag139
ag210
atRp3416
(dp3417
g1125
(lp3418
S'-'
aS'='
asg1127
I00
sbag1
(g1281
g3
(lp3419
g157
ag139
ag210
atRp3420
(dp3421
g1125
(lp3422
S'-'
aS'='
asg1127
I00
sbag1
(g1281
g3
(lp3423
g191
ag139
ag210
atRp3424
(dp3425
g1125
(lp3426
S'-'
aS'='
asg1127
I00
sbag1
(g1281
g3
(lp3427
g51
ag63
ag365
atRp3428
(dp3429
g1125
(lp3430
S'-'
aS'-'
asg1127
I00
sbag1
(g1281
g3
(lp3431
g73
ag63
ag365
atRp3432
(dp3433
g1125
(lp3434
S'-'
aS'-'
asg1127
I00
sbag1
(g1281
g3
(lp3435
g597
ag63
ag365
atRp3436
(dp3437
g1125
(lp3438
S'-'
aS'-'
asg1127
I00
sbag1
(g1281
g3
(lp3439
g388
ag376
ag365
atRp3440
(dp3441
g1125
(lp3442
S':'
aS':'
asg1127
I00
sbag1
(g1281
g3
(lp3443
g431
ag441
ag365
atRp3444
(dp3445
g1125
(lp3446
S':'
aS':'
asg1127
I00
sbag1
(g1281
g3
(lp3447
g451
ag441
ag365
atRp3448
(dp3449
g1125
(lp3450
S'='
aS':'
asg1127
I00
sbag1
(g1281
g3
(lp3451
g63
ag365
ag376
atRp3452
(dp3453
g1125
(lp3454
S'-'
aS':'
asg1127
I00
sbag1
(g1281
g3
(lp3455
g441
ag365
ag376
atRp3456
(dp3457
g1125
(lp3458
S':'
aS':'
asg1127
I00
sbag1
(g1281
g3
(lp3459
g400
ag388
ag376
atRp3460
(dp3461
g1125
(lp3462
S':'
aS':'
asg1127
I00
sbag1
(g1281
g3
(lp3463
g365
ag376
ag388
atRp3464
(dp3465
g1125
(lp3466
S':'
aS':'
asg1127
I00
sbag1
(g1281
g3
(lp3467
g412
ag400
ag388
atRp3468
(dp3469
g1125
(lp3470
S'='
aS':'
asg1127
I00
sbag1
(g1281
g3
(lp3471
g431
ag400
ag388
atRp3472
(dp3473
g1125
(lp3474
S':'
aS':'
asg1127
I00
sbag1
(g1281
g3
(lp3475
g376
ag388
ag400
atRp3476
(dp3477
g1125
(lp3478
S':'
aS':'
asg1127
I00
sbag1
(g1281
g3
(lp3479
g441
ag431
ag400
atRp3480
(dp3481
g1125
(lp3482
S':'
aS':'
asg1127
I00
sbag1
(g1281
g3
(lp3483
g484
ag431
ag400
atRp3484
(dp3485
g1125
(lp3486
S'-'
aS':'
asg1127
I00
sbag1
(g1281
g3
(lp3487
g388
ag400
ag412
atRp3488
(dp3489
g1125
(lp3490
S':'
aS'='
asg1127
I00
sbag1
(g1281
g3
(lp3491
g431
ag400
ag412
atRp3492
(dp3493
g1125
(lp3494
S':'
aS'='
asg1127
I00
sbag1
(g1281
g3
(lp3495
g388
ag400
ag431
atRp3496
(dp3497
g1125
(lp3498
S':'
aS':'
asg1127
I00
sbag1
(g1281
g3
(lp3499
g412
ag400
ag431
atRp3500
(dp3501
g1125
(lp3502
S'='
aS':'
asg1127
I00
sbag1
(g1281
g3
(lp3503
g451
ag441
ag431
atRp3504
(dp3505
g1125
(lp3506
S'='
aS':'
asg1127
I00
sbag1
(g1281
g3
(lp3507
g365
ag441
ag431
atRp3508
(dp3509
g1125
(lp3510
S':'
aS':'
asg1127
I00
sbag1
(g1281
g3
(lp3511
g400
ag431
ag441
atRp3512
(dp3513
g1125
(lp3514
S':'
aS':'
asg1127
I00
sbag1
(g1281
g3
(lp3515
g484
ag431
ag441
atRp3516
(dp3517
g1125
(lp3518
S'-'
aS':'
asg1127
I00
sbag1
(g1281
g3
(lp3519
g63
ag365
ag441
atRp3520
(dp3521
g1125
(lp3522
S'-'
aS':'
asg1127
I00
sbag1
(g1281
g3
(lp3523
g376
ag365
ag441
atRp3524
(dp3525
g1125
(lp3526
S':'
aS':'
asg1127
I00
sbag1
(g1281
g3
(lp3527
g431
ag441
ag451
atRp3528
(dp3529
g1125
(lp3530
S':'
aS'='
asg1127
I00
sbag1
(g1281
g3
(lp3531
g365
ag441
ag451
atRp3532
(dp3533
g1125
(lp3534
S':'
aS'='
asg1127
I00
sbag1
(g1281
g3
(lp3535
g5
ag35
ag695
atRp3536
(dp3537
g1125
(lp3538
S'-'
aS'-'
asg1127
I00
sbag1
(g1281
g3
(lp3539
g51
ag35
ag695
atRp3540
(dp3541
g1125
(lp3542
S'-'
aS'-'
asg1127
I00
sbag1
(g1281
g3
(lp3543
g85
ag35
ag695
atRp3544
(dp3545
g1125
(lp3546
S'-'
aS'-'
asg1127
I00
sbag1
(g1281
g3
(lp3547
g51
ag63
ag597
atRp3548
(dp3549
g1125
(lp3550
S'-'
aS'-'
asg1127
I00
sbag1
(g1281
g3
(lp3551
g73
ag63
ag597
atRp3552
(dp3553
g1125
(lp3554
S'-'
aS'-'
asg1127
I00
sbag1
(g1281
g3
(lp3555
g365
ag63
ag597
atRp3556
(dp3557
g1125
(lp3558
S'-'
aS'-'
asg1127
I00
sbag1
(g1281
g3
(lp3559
g73
ag85
ag290
atRp3560
(dp3561
g1125
(lp3562
S'-'
aS'-'
asg1127
I00
sbag1
(g1281
g3
(lp3563
g95
ag85
ag290
atRp3564
(dp3565
g1125
(lp3566
S'-'
aS'-'
asg1127
I00
sbag1
(g1281
g3
(lp3567
g35
ag85
ag290
atRp3568
(dp3569
g1125
(lp3570
S'-'
aS'-'
asg1127
I00
sbag1
(g1281
g3
(lp3571
g400
ag431
ag484
atRp3572
(dp3573
g1125
(lp3574
S':'
aS'-'
asg1127
I00
sbag1
(g1281
g3
(lp3575
g441
ag431
ag484
atRp3576
(dp3577
g1125
(lp3578
S':'
aS'-'
asg1127
I00
sbag1
(g1281
g3
(lp3579
g35
ag5
ag747
atRp3580
(dp3581
g1125
(lp3582
S'-'
aS'-'
asg1127
I00
sbag1
(g1281
g3
(lp3583
g35
ag51
ag641
atRp3584
(dp3585
g1125
(lp3586
S'-'
aS'-'
asg1127
I00
sbag1
(g1281
g3
(lp3587
g63
ag51
ag641
atRp3588
(dp3589
g1125
(lp3590
S'-'
aS'-'
asg1127
I00
sbag1
(g1281
g3
(lp3591
g35
ag51
ag658
atRp3592
(dp3593
g1125
(lp3594
S'-'
aS'-'
asg1127
I00
sbag1
(g1281
g3
(lp3595
g63
ag51
ag658
atRp3596
(dp3597
g1125
(lp3598
S'-'
aS'-'
asg1127
I00
sbag1
(g1281
g3
(lp3599
g641
ag51
ag658
atRp3600
(dp3601
g1125
(lp3602
S'-'
aS'-'
asg1127
I00
sbag1
(g1281
g3
(lp3603
g85
ag95
ag232
atRp3604
(dp3605
g1125
(lp3606
S'-'
aS'-'
asg1127
I00
sbag1
(g1281
g3
(lp3607
g107
ag95
ag232
atRp3608
(dp3609
g1125
(lp3610
S'-'
aS'-'
asg1127
I00
sbag1
(g1281
g3
(lp3611
g85
ag95
ag250
atRp3612
(dp3613
g1125
(lp3614
S'-'
aS'-'
asg1127
I00
sbag1
(g1281
g3
(lp3615
g107
ag95
ag250
atRp3616
(dp3617
g1125
(lp3618
S'-'
aS'-'
asg1127
I00
sbag1
(g1281
g3
(lp3619
g232
ag95
ag250
atRp3620
(dp3621
g1125
(lp3622
S'-'
aS'-'
asg1127
I00
sbag1
(g1281
g3
(lp3623
g365
ag376
ag550
atRp3624
(dp3625
g1125
(lp3626
S':'
aS'-'
asg1127
I00
sbag1
(g1281
g3
(lp3627
g388
ag376
ag550
atRp3628
(dp3629
g1125
(lp3630
S':'
aS'-'
asg1127
I00
sbag1
(g1281
g3
(lp3631
g376
ag388
ag523
atRp3632
(dp3633
g1125
(lp3634
S':'
aS'-'
asg1127
I00
sbag1
(g1281
g3
(lp3635
g400
ag388
ag523
atRp3636
(dp3637
g1125
(lp3638
S':'
aS'-'
asg1127
I00
sbatRp3639
sS'temp_cif'
p3640
S'/tmp/tmpJKr4l3'
p3641
sg1670
g1
(g1671
g3
(lp3642
g1675
ag1686
ag1690
ag1694
ag1698
ag2093
ag2097
ag1854
ag1858
ag1777
ag1781
ag1
(g1673
g3
(lp3643
g107
ag95
aF1.3987376186944889
ag85
aF108.3503266144812
ag35
aF-159.72813589048954
atRp3644
(dp3645
g1677
I00
sg1678
I01
sg1679
I4
sg1680
I2
sg1681
I6
sg1682
(lp3646
I00
aI00
aI00
asg1684
I00
sg1116
F1.3987376186944889
sbag1
(g1673
g3
(lp3647
g139
ag107
aF1.6479872704626102
ag95
aF118.45975031623165
ag85
aF147.36768085560377
atRp3648
(dp3649
g1677
I00
sg1678
I01
sg1679
I4
sg1680
I2
sg1681
I6
sg1682
(lp3650
I00
aI00
aI00
asg1684
I00
sg1116
F1.6479872704626102
sbag1
(g1673
g3
(lp3651
g157
ag139
aF1.5101641339889751
ag107
aF109.46909874929645
ag95
aF161.90754981041857
atRp3652
(dp3653
g1677
I00
sg1678
I01
sg1679
I4
sg1680
I2
sg1681
I6
sg1682
(lp3654
I00
aI00
aI00
asg1684
I00
sg1116
F1.5101641339889751
sbag1
(g1673
g3
(lp3655
g191
ag139
aF1.5097635798043141
ag107
aF109.47251955346623
ag95
aF41.906520103759988
atRp3656
(dp3657
g1677
I00
sg1678
I01
sg1679
I4
sg1680
I2
sg1681
I6
sg1682
(lp3658
I00
aI00
aI00
asg1684
I00
sg1116
F1.5097635798043141
sbag1
(g1673
g3
(lp3659
g210
ag139
aF1.510095654037384
ag107
aF109.47175940625814
ag95
aF-78.092360531552444
atRp3660
(dp3661
g1677
I00
sg1678
I01
sg1679
I4
sg1680
I2
sg1681
I6
sg1682
(lp3662
I00
aI00
aI00
asg1684
I00
sg1116
F1.510095654037384
sbag2154
ag2158
ag2162
ag2166
ag2170
ag1
(g1673
g3
(lp3663
g412
ag400
aF1.1848390433391136
ag388
aF120.0459692353936
ag376
aF-179.91143323078819
atRp3664
(dp3665
g1680
I2
sg1681
I6
sg1678
I01
sg1682
(lp3666
I00
aI00
aI00
asg1684
I00
sg1679
I4
sg1116
F1.1848390433391136
sbag1
(g1673
g3
(lp3667
g451
ag441
aF1.184390014701389
ag365
aF119.42515050633253
ag63
aF3.4774125263823334
atRp3668
(dp3669
g1680
I2
sg1681
I6
sg1678
I01
sg1682
(lp3670
I00
aI00
aI00
asg1684
I00
sg1679
I4
sg1116
F1.184390014701389
sbag1
(g1673
g3
(lp3671
g484
ag431
aF1.0008300000000001
ag400
aF119.80970439827432
ag388
aF180
atRp3672
(dp3673
g1680
I2
sg1681
I6
sg1678
I01
sg1682
(lp3674
I00
aI00
aI00
asg1684
I00
sg1679
I4
sg1116
F1.0008300000000001
sbag1
(g1673
g3
(lp3675
g747
ag5
aF0.94288300000000003
ag35
aF109.47828050993189
ag51
aF106.06079886054567
atRp3676
(dp3677
g1680
I2
sg1681
I6
sg1678
I01
sg1682
(lp3678
I00
aI00
aI00
asg1684
I00
sg1679
I4
sg1116
F0.94288300000000003
sbag1
(g1673
g3
(lp3679
g641
ag51
aF1.0833090000000001
ag35
aF110.1598399076324
ag5
aF-134.33532510159498
atRp3680
(dp3681
g1680
I2
sg1681
I6
sg1678
I01
sg1682
(lp3682
I00
aI00
aI00
asg1684
I00
sg1679
I4
sg1116
F1.0833090000000001
sbag1
(g1673
g3
(lp3683
g658
ag51
aF1.0833090000000001
ag35
aF110.15968636073264
ag5
aF-12.065397207011776
atRp3684
(dp3685
g1680
I2
sg1681
I6
sg1678
I01
sg1682
(lp3686
I00
aI00
aI00
asg1684
I00
sg1679
I4
sg1116
F1.0833090000000001
sbag1
(g1673
g3
(lp3687
g232
ag95
aF1.0833090000000001
ag85
aF109.69521825408059
ag35
aF-40.004012826391111
atRp3688
(dp3689
g1680
I2
sg1681
I6
sg1678
I01
sg1682
(lp3690
I00
aI00
aI00
asg1684
I00
sg1679
I4
sg1116
F1.0833090000000001
sbag1
(g1673
g3
(lp3691
g250
ag95
aF1.0833090000000001
ag85
aF109.69555137658462
ag35
aF80.549546175660424
atRp3692
(dp3693
g1680
I2
sg1681
I6
sg1678
I01
sg1682
(lp3694
I00
aI00
aI00
asg1684
I00
sg1679
I4
sg1116
F1.0833090000000001
sbag1
(g1673
g3
(lp3695
g550
ag376
aF1.0833090000000001
ag365
aF120.76872014853575
ag63
aF-1.6173551582434356
atRp3696
(dp3697
g1680
I2
sg1681
I6
sg1678
I01
sg1682
(lp3698
I00
aI00
aI00
asg1684
I00
sg1679
I4
sg1116
F1.0833090000000001
sbag1
(g1673
g3
(lp3699
g523
ag388
aF1.0833090000000001
ag376
aF120.86234211891957
ag365
aF180
atRp3700
(dp3701
g1680
I2
sg1681
I6
sg1678
I01
sg1682
(lp3702
I00
aI00
aI00
asg1684
I00
sg1679
I4
sg1116
F1.0833090000000001
sbatRp3703
(dp3704
g836
I01
sg837
g1659
sg1117
g783
sg1118
g1226
sg871
I01
sg1703
(lp3705
g35
ag5
ag51
ag85
ag695
ag63
ag73
ag95
ag290
ag365
ag597
ag107
ag139
ag157
ag191
ag210
ag376
ag388
ag400
ag431
ag441
ag412
ag451
ag484
ag747
ag641
ag658
ag232
ag250
ag550
ag523
asg1682
(dp3706
sg1705
(dp3707
sg1279
g2406
sg1706
I01
sg1451
g2529
sbsS'small_planar_class'
p3708
g1
(g1868
g3
(lp3709
(lp3710
g400
ag388
ag412
ag431
aa(lp3711
g441
ag431
ag451
ag365
aatRp3712
(dp3713
g1705
g1
(g955
g956
(dtRp3714
(dp3715
g993
Nsg985
(dp3716
sg1000
I00
sg987
(lp3717
sg991
(dp3718
sbsg1876
(lp3719
I0
aI0
aI0
aI0
asbsS'all_rings'
p3720
(lp3721
(lp3722
S'2'
aS'3'
aS'4'
aS'5'
aS'6'
aa(lp3723
S'13'
p3724
aS'14'
p3725
aS'15'
p3726
aS'16'
p3727
aS'18'
p3728
aS'19'
p3729
aasS'bonds_md5'
p3730
S'08b2992352e6b26f0d9a2de97b7e0e6b'
p3731
sg1705
g1
(g955
g956
(dp3732
I1
(F-4.6265854542008622
F-0.5171620891795089
F-1.95507371188659
tp3733
sI2
(F-3.6621879179070618
F-1.444900356124043
F-1.9066738117198019
tp3734
sg1963
(lp3735
F0
aF10
aI0
asI4
(F-3.3396343400388817
F-2.6487490523685744
F-3.8134197325863108
tp3736
sI5
(F-1.9698450111587698
F-1.8358493851371551
F-3.4072248016050866
tp3737
sI6
(F-2.344953108715135
F-0.90177446308352838
F-2.6013025948977795
tp3738
sI7
(F-1.2550307917424002
F-0.64432732217785271
F-1.5436488438095033
tp3739
sI8
(F-0.31548065242987799
F0.23890986749357598
F-2.0855017098628874
tp3740
sI9
(F0.43958236517958194
F1.299353533277118
F-1.0749567505736615
tp3741
sI10
(F1.688264726029618
F1.8268392117083869
F-1.7406495718798214
tp3742
sI11
(F0.81216642585146959
F0.59446043679506277
F0.20710912416473273
tp3743
sI12
(F-0.48983514044384524
F2.4486623107005334
F-0.76566511033614193
tp3744
sI13
(F-3.0210511885810534
F-3.9648571842253135
F-4.2278765446932116
tp3745
sI14
(F-2.8130383763580107
F-4.8945647032277062
F-3.3111006085136889
tp3746
sI15
(F-2.5356541916402264
F-6.1854308514201994
F-3.7305565507533798
tp3747
sI16
(F-2.4901242712758465
F-6.437550623129396
F-5.0920374223684624
tp3748
sI17
(F-2.2571288289266787
F-7.5305978980961408
F-5.4854892455349518
tp3749
sI18
(F-2.7086595108975025
F-5.4575756095007231
F-5.9513369538673251
tp3750
sI3
(F-4.0759678837075244
F-2.6824209982976139
F-2.7159599200155178
tp3751
sI20
(F-3.1311905159933318
F-3.3640243467886526
F-6.3045800501996077
tp3752
sI21
(F-71.820937400830744
F60.446364859893237
F-45.065233823294982
tp3753
sI22
(F10.659520167589083
F-5.1115557196142785
F57.317747392931523
tp3754
sI23
(F-47.084722928380693
F-45.725702611889936
F44.956455858127384
tp3755
sI24
(F3.4211266742244617
F74.434549945381079
F-97.802051417873869
tp3756
sI25
(F-96.332696914427999
F81.069966484196144
F44.064481948285525
tp3757
sI26
(F-61.260463504465925
F26.608135313125128
F64.701970410597923
tp3758
sI27
(F-8.926557617866326
F51.624415456789841
F70.01992897682031
tp3759
sI28
(F67.685481945393136
F91.232830924295129
F-49.237870163982585
tp3760
sI29
(F-63.329360344042364
F-77.847907844305865
F-23.819881216726959
tp3761
sI30
(F22.642014757170646
F92.011926929439525
F-60.239889976505225
tp3762
sI31
(F85.443563557690183
F74.11617138756084
F91.577035604292888
tp3763
sg1042
g1043
sg1987
g1988
s(I24
I18
I16
tp3764
(lp3765
F119.81070877516768
aF1
as(I9
I8
I7
tp3766
(lp3767
F118.45999999999999
aF1
asg1947
g1948
sg1995
g1996
s(I22
I4
I5
tp3768
(lp3769
F109.09999999999999
aF1
asg1051
g1052
s(I24
I18
I19
tp3770
(lp3771
F119.81070877516768
aF1
asg1945
g1946
s(I30
I14
tp3772
(lp3773
F1.0833090000000001
aF100
asg1009
g1010
s(I23
I6
I5
tp3774
(lp3775
F109.09999999999999
aF1
asg1993
g1994
sg1932
g1933
s(I20
I19
tp3776
(lp3777
F1.184607
aF100
asg1979
g1980
s(I24
I18
I16
I15
tp3778
(lp3779
F180
aF1
aI0
asg1002
g1003
s(I22
I4
I3
tp3780
(lp3781
F109.09999999999999
aF1
as(I7
I6
I2
tp3782
(lp3783
F109.09999999999999
aF1
as(I30
I14
I15
I16
tp3784
(lp3785
F180
aF1
aI0
as(I30
I14
I15
tp3786
(lp3787
F120.75571647342275
aF1
asI19
(F-2.9708066508715563
F-4.2365241986470439
F-5.5198503316085237
tp3788
s(I30
I14
I13
tp3789
(lp3790
F120.75571647342275
aF1
as(I25
I1
tp3791
(lp3792
F0.94288300000000003
aF100
as(I31
I15
I14
tp3793
(lp3794
F120.86298142710825
aF1
asg967
g968
sg969
g970
s(I8
I7
I6
tp3795
(lp3796
F108.129
aF1
asg1983
g1984
s(I24
I18
tp3797
(lp3798
F1.0008300000000001
aF100
as(I12
I9
I8
tp3799
(lp3800
F120
aF1
as(I29
I7
I6
tp3801
(lp3802
F109.47122063449069
aF1
as(I24
I18
I19
I13
tp3803
(lp3804
F180
aF1
aI0
as(I27
I3
I2
tp3805
(lp3806
F109.09999999999999
aF1
asg1981
(lp3807
F0
aF10
aI0
asg1997
g1998
s(I12
I9
I10
tp3808
(lp3809
F120
aF1
asg1943
g1944
sg1955
g1956
sg1060
g1061
s(I27
I3
I4
tp3810
(lp3811
F109.09999999999999
aF1
as(I10
I9
tp3812
(lp3813
F1.51
aF100
as(I29
I7
tp3814
(lp3815
F1.0833090000000001
aF100
asg962
g963
s(I14
I13
I4
tp3816
(lp3817
F119.08223095312884
aF1
as(I11
I9
tp3818
(lp3819
F1.51
aF100
as(I28
I7
I8
tp3820
(lp3821
F109.47122063449069
aF1
as(I21
I2
I3
tp3822
(lp3823
F109.09999999999999
aF1
asg1977
g1978
sg1937
g1938
s(I20
I19
I13
tp3824
(lp3825
F119.43885136624549
aF1
as(I18
I16
I17
tp3826
(lp3827
F120.04951100492696
aF1
as(I27
I3
I26
tp3828
(lp3829
F109.47122063449069
aF1
as(I19
I13
I4
tp3830
(lp3831
F119.08223095312884
aF1
asg1991
g1992
sg1999
g2000
sg1965
(lp3832
F0
aF10
aI0
as(I9
I8
tp3833
(lp3834
F1.6482159999999999
aF100
as(I29
I7
I8
tp3835
(lp3836
F109.47122063449069
aF1
as(I13
I4
I3
tp3837
(lp3838
F109.09999999999999
aF1
as(I28
I7
I6
tp3839
(lp3840
F109.47122063449069
aF1
as(I23
I6
I2
tp3841
(lp3842
F109.09999999999999
aF1
as(I12
I9
tp3843
(lp3844
F1.51
aF100
asg1949
g1950
s(I11
I9
I10
tp3845
(lp3846
F120
aF1
as(I26
I3
tp3847
(lp3848
F1.0833090000000001
aF100
asg1012
g1013
s(I11
I9
I8
tp3849
(lp3850
F120
aF1
asg1953
g1954
s(I13
I4
I5
tp3851
(lp3852
F109.09999999999999
aF1
as(I10
I9
I8
tp3853
(lp3854
F120
aF1
as(I20
I19
I18
tp3855
(lp3856
F119.43885136624549
aF1
as(I3
I2
I1
tp3857
(lp3858
F109.09999999999999
aF1
asg1975
(lp3859
F0
aF10
aI0
asg1014
g1015
sg974
g975
sg1928
g1929
s(I8
I7
tp3860
(lp3861
F1.398717
aF100
as(I28
I7
tp3862
(lp3863
F1.0833090000000001
aF100
asg1941
g1942
s(I29
I7
I28
tp3864
(lp3865
F109.47122063449069
aF1
as(I27
I3
tp3866
(lp3867
F1.0833090000000001
aF100
as(I26
I3
I4
tp3868
(lp3869
F109.09999999999999
aF1
asg1973
g1974
sg1934
g1935
s(I17
I16
tp3870
(lp3871
F1.184607
aF100
as(I7
I6
I5
tp3872
(lp3873
F109.09999999999999
aF1
as(I31
I15
I16
tp3874
(lp3875
F120.86298142710825
aF1
as(I31
I15
I14
I13
tp3876
(lp3877
F180
aF1
aI0
as(I26
I3
I2
tp3878
(lp3879
F109.09999999999999
aF1
as(I21
I2
I6
tp3880
(lp3881
F109.09999999999999
aF1
asg2001
g2002
s(I12
I9
I11
tp3882
(lp3883
F120
aF1
as(I6
I2
I1
tp3884
(lp3885
F109.09999999999999
aF1
as(I31
I15
tp3886
(lp3887
F1.0833090000000001
aF100
asg2003
(lp3888
F0
aF10
aI0
asg1939
g1940
s(I17
I16
I15
tp3889
(lp3890
F120.04951100492696
aF1
asg1985
(lp3891
F0
aF10
aI0
asg1989
g1990
sg1951
g1952
s(I25
I1
I2
tp3892
(lp3893
F109.47122063449069
aF1
astRp3894
(dp3895
g987
(lp3896
sg991
(dp3897
sg989
(lp3898
F50
aF50
aF50
asS'plane_weights'
p3899
(lp3900
F0.02
asg985
(dp3901
I1
I0
sI2
I1
sI3
I2
sI4
I3
sI5
I4
sI6
I5
sI7
I6
sI8
I7
sI9
I8
sI10
I9
sI11
I10
sI12
I11
sI13
I12
sI14
I13
sI15
I14
sI16
I15
sI17
I16
sI18
I17
sI19
I18
sI20
I19
sI21
I20
sI22
I21
sI23
I22
sI24
I23
sI25
I24
sI26
I25
sI27
I26
sI28
I27
sI29
I28
sI30
I29
sI31
I30
ssS'planes'
p3902
(lp3903
(lp3904
g63
ag365
ag376
ag388
ag400
ag412
ag431
ag441
ag451
ag484
ag550
ag523
aasg993
Nsg994
(lp3905
g996
ag1034
ag1071
asg1000
I00
sbsg3902
(lp3906
sS'cctbx_energy_parameters'
p3907
(lp3908
F2
aF0.66666666666666663
aF1
aI1
a(I1
I1
I1
I1
tp3909
asg872
I01
sS'planar_indices'
p3910
(dp3911
(I13
I14
I15
I16
I18
I19
tp3912
I01
s(I2
I3
I4
I5
I6
tp3913
I01
ssb.